
out.elf:     file format elf32-tradlittlemips


Disassembly of section .config_BFC02FF0:

bfc02ff0 <__config_BFC02FF0>:
bfc02ff0:	ff ff fe fa                                         ....

Disassembly of section .config_BFC02FF4:

bfc02ff4 <__config_BFC02FF4>:
bfc02ff4:	d9 79 f8 ff                                         .y..

Disassembly of section .config_BFC02FF8:

bfc02ff8 <__config_BFC02FF8>:
bfc02ff8:	db ce 6c ff                                         ..l.

Disassembly of section .config_BFC02FFC:

bfc02ffc <__config_BFC02FFC>:
bfc02ffc:	ff ff ff 7e                                         ...~

Disassembly of section .reset:

bd001970 <_reset>:
bd001970:	0f40065e 	jal	bd001978 <_startup>
bd001974:	00000000 	nop

bd001978 <_startup>:
bd001978:	401a6000 	mfc0	k0,c0_status
bd00197c:	7f5a04c0 	ext	k0,k0,0x13,0x1
bd001980:	13400005 	beqz	k0,bd001998 <_no_nmi>
bd001984:	00000000 	nop
bd001988:	3c1a9d01 	lui	k0,0x9d01
bd00198c:	275ac48c 	addiu	k0,k0,-15220
bd001990:	03400008 	jr	k0
bd001994:	00000000 	nop

bd001998 <_no_nmi>:
bd001998:	3c1da002 	lui	sp,0xa002
bd00199c:	27bdfff8 	addiu	sp,sp,-8
bd0019a0:	3c1ca000 	lui	gp,0xa000
bd0019a4:	279c7ff0 	addiu	gp,gp,32752
bd0019a8:	40096002 	mfc0	t1,c0_srsctl
bd0019ac:	01205820 	add	t3,t1,zero
bd0019b0:	7d2a1e80 	ext	t2,t1,0x1a,0x4
bd0019b4:	7d494984 	ins	t1,t2,0x6,0x4
bd0019b8:	40896002 	mtc0	t1,c0_srsctl
bd0019bc:	000000c0 	ehb
bd0019c0:	41dce000 	wrpgpr	gp,gp
bd0019c4:	408b6002 	mtc0	t3,c0_srsctl
bd0019c8:	000000c0 	ehb
bd0019cc:	3c089d01 	lui	t0,0x9d01
bd0019d0:	2508c530 	addiu	t0,t0,-15056
bd0019d4:	0100f809 	jalr	t0
bd0019d8:	00000000 	nop
bd0019dc:	3c08a000 	lui	t0,0xa000
bd0019e0:	2508001c 	addiu	t0,t0,28
bd0019e4:	3c09a000 	lui	t1,0xa000
bd0019e8:	2529005c 	addiu	t1,t1,92
bd0019ec:	10000006 	b	bd001a08 <_bss_check>
bd0019f0:	00000000 	nop

bd0019f4 <_bss_init>:
bd0019f4:	ad000000 	sw	zero,0(t0)
bd0019f8:	ad000004 	sw	zero,4(t0)
bd0019fc:	ad000008 	sw	zero,8(t0)
bd001a00:	ad00000c 	sw	zero,12(t0)
bd001a04:	25080010 	addiu	t0,t0,16

bd001a08 <_bss_check>:
bd001a08:	0109082b 	sltu	at,t0,t1
bd001a0c:	1420fff9 	bnez	at,bd0019f4 <_bss_init>
bd001a10:	00000000 	nop

bd001a14 <_dinit_init>:
bd001a14:	3c089d00 	lui	t0,0x9d00
bd001a18:	25084c30 	addiu	t0,t0,19504
bd001a1c:	8d090000 	lw	t1,0(t0)
bd001a20:	11200018 	beqz	t1,bd001a84 <_dinit_end+0x18>
bd001a24:	25080004 	addiu	t0,t0,4
bd001a28:	8d0a0000 	lw	t2,0(t0)
bd001a2c:	25080004 	addiu	t0,t0,4
bd001a30:	8d0b0000 	lw	t3,0(t0)
bd001a34:	11600009 	beqz	t3,bd001a5c <_dinit_clear>
bd001a38:	25080004 	addiu	t0,t0,4

bd001a3c <_dinit_copy>:
bd001a3c:	910c0000 	lbu	t4,0(t0)
bd001a40:	254affff 	addiu	t2,t2,-1
bd001a44:	25080001 	addiu	t0,t0,1
bd001a48:	a12c0000 	sb	t4,0(t1)
bd001a4c:	1540fffb 	bnez	t2,bd001a3c <_dinit_copy>
bd001a50:	25290001 	addiu	t1,t1,1
bd001a54:	10000005 	b	bd001a6c <_dinit_end>
bd001a58:	00000000 	nop

bd001a5c <_dinit_clear>:
bd001a5c:	a1200000 	sb	zero,0(t1)
bd001a60:	254affff 	addiu	t2,t2,-1
bd001a64:	1540fffd 	bnez	t2,bd001a5c <_dinit_clear>
bd001a68:	25290001 	addiu	t1,t1,1

bd001a6c <_dinit_end>:
bd001a6c:	25080003 	addiu	t0,t0,3
bd001a70:	240afffc 	li	t2,-4
bd001a74:	01484024 	and	t0,t2,t0
bd001a78:	8d090000 	lw	t1,0(t0)
bd001a7c:	1520ffe7 	bnez	t1,bd001a1c <_dinit_init+0x8>
bd001a80:	00000000 	nop
bd001a84:	3c090000 	lui	t1,0x0
bd001a88:	25290000 	addiu	t1,t1,0
bd001a8c:	11200010 	beqz	t1,bd001ad0 <_ramfunc_done>
bd001a90:	00000000 	nop
bd001a94:	3c090002 	lui	t1,0x2
bd001a98:	25290000 	addiu	t1,t1,0
bd001a9c:	3c0abf88 	lui	t2,0xbf88
bd001aa0:	254a2010 	addiu	t2,t2,8208
bd001aa4:	ad490000 	sw	t1,0(t2)
bd001aa8:	3c090002 	lui	t1,0x2
bd001aac:	25290000 	addiu	t1,t1,0
bd001ab0:	3c0abf88 	lui	t2,0xbf88
bd001ab4:	254a2020 	addiu	t2,t2,8224
bd001ab8:	ad490000 	sw	t1,0(t2)
bd001abc:	3c090002 	lui	t1,0x2
bd001ac0:	25290000 	addiu	t1,t1,0
bd001ac4:	3c0abf88 	lui	t2,0xbf88
bd001ac8:	254a2030 	addiu	t2,t2,8240
bd001acc:	ad490000 	sw	t1,0(t2)

bd001ad0 <_ramfunc_done>:
bd001ad0:	40804800 	mtc0	zero,c0_count
bd001ad4:	240affff 	li	t2,-1
bd001ad8:	408a5800 	mtc0	t2,c0_compare
bd001adc:	3c080040 	lui	t0,0x40
bd001ae0:	400a6000 	mfc0	t2,c0_status
bd001ae4:	010a5025 	or	t2,t0,t2
bd001ae8:	408a6000 	mtc0	t2,c0_status
bd001aec:	3c099d00 	lui	t1,0x9d00
bd001af0:	25290000 	addiu	t1,t1,0
bd001af4:	000000c0 	ehb
bd001af8:	40897801 	mtc0	t1,c0_ebase
bd001afc:	3c090000 	lui	t1,0x0
bd001b00:	25290001 	addiu	t1,t1,1
bd001b04:	240a0000 	li	t2,0
bd001b08:	7d2a4944 	ins	t2,t1,0x5,0x5
bd001b0c:	408a6001 	mtc0	t2,c0_intctl
bd001b10:	3c090080 	lui	t1,0x80
bd001b14:	40896800 	mtc0	t1,c0_cause
bd001b18:	40088000 	mfc0	t0,c0_config
bd001b1c:	7d090580 	ext	t1,t0,0x16,0x1
bd001b20:	00094c40 	sll	t1,t1,0x11
bd001b24:	40086000 	mfc0	t0,c0_status
bd001b28:	3c010058 	lui	at,0x58
bd001b2c:	01014024 	and	t0,t0,at
bd001b30:	01284025 	or	t0,t1,t0
bd001b34:	40886000 	mtc0	t0,c0_status
bd001b38:	000000c0 	ehb
bd001b3c:	3c089d01 	lui	t0,0x9d01
bd001b40:	2508c538 	addiu	t0,t0,-15048
bd001b44:	0100f809 	jalr	t0
bd001b48:	00000000 	nop
bd001b4c:	40086000 	mfc0	t0,c0_status
bd001b50:	3c01ffbf 	lui	at,0xffbf
bd001b54:	3421ffff 	ori	at,at,0xffff
bd001b58:	01014024 	and	t0,t0,at
bd001b5c:	40886000 	mtc0	t0,c0_status
bd001b60:	30840000 	andi	a0,a0,0x0
bd001b64:	30a50000 	andi	a1,a1,0x0
bd001b68:	3c089d01 	lui	t0,0x9d01
bd001b6c:	2508bdf0 	addiu	t0,t0,-16912
bd001b70:	01000008 	jr	t0
bd001b74:	00000000 	nop

Disassembly of section .bev_excpt:

bd001cf0 <_bev_exception>:
bd001cf0:	3c1a9d01 	lui	k0,0x9d01
bd001cf4:	275abfc8 	addiu	k0,k0,-16440
bd001cf8:	03400008 	jr	k0
bd001cfc:	00000000 	nop

Disassembly of section .app_excpt:

9d000180 <_gen_exception>:
9d000180:	3c1a9d01 	lui	k0,0x9d01
9d000184:	275aaf54 	addiu	k0,k0,-20652
9d000188:	03400008 	jr	k0
9d00018c:	00000000 	nop

Disassembly of section .vector_0:

9d000200 <__vector_dispatch_0>:
9d000200:	0b403016 	j	9d00c058 <.LFE0>
9d000204:	00000000 	nop

Disassembly of section .vector_1:

9d000220 <__vector_dispatch_1>:
9d000220:	0b403016 	j	9d00c058 <.LFE0>
9d000224:	00000000 	nop

Disassembly of section .vector_2:

9d000240 <__vector_dispatch_2>:
9d000240:	0b403016 	j	9d00c058 <.LFE0>
9d000244:	00000000 	nop

Disassembly of section .vector_3:

9d000260 <__vector_dispatch_3>:
9d000260:	0b403016 	j	9d00c058 <.LFE0>
9d000264:	00000000 	nop

Disassembly of section .vector_4:

9d000280 <__vector_dispatch_4>:
9d000280:	0b403016 	j	9d00c058 <.LFE0>
9d000284:	00000000 	nop

Disassembly of section .vector_5:

9d0002a0 <__vector_dispatch_5>:
9d0002a0:	0b403016 	j	9d00c058 <.LFE0>
9d0002a4:	00000000 	nop

Disassembly of section .vector_6:

9d0002c0 <__vector_dispatch_6>:
9d0002c0:	0b403016 	j	9d00c058 <.LFE0>
9d0002c4:	00000000 	nop

Disassembly of section .vector_7:

9d0002e0 <__vector_dispatch_7>:
9d0002e0:	0b403016 	j	9d00c058 <.LFE0>
9d0002e4:	00000000 	nop

Disassembly of section .vector_8:

9d000300 <__vector_dispatch_8>:
9d000300:	0b40120f 	j	9d00483c <current_control_ISR>
9d000304:	00000000 	nop

Disassembly of section .vector_9:

9d000320 <__vector_dispatch_9>:
9d000320:	0b403016 	j	9d00c058 <.LFE0>
9d000324:	00000000 	nop

Disassembly of section .vector_10:

9d000340 <__vector_dispatch_10>:
9d000340:	0b403016 	j	9d00c058 <.LFE0>
9d000344:	00000000 	nop

Disassembly of section .vector_11:

9d000360 <__vector_dispatch_11>:
9d000360:	0b403016 	j	9d00c058 <.LFE0>
9d000364:	00000000 	nop

Disassembly of section .vector_12:

9d000380 <__vector_dispatch_12>:
9d000380:	0b403016 	j	9d00c058 <.LFE0>
9d000384:	00000000 	nop

Disassembly of section .vector_13:

9d0003a0 <__vector_dispatch_13>:
9d0003a0:	0b403016 	j	9d00c058 <.LFE0>
9d0003a4:	00000000 	nop

Disassembly of section .vector_14:

9d0003c0 <__vector_dispatch_14>:
9d0003c0:	0b403016 	j	9d00c058 <.LFE0>
9d0003c4:	00000000 	nop

Disassembly of section .vector_15:

9d0003e0 <__vector_dispatch_15>:
9d0003e0:	0b403016 	j	9d00c058 <.LFE0>
9d0003e4:	00000000 	nop

Disassembly of section .vector_16:

9d000400 <__vector_dispatch_16>:
9d000400:	0b4017ff 	j	9d005ffc <position_control_ISR>
9d000404:	00000000 	nop

Disassembly of section .vector_17:

9d000420 <__vector_dispatch_17>:
9d000420:	0b403016 	j	9d00c058 <.LFE0>
9d000424:	00000000 	nop

Disassembly of section .vector_18:

9d000440 <__vector_dispatch_18>:
9d000440:	0b403016 	j	9d00c058 <.LFE0>
9d000444:	00000000 	nop

Disassembly of section .vector_19:

9d000460 <__vector_dispatch_19>:
9d000460:	0b403016 	j	9d00c058 <.LFE0>
9d000464:	00000000 	nop

Disassembly of section .vector_20:

9d000480 <__vector_dispatch_20>:
9d000480:	0b403016 	j	9d00c058 <.LFE0>
9d000484:	00000000 	nop

Disassembly of section .vector_21:

9d0004a0 <__vector_dispatch_21>:
9d0004a0:	0b403016 	j	9d00c058 <.LFE0>
9d0004a4:	00000000 	nop

Disassembly of section .vector_22:

9d0004c0 <__vector_dispatch_22>:
9d0004c0:	0b403016 	j	9d00c058 <.LFE0>
9d0004c4:	00000000 	nop

Disassembly of section .vector_23:

9d0004e0 <__vector_dispatch_23>:
9d0004e0:	0b403016 	j	9d00c058 <.LFE0>
9d0004e4:	00000000 	nop

Disassembly of section .vector_24:

9d000500 <__vector_dispatch_24>:
9d000500:	0b403016 	j	9d00c058 <.LFE0>
9d000504:	00000000 	nop

Disassembly of section .vector_25:

9d000520 <__vector_dispatch_25>:
9d000520:	0b403016 	j	9d00c058 <.LFE0>
9d000524:	00000000 	nop

Disassembly of section .vector_26:

9d000540 <__vector_dispatch_26>:
9d000540:	0b403016 	j	9d00c058 <.LFE0>
9d000544:	00000000 	nop

Disassembly of section .vector_27:

9d000560 <__vector_dispatch_27>:
9d000560:	0b403016 	j	9d00c058 <.LFE0>
9d000564:	00000000 	nop

Disassembly of section .vector_28:

9d000580 <__vector_dispatch_28>:
9d000580:	0b403016 	j	9d00c058 <.LFE0>
9d000584:	00000000 	nop

Disassembly of section .vector_29:

9d0005a0 <__vector_dispatch_29>:
9d0005a0:	0b403016 	j	9d00c058 <.LFE0>
9d0005a4:	00000000 	nop

Disassembly of section .vector_30:

9d0005c0 <__vector_dispatch_30>:
9d0005c0:	0b403016 	j	9d00c058 <.LFE0>
9d0005c4:	00000000 	nop

Disassembly of section .vector_31:

9d0005e0 <__vector_dispatch_31>:
9d0005e0:	0b403016 	j	9d00c058 <.LFE0>
9d0005e4:	00000000 	nop

Disassembly of section .vector_32:

9d000600 <__vector_dispatch_32>:
9d000600:	0b403016 	j	9d00c058 <.LFE0>
9d000604:	00000000 	nop

Disassembly of section .vector_33:

9d000620 <__vector_dispatch_33>:
9d000620:	0b403016 	j	9d00c058 <.LFE0>
9d000624:	00000000 	nop

Disassembly of section .vector_34:

9d000640 <__vector_dispatch_34>:
9d000640:	0b403016 	j	9d00c058 <.LFE0>
9d000644:	00000000 	nop

Disassembly of section .vector_35:

9d000660 <__vector_dispatch_35>:
9d000660:	0b403016 	j	9d00c058 <.LFE0>
9d000664:	00000000 	nop

Disassembly of section .vector_36:

9d000680 <__vector_dispatch_36>:
9d000680:	0b403016 	j	9d00c058 <.LFE0>
9d000684:	00000000 	nop

Disassembly of section .vector_37:

9d0006a0 <__vector_dispatch_37>:
9d0006a0:	0b403016 	j	9d00c058 <.LFE0>
9d0006a4:	00000000 	nop

Disassembly of section .vector_38:

9d0006c0 <__vector_dispatch_38>:
9d0006c0:	0b403016 	j	9d00c058 <.LFE0>
9d0006c4:	00000000 	nop

Disassembly of section .vector_39:

9d0006e0 <__vector_dispatch_39>:
9d0006e0:	0b403016 	j	9d00c058 <.LFE0>
9d0006e4:	00000000 	nop

Disassembly of section .vector_40:

9d000700 <__vector_dispatch_40>:
9d000700:	0b403016 	j	9d00c058 <.LFE0>
9d000704:	00000000 	nop

Disassembly of section .vector_41:

9d000720 <__vector_dispatch_41>:
9d000720:	0b403016 	j	9d00c058 <.LFE0>
9d000724:	00000000 	nop

Disassembly of section .vector_42:

9d000740 <__vector_dispatch_42>:
9d000740:	0b403016 	j	9d00c058 <.LFE0>
9d000744:	00000000 	nop

Disassembly of section .vector_43:

9d000760 <__vector_dispatch_43>:
9d000760:	0b403016 	j	9d00c058 <.LFE0>
9d000764:	00000000 	nop

Disassembly of section .vector_44:

9d000780 <__vector_dispatch_44>:
9d000780:	0b403016 	j	9d00c058 <.LFE0>
9d000784:	00000000 	nop

Disassembly of section .vector_45:

9d0007a0 <__vector_dispatch_45>:
9d0007a0:	0b403016 	j	9d00c058 <.LFE0>
9d0007a4:	00000000 	nop

Disassembly of section .vector_46:

9d0007c0 <__vector_dispatch_46>:
9d0007c0:	0b403016 	j	9d00c058 <.LFE0>
9d0007c4:	00000000 	nop

Disassembly of section .vector_47:

9d0007e0 <__vector_dispatch_47>:
9d0007e0:	0b403016 	j	9d00c058 <.LFE0>
9d0007e4:	00000000 	nop

Disassembly of section .vector_48:

9d000800 <__vector_dispatch_48>:
9d000800:	0b403016 	j	9d00c058 <.LFE0>
9d000804:	00000000 	nop

Disassembly of section .vector_49:

9d000820 <__vector_dispatch_49>:
9d000820:	0b403016 	j	9d00c058 <.LFE0>
9d000824:	00000000 	nop

Disassembly of section .vector_50:

9d000840 <__vector_dispatch_50>:
9d000840:	0b403016 	j	9d00c058 <.LFE0>
9d000844:	00000000 	nop

Disassembly of section .vector_51:

9d000860 <__vector_dispatch_51>:
9d000860:	0b403016 	j	9d00c058 <.LFE0>
9d000864:	00000000 	nop

Disassembly of section ._debug_exception:

bfc00480 <__DbgExecReturn>:
bfc00480:	409bf800 	mtc0	k1,c0_desave
bfc00484:	000000c0 	ehb
bfc00488:	3c1b9d01 	lui	k1,0x9d01
bfc0048c:	277bc0e8 	addiu	k1,k1,-16152
bfc00490:	13600002 	beqz	k1,bfc0049c <__DbgExecReturn+0x1c>
bfc00494:	00000000 	nop
bfc00498:	409bc000 	mtc0	k1,c0_depc
bfc0049c:	401bf800 	mfc0	k1,c0_desave
bfc004a0:	000000c0 	ehb
bfc004a4:	4200001f 	deret
bfc004a8:	00000000 	nop

Disassembly of section .text.do_scan:

9d001e00 <do_scan>:
9d001e00:	27bdff00 	addiu	sp,sp,-256
9d001e04:	afbf00fc 	sw	ra,252(sp)
9d001e08:	afbe00f8 	sw	s8,248(sp)
9d001e0c:	afb700f4 	sw	s7,244(sp)
9d001e10:	afb600f0 	sw	s6,240(sp)
9d001e14:	afb500ec 	sw	s5,236(sp)
9d001e18:	afb400e8 	sw	s4,232(sp)
9d001e1c:	afb300e4 	sw	s3,228(sp)
9d001e20:	afb200e0 	sw	s2,224(sp)
9d001e24:	afb100dc 	sw	s1,220(sp)
9d001e28:	afb000d8 	sw	s0,216(sp)
9d001e2c:	00809821 	move	s3,a0
9d001e30:	8c820018 	lw	v0,24(a0)
9d001e34:	00a08021 	move	s0,a1
9d001e38:	24050002 	li	a1,2
9d001e3c:	8c420010 	lw	v0,16(v0)
9d001e40:	0040f809 	jalr	v0
9d001e44:	00c08821 	move	s1,a2
9d001e48:	104000a2 	beqz	v0,9d0020d4 <do_scan+0x2d4>
9d001e4c:	2402ffff 	li	v0,-1
9d001e50:	afb30098 	sw	s3,152(sp)
9d001e54:	afa2009c 	sw	v0,156(sp)
9d001e58:	afb100a4 	sw	s1,164(sp)
9d001e5c:	afa000ac 	sw	zero,172(sp)
9d001e60:	afa000b0 	sw	zero,176(sp)
9d001e64:	afa000a8 	sw	zero,168(sp)
9d001e68:	02002821 	move	a1,s0
9d001e6c:	0000f021 	move	s8,zero
9d001e70:	3c109d01 	lui	s0,0x9d01
9d001e74:	2610aa79 	addiu	s0,s0,-21895
9d001e78:	3c159d00 	lui	s5,0x9d00
9d001e7c:	24a20001 	addiu	v0,a1,1
9d001e80:	afa200a0 	sw	v0,160(sp)
9d001e84:	80b10000 	lb	s1,0(a1)
9d001e88:	12200012 	beqz	s1,9d001ed4 <do_scan+0xd4>
9d001e8c:	26b51ff8 	addiu	s5,s5,8184
9d001e90:	17c00010 	bnez	s8,9d001ed4 <do_scan+0xd4>
9d001e94:	24020025 	li	v0,37
9d001e98:	12220033 	beq	s1,v0,9d001f68 <do_scan+0x168>
9d001e9c:	02301021 	addu	v0,s1,s0
9d001ea0:	80420000 	lb	v0,0(v0)
9d001ea4:	30420088 	andi	v0,v0,0x88
9d001ea8:	10400021 	beqz	v0,9d001f30 <do_scan+0x130>
9d001eac:	27a40098 	addiu	a0,sp,152
9d001eb0:	0f402d9e 	jal	9d00b678 <_eat_white>
9d001eb4:	00000000 	nop
9d001eb8:	0040f021 	move	s8,v0
9d001ebc:	8fa500a0 	lw	a1,160(sp)
9d001ec0:	24a20001 	addiu	v0,a1,1
9d001ec4:	afa200a0 	sw	v0,160(sp)
9d001ec8:	80b10000 	lb	s1,0(a1)
9d001ecc:	1620fff0 	bnez	s1,9d001e90 <do_scan+0x90>
9d001ed0:	00000000 	nop
9d001ed4:	8fa4009c 	lw	a0,156(sp)
9d001ed8:	2402ffff 	li	v0,-1
9d001edc:	10820005 	beq	a0,v0,9d001ef4 <do_scan+0xf4>
9d001ee0:	00000000 	nop
9d001ee4:	96620010 	lhu	v0,16(s3)
9d001ee8:	30420080 	andi	v0,v0,0x80
9d001eec:	1040008d 	beqz	v0,9d002124 <do_scan+0x324>
9d001ef0:	2402ffff 	li	v0,-1
9d001ef4:	13c20075 	beq	s8,v0,9d0020cc <do_scan+0x2cc>
9d001ef8:	8fa200ac 	lw	v0,172(sp)
9d001efc:	8fa200b0 	lw	v0,176(sp)
9d001f00:	8fbf00fc 	lw	ra,252(sp)
9d001f04:	8fbe00f8 	lw	s8,248(sp)
9d001f08:	8fb700f4 	lw	s7,244(sp)
9d001f0c:	8fb600f0 	lw	s6,240(sp)
9d001f10:	8fb500ec 	lw	s5,236(sp)
9d001f14:	8fb400e8 	lw	s4,232(sp)
9d001f18:	8fb300e4 	lw	s3,228(sp)
9d001f1c:	8fb200e0 	lw	s2,224(sp)
9d001f20:	8fb100dc 	lw	s1,220(sp)
9d001f24:	8fb000d8 	lw	s0,216(sp)
9d001f28:	03e00008 	jr	ra
9d001f2c:	27bd0100 	addiu	sp,sp,256
9d001f30:	0f402f32 	jal	9d00bcc8 <gsgetc>
9d001f34:	00000000 	nop
9d001f38:	2403ffff 	li	v1,-1
9d001f3c:	504301cf 	beql	v0,v1,9d00267c <do_scan+0x87c>
9d001f40:	241effff 	li	s8,-1
9d001f44:	5222ffde 	beql	s1,v0,9d001ec0 <do_scan+0xc0>
9d001f48:	8fa500a0 	lw	a1,160(sp)
9d001f4c:	afa2009c 	sw	v0,156(sp)
9d001f50:	241e0001 	li	s8,1
9d001f54:	8fa200a8 	lw	v0,168(sp)
9d001f58:	2442ffff 	addiu	v0,v0,-1
9d001f5c:	afa200a8 	sw	v0,168(sp)
9d001f60:	0b4007b0 	j	9d001ec0 <do_scan+0xc0>
9d001f64:	8fa500a0 	lw	a1,160(sp)
9d001f68:	24a20002 	addiu	v0,a1,2
9d001f6c:	afa200a0 	sw	v0,160(sp)
9d001f70:	80b20001 	lb	s2,1(a1)
9d001f74:	125101a2 	beq	s2,s1,9d002600 <do_scan+0x800>
9d001f78:	2402002a 	li	v0,42
9d001f7c:	124200dd 	beq	s2,v0,9d0022f4 <do_scan+0x4f4>
9d001f80:	00008821 	move	s1,zero
9d001f84:	02121021 	addu	v0,s0,s2
9d001f88:	90420000 	lbu	v0,0(v0)
9d001f8c:	30420004 	andi	v0,v0,0x4
9d001f90:	144000c1 	bnez	v0,9d002298 <do_scan+0x498>
9d001f94:	3c167fff 	lui	s6,0x7fff
9d001f98:	36d6ffff 	ori	s6,s6,0xffff
9d001f9c:	24020068 	li	v0,104
9d001fa0:	124200cc 	beq	s2,v0,9d0022d4 <do_scan+0x4d4>
9d001fa4:	afb600d0 	sw	s6,208(sp)
9d001fa8:	2a420069 	slti	v0,s2,105
9d001fac:	144000b2 	bnez	v0,9d002278 <do_scan+0x478>
9d001fb0:	2402006c 	li	v0,108
9d001fb4:	12420054 	beq	s2,v0,9d002108 <do_scan+0x308>
9d001fb8:	8fa300a0 	lw	v1,160(sp)
9d001fbc:	24020071 	li	v0,113
9d001fc0:	16420005 	bne	s2,v0,9d001fd8 <do_scan+0x1d8>
9d001fc4:	8fa200a0 	lw	v0,160(sp)
9d001fc8:	36310800 	ori	s1,s1,0x800
9d001fcc:	24430001 	addiu	v1,v0,1
9d001fd0:	afa300a0 	sw	v1,160(sp)
9d001fd4:	80520000 	lb	s2,0(v0)
9d001fd8:	2652ffbc 	addiu	s2,s2,-68
9d001fdc:	2e420035 	sltiu	v0,s2,53
9d001fe0:	104001bf 	beqz	v0,9d0026e0 <do_scan+0x8e0>
9d001fe4:	00129080 	sll	s2,s2,0x2
9d001fe8:	02b29021 	addu	s2,s5,s2
9d001fec:	8e420000 	lw	v0,0(s2)
9d001ff0:	00400008 	jr	v0
9d001ff4:	00000000 	nop
9d001ff8:	9d002140 	0x9d002140
9d001ffc:	9d002414 	0x9d002414
9d002000:	9d002414 	0x9d002414
9d002004:	9d002414 	0x9d002414
9d002008:	9d0026e0 	0x9d0026e0
9d00200c:	9d0026e0 	0x9d0026e0
9d002010:	9d0026e0 	0x9d0026e0
9d002014:	9d0026e0 	0x9d0026e0
9d002018:	9d0026e0 	0x9d0026e0
9d00201c:	9d0026e0 	0x9d0026e0
9d002020:	9d0026e0 	0x9d0026e0
9d002024:	9d002404 	0x9d002404
9d002028:	9d0026e0 	0x9d0026e0
9d00202c:	9d0026e0 	0x9d0026e0
9d002030:	9d0026e0 	0x9d0026e0
9d002034:	9d0026e0 	0x9d0026e0
9d002038:	9d0026e0 	0x9d0026e0
9d00203c:	9d0023f4 	0x9d0023f4
9d002040:	9d0026e0 	0x9d0026e0
9d002044:	9d0026e0 	0x9d0026e0
9d002048:	9d0023e8 	0x9d0023e8
9d00204c:	9d0026e0 	0x9d0026e0
9d002050:	9d0026e0 	0x9d0026e0
9d002054:	9d002358 	0x9d002358
9d002058:	9d0026e0 	0x9d0026e0
9d00205c:	9d0026e0 	0x9d0026e0
9d002060:	9d0026e0 	0x9d0026e0
9d002064:	9d0026e0 	0x9d0026e0
9d002068:	9d0026e0 	0x9d0026e0
9d00206c:	9d0026e0 	0x9d0026e0
9d002070:	9d0026e0 	0x9d0026e0
9d002074:	9d002314 	0x9d002314
9d002078:	9d002144 	0x9d002144
9d00207c:	9d002414 	0x9d002414
9d002080:	9d002414 	0x9d002414
9d002084:	9d002414 	0x9d002414
9d002088:	9d0026e0 	0x9d0026e0
9d00208c:	9d002380 	0x9d002380
9d002090:	9d0026e0 	0x9d0026e0
9d002094:	9d0026e0 	0x9d0026e0
9d002098:	9d0026e0 	0x9d0026e0
9d00209c:	9d0026e0 	0x9d0026e0
9d0020a0:	9d00238c 	0x9d00238c
9d0020a4:	9d002308 	0x9d002308
9d0020a8:	9d0023e8 	0x9d0023e8
9d0020ac:	9d0026e0 	0x9d0026e0
9d0020b0:	9d0026e0 	0x9d0026e0
9d0020b4:	9d0023c8 	0x9d0023c8
9d0020b8:	9d0026e0 	0x9d0026e0
9d0020bc:	9d002148 	0x9d002148
9d0020c0:	9d0026e0 	0x9d0026e0
9d0020c4:	9d0026e0 	0x9d0026e0
9d0020c8:	9d0023e8 	0x9d0023e8
9d0020cc:	1440ff8c 	bnez	v0,9d001f00 <do_scan+0x100>
9d0020d0:	8fa200b0 	lw	v0,176(sp)
9d0020d4:	2402ffff 	li	v0,-1
9d0020d8:	8fbf00fc 	lw	ra,252(sp)
9d0020dc:	8fbe00f8 	lw	s8,248(sp)
9d0020e0:	8fb700f4 	lw	s7,244(sp)
9d0020e4:	8fb600f0 	lw	s6,240(sp)
9d0020e8:	8fb500ec 	lw	s5,236(sp)
9d0020ec:	8fb400e8 	lw	s4,232(sp)
9d0020f0:	8fb300e4 	lw	s3,228(sp)
9d0020f4:	8fb200e0 	lw	s2,224(sp)
9d0020f8:	8fb100dc 	lw	s1,220(sp)
9d0020fc:	8fb000d8 	lw	s0,216(sp)
9d002100:	03e00008 	jr	ra
9d002104:	27bd0100 	addiu	sp,sp,256
9d002108:	24640001 	addiu	a0,v1,1
9d00210c:	afa400a0 	sw	a0,160(sp)
9d002110:	80720000 	lb	s2,0(v1)
9d002114:	12420119 	beq	s2,v0,9d00257c <do_scan+0x77c>
9d002118:	24620002 	addiu	v0,v1,2
9d00211c:	0b4007f6 	j	9d001fd8 <do_scan+0x1d8>
9d002120:	36310200 	ori	s1,s1,0x200
9d002124:	0f4029cc 	jal	9d00a730 <ungetc>
9d002128:	8fa50098 	lw	a1,152(sp)
9d00212c:	2402ffff 	li	v0,-1
9d002130:	57c2ff73 	bnel	s8,v0,9d001f00 <do_scan+0x100>
9d002134:	8fa200b0 	lw	v0,176(sp)
9d002138:	0b400833 	j	9d0020cc <do_scan+0x2cc>
9d00213c:	8fa200ac 	lw	v0,172(sp)
9d002140:	36310200 	ori	s1,s1,0x200
9d002144:	36311000 	ori	s1,s1,0x1000
9d002148:	2403000a 	li	v1,10
9d00214c:	afa300d4 	sw	v1,212(sp)
9d002150:	0f402d9e 	jal	9d00b678 <_eat_white>
9d002154:	27a40098 	addiu	a0,sp,152
9d002158:	1440ff58 	bnez	v0,9d001ebc <do_scan+0xbc>
9d00215c:	0040f021 	move	s8,v0
9d002160:	27a40018 	addiu	a0,sp,24
9d002164:	afa400cc 	sw	a0,204(sp)
9d002168:	8fa200d0 	lw	v0,208(sp)
9d00216c:	1440010b 	bnez	v0,9d00259c <do_scan+0x79c>
9d002170:	00009021 	move	s2,zero
9d002174:	27b60018 	addiu	s6,sp,24
9d002178:	8fa300d4 	lw	v1,212(sp)
9d00217c:	106000fa 	beqz	v1,9d002568 <do_scan+0x768>
9d002180:	2417ffff 	li	s7,-1
9d002184:	24020010 	li	v0,16
9d002188:	8fa300d4 	lw	v1,212(sp)
9d00218c:	1062015a 	beq	v1,v0,9d0026f8 <do_scan+0x8f8>
9d002190:	24020030 	li	v0,48
9d002194:	24020008 	li	v0,8
9d002198:	8fa300d4 	lw	v1,212(sp)
9d00219c:	146200f5 	bne	v1,v0,9d002574 <do_scan+0x774>
9d0021a0:	3c029d01 	lui	v0,0x9d01
9d0021a4:	24030008 	li	v1,8
9d0021a8:	afa300d4 	sw	v1,212(sp)
9d0021ac:	3c049d01 	lui	a0,0x9d01
9d0021b0:	2494c288 	addiu	s4,a0,-15736
9d0021b4:	2403ffff 	li	v1,-1
9d0021b8:	12e30009 	beq	s7,v1,9d0021e0 <do_scan+0x3e0>
9d0021bc:	02802021 	move	a0,s4
9d0021c0:	0f402b5f 	jal	9d00ad7c <strchr>
9d0021c4:	02e02821 	move	a1,s7
9d0021c8:	1040011d 	beqz	v0,9d002640 <do_scan+0x840>
9d0021cc:	26c20001 	addiu	v0,s6,1
9d0021d0:	afa200cc 	sw	v0,204(sp)
9d0021d4:	16400121 	bnez	s2,9d00265c <do_scan+0x85c>
9d0021d8:	a2d70000 	sb	s7,0(s6)
9d0021dc:	8fb600cc 	lw	s6,204(sp)
9d0021e0:	a2c00000 	sb	zero,0(s6)
9d0021e4:	2417ffff 	li	s7,-1
9d0021e8:	32340800 	andi	s4,s1,0x800
9d0021ec:	32361000 	andi	s6,s1,0x1000
9d0021f0:	27a40018 	addiu	a0,sp,24
9d0021f4:	27a500cc 	addiu	a1,sp,204
9d0021f8:	1280010a 	beqz	s4,9d002624 <do_scan+0x824>
9d0021fc:	8fa600d4 	lw	a2,212(sp)
9d002200:	12c00126 	beqz	s6,9d00269c <do_scan+0x89c>
9d002204:	00000000 	nop
9d002208:	0f402031 	jal	9d0080c4 <.LFE23>
9d00220c:	00000000 	nop
9d002210:	00402021 	move	a0,v0
9d002214:	00602821 	move	a1,v1
9d002218:	00001021 	move	v0,zero
9d00221c:	8fa300ac 	lw	v1,172(sp)
9d002220:	24630001 	addiu	v1,v1,1
9d002224:	afa300ac 	sw	v1,172(sp)
9d002228:	8fa300d0 	lw	v1,208(sp)
9d00222c:	10720115 	beq	v1,s2,9d002684 <do_scan+0x884>
9d002230:	32230001 	andi	v1,s1,0x1
9d002234:	5460ff22 	bnezl	v1,9d001ec0 <do_scan+0xc0>
9d002238:	8fa500a0 	lw	a1,160(sp)
9d00223c:	56800122 	bnezl	s4,9d0026c8 <do_scan+0x8c8>
9d002240:	8fa200a4 	lw	v0,164(sp)
9d002244:	32230200 	andi	v1,s1,0x200
9d002248:	10600171 	beqz	v1,9d002810 <do_scan+0xa10>
9d00224c:	32230100 	andi	v1,s1,0x100
9d002250:	8fa300a4 	lw	v1,164(sp)
9d002254:	24640004 	addiu	a0,v1,4
9d002258:	afa400a4 	sw	a0,164(sp)
9d00225c:	8c630000 	lw	v1,0(v1)
9d002260:	ac620000 	sw	v0,0(v1)
9d002264:	8fa200b0 	lw	v0,176(sp)
9d002268:	24420001 	addiu	v0,v0,1
9d00226c:	afa200b0 	sw	v0,176(sp)
9d002270:	0b4007b0 	j	9d001ec0 <do_scan+0xc0>
9d002274:	8fa500a0 	lw	a1,160(sp)
9d002278:	2402004c 	li	v0,76
9d00227c:	1642ff56 	bne	s2,v0,9d001fd8 <do_scan+0x1d8>
9d002280:	8fa200a0 	lw	v0,160(sp)
9d002284:	36310400 	ori	s1,s1,0x400
9d002288:	24430001 	addiu	v1,v0,1
9d00228c:	afa300a0 	sw	v1,160(sp)
9d002290:	0b4007f6 	j	9d001fd8 <do_scan+0x1d8>
9d002294:	80520000 	lb	s2,0(v0)
9d002298:	27a500a0 	addiu	a1,sp,160
9d00229c:	2406000a 	li	a2,10
9d0022a0:	8fa200a0 	lw	v0,160(sp)
9d0022a4:	2442ffff 	addiu	v0,v0,-1
9d0022a8:	00402021 	move	a0,v0
9d0022ac:	0f4024b9 	jal	9d0092e4 <strtoul>
9d0022b0:	afa200a0 	sw	v0,160(sp)
9d0022b4:	afa200d0 	sw	v0,208(sp)
9d0022b8:	8fa200a0 	lw	v0,160(sp)
9d0022bc:	24430001 	addiu	v1,v0,1
9d0022c0:	afa300a0 	sw	v1,160(sp)
9d0022c4:	80520000 	lb	s2,0(v0)
9d0022c8:	24020068 	li	v0,104
9d0022cc:	5642ff37 	bnel	s2,v0,9d001fac <do_scan+0x1ac>
9d0022d0:	2a420069 	slti	v0,s2,105
9d0022d4:	8fa300a0 	lw	v1,160(sp)
9d0022d8:	24640001 	addiu	a0,v1,1
9d0022dc:	afa400a0 	sw	a0,160(sp)
9d0022e0:	80720000 	lb	s2,0(v1)
9d0022e4:	124200a9 	beq	s2,v0,9d00258c <do_scan+0x78c>
9d0022e8:	24620002 	addiu	v0,v1,2
9d0022ec:	0b4007f6 	j	9d001fd8 <do_scan+0x1d8>
9d0022f0:	36310100 	ori	s1,s1,0x100
9d0022f4:	24a20003 	addiu	v0,a1,3
9d0022f8:	afa200a0 	sw	v0,160(sp)
9d0022fc:	80b20002 	lb	s2,2(a1)
9d002300:	0b4007e1 	j	9d001f84 <do_scan+0x184>
9d002304:	24110001 	li	s1,1
9d002308:	24030008 	li	v1,8
9d00230c:	0b400854 	j	9d002150 <do_scan+0x350>
9d002310:	afa300d4 	sw	v1,212(sp)
9d002314:	3c077fff 	lui	a3,0x7fff
9d002318:	34e7ffff 	ori	a3,a3,0xffff
9d00231c:	8fa400d0 	lw	a0,208(sp)
9d002320:	00873826 	xor	a3,a0,a3
9d002324:	27a20098 	addiu	v0,sp,152
9d002328:	afa20010 	sw	v0,16(sp)
9d00232c:	00002021 	move	a0,zero
9d002330:	00002821 	move	a1,zero
9d002334:	02203021 	move	a2,s1
9d002338:	24020001 	li	v0,1
9d00233c:	8fa300d0 	lw	v1,208(sp)
9d002340:	0047180a 	movz	v1,v0,a3
9d002344:	0f402377 	jal	9d008ddc <_strtostr>
9d002348:	00603821 	move	a3,v1
9d00234c:	0040f021 	move	s8,v0
9d002350:	0b4007b0 	j	9d001ec0 <do_scan+0xc0>
9d002354:	8fa500a0 	lw	a1,160(sp)
9d002358:	27a20098 	addiu	v0,sp,152
9d00235c:	afa20010 	sw	v0,16(sp)
9d002360:	24040002 	li	a0,2
9d002364:	24050001 	li	a1,1
9d002368:	02203021 	move	a2,s1
9d00236c:	0f402377 	jal	9d008ddc <_strtostr>
9d002370:	8fa700d0 	lw	a3,208(sp)
9d002374:	0040f021 	move	s8,v0
9d002378:	0b4007b0 	j	9d001ec0 <do_scan+0xc0>
9d00237c:	8fa500a0 	lw	a1,160(sp)
9d002380:	36311000 	ori	s1,s1,0x1000
9d002384:	0b400854 	j	9d002150 <do_scan+0x350>
9d002388:	afa000d4 	sw	zero,212(sp)
9d00238c:	32220001 	andi	v0,s1,0x1
9d002390:	1440fecb 	bnez	v0,9d001ec0 <do_scan+0xc0>
9d002394:	8fa500a0 	lw	a1,160(sp)
9d002398:	32230800 	andi	v1,s1,0x800
9d00239c:	10600112 	beqz	v1,9d0027e8 <do_scan+0x9e8>
9d0023a0:	8fa200a8 	lw	v0,168(sp)
9d0023a4:	8fa300a4 	lw	v1,164(sp)
9d0023a8:	000227c3 	sra	a0,v0,0x1f
9d0023ac:	24650004 	addiu	a1,v1,4
9d0023b0:	afa500a4 	sw	a1,164(sp)
9d0023b4:	8c630000 	lw	v1,0(v1)
9d0023b8:	ac620000 	sw	v0,0(v1)
9d0023bc:	ac640004 	sw	a0,4(v1)
9d0023c0:	0b4007b0 	j	9d001ec0 <do_scan+0xc0>
9d0023c4:	8fa500a0 	lw	a1,160(sp)
9d0023c8:	0f402d9e 	jal	9d00b678 <_eat_white>
9d0023cc:	27a40098 	addiu	a0,sp,152
9d0023d0:	1440feba 	bnez	v0,9d001ebc <do_scan+0xbc>
9d0023d4:	0040f021 	move	s8,v0
9d0023d8:	27a30098 	addiu	v1,sp,152
9d0023dc:	afa30010 	sw	v1,16(sp)
9d0023e0:	0b4008d9 	j	9d002364 <do_scan+0x564>
9d0023e4:	24040001 	li	a0,1
9d0023e8:	24030010 	li	v1,16
9d0023ec:	0b400854 	j	9d002150 <do_scan+0x350>
9d0023f0:	afa300d4 	sw	v1,212(sp)
9d0023f4:	36310200 	ori	s1,s1,0x200
9d0023f8:	2403000a 	li	v1,10
9d0023fc:	0b400854 	j	9d002150 <do_scan+0x350>
9d002400:	afa300d4 	sw	v1,212(sp)
9d002404:	36310200 	ori	s1,s1,0x200
9d002408:	24030008 	li	v1,8
9d00240c:	0b400854 	j	9d002150 <do_scan+0x350>
9d002410:	afa300d4 	sw	v1,212(sp)
9d002414:	0f402d9e 	jal	9d00b678 <_eat_white>
9d002418:	27a40098 	addiu	a0,sp,152
9d00241c:	1440fea7 	bnez	v0,9d001ebc <do_scan+0xbc>
9d002420:	0040f021 	move	s8,v0
9d002424:	8fa400d0 	lw	a0,208(sp)
9d002428:	afa400b8 	sw	a0,184(sp)
9d00242c:	27a20098 	addiu	v0,sp,152
9d002430:	afa200b4 	sw	v0,180(sp)
9d002434:	27a20018 	addiu	v0,sp,24
9d002438:	afa200bc 	sw	v0,188(sp)
9d00243c:	afa000c0 	sw	zero,192(sp)
9d002440:	24020080 	li	v0,128
9d002444:	afa200c4 	sw	v0,196(sp)
9d002448:	14800109 	bnez	a0,9d002870 <do_scan+0xa70>
9d00244c:	afa000c8 	sw	zero,200(sp)
9d002450:	3c049d01 	lui	a0,0x9d01
9d002454:	2482aa78 	addiu	v0,a0,-21896
9d002458:	2416ffff 	li	s6,-1
9d00245c:	0000a021 	move	s4,zero
9d002460:	0b40091e 	j	9d002478 <do_scan+0x678>
9d002464:	27b200b4 	addiu	s2,sp,180
9d002468:	0f402a19 	jal	9d00a864 <putget.2773>
9d00246c:	02c02021 	move	a0,s6
9d002470:	0040b021 	move	s6,v0
9d002474:	02021021 	addu	v0,s0,v0
9d002478:	90420000 	lbu	v0,0(v0)
9d00247c:	30420004 	andi	v0,v0,0x4
9d002480:	1440fff9 	bnez	v0,9d002468 <do_scan+0x668>
9d002484:	02407821 	move	t7,s2
9d002488:	2402002e 	li	v0,46
9d00248c:	12c20135 	beq	s6,v0,9d002964 <do_scan+0xb64>
9d002490:	8fa200c8 	lw	v0,200(sp)
9d002494:	00541023 	subu	v0,v0,s4
9d002498:	18400005 	blez	v0,9d0024b0 <do_scan+0x6b0>
9d00249c:	2403ffdf 	li	v1,-33
9d0024a0:	02c31824 	and	v1,s6,v1
9d0024a4:	24020045 	li	v0,69
9d0024a8:	1062010a 	beq	v1,v0,9d0028d4 <do_scan+0xad4>
9d0024ac:	02407821 	move	t7,s2
9d0024b0:	02407821 	move	t7,s2
9d0024b4:	0f402a19 	jal	9d00a864 <putget.2773>
9d0024b8:	00002021 	move	a0,zero
9d0024bc:	2402ffff 	li	v0,-1
9d0024c0:	12c20008 	beq	s6,v0,9d0024e4 <do_scan+0x6e4>
9d0024c4:	8fa200b4 	lw	v0,180(sp)
9d0024c8:	8c430010 	lw	v1,16(v0)
9d0024cc:	8fa400b8 	lw	a0,184(sp)
9d0024d0:	24840001 	addiu	a0,a0,1
9d0024d4:	afa400b8 	sw	a0,184(sp)
9d0024d8:	2463ffff 	addiu	v1,v1,-1
9d0024dc:	ac560004 	sw	s6,4(v0)
9d0024e0:	ac430010 	sw	v1,16(v0)
9d0024e4:	8fa200c8 	lw	v0,200(sp)
9d0024e8:	0054a023 	subu	s4,v0,s4
9d0024ec:	1a8000f7 	blez	s4,9d0028cc <do_scan+0xacc>
9d0024f0:	8fa200b4 	lw	v0,180(sp)
9d0024f4:	32230001 	andi	v1,s1,0x1
9d0024f8:	8c440014 	lw	a0,20(v0)
9d0024fc:	24840001 	addiu	a0,a0,1
9d002500:	14600011 	bnez	v1,9d002548 <do_scan+0x748>
9d002504:	ac440014 	sw	a0,20(v0)
9d002508:	32230400 	andi	v1,s1,0x400
9d00250c:	14600129 	bnez	v1,9d0029b4 <do_scan+0xbb4>
9d002510:	00002821 	move	a1,zero
9d002514:	32310200 	andi	s1,s1,0x200
9d002518:	8c43000c 	lw	v1,12(v0)
9d00251c:	8fa400bc 	lw	a0,188(sp)
9d002520:	24660004 	addiu	a2,v1,4
9d002524:	1220011c 	beqz	s1,9d002998 <do_scan+0xb98>
9d002528:	ac46000c 	sw	a2,12(v0)
9d00252c:	0f403101 	jal	9d00c404 <strtod>
9d002530:	8c710000 	lw	s1,0(v1)
9d002534:	ae220000 	sw	v0,0(s1)
9d002538:	8fa200b4 	lw	v0,180(sp)
9d00253c:	8c430018 	lw	v1,24(v0)
9d002540:	24630001 	addiu	v1,v1,1
9d002544:	ac430018 	sw	v1,24(v0)
9d002548:	8fa400c0 	lw	a0,192(sp)
9d00254c:	5080fe5c 	beqzl	a0,9d001ec0 <do_scan+0xc0>
9d002550:	8fa500a0 	lw	a1,160(sp)
9d002554:	0f402418 	jal	9d009060 <free>
9d002558:	00000000 	nop
9d00255c:	0b4007b0 	j	9d001ec0 <do_scan+0xc0>
9d002560:	8fa500a0 	lw	a1,160(sp)
9d002564:	2417ffff 	li	s7,-1
9d002568:	2403000a 	li	v1,10
9d00256c:	afa300d4 	sw	v1,212(sp)
9d002570:	3c029d01 	lui	v0,0x9d01
9d002574:	0b40086d 	j	9d0021b4 <do_scan+0x3b4>
9d002578:	2454c2ac 	addiu	s4,v0,-15700
9d00257c:	afa200a0 	sw	v0,160(sp)
9d002580:	80720001 	lb	s2,1(v1)
9d002584:	0b4007f6 	j	9d001fd8 <do_scan+0x1d8>
9d002588:	36310800 	ori	s1,s1,0x800
9d00258c:	afa200a0 	sw	v0,160(sp)
9d002590:	80720001 	lb	s2,1(v1)
9d002594:	0b4007f6 	j	9d001fd8 <do_scan+0x1d8>
9d002598:	36310080 	ori	s1,s1,0x80
9d00259c:	0f402f32 	jal	9d00bcc8 <gsgetc>
9d0025a0:	27a40098 	addiu	a0,sp,152
9d0025a4:	0040b821 	move	s7,v0
9d0025a8:	2402ffff 	li	v0,-1
9d0025ac:	12e2004f 	beq	s7,v0,9d0026ec <do_scan+0x8ec>
9d0025b0:	8fa300d0 	lw	v1,208(sp)
9d0025b4:	2402002b 	li	v0,43
9d0025b8:	16e2010c 	bne	s7,v0,9d0029ec <do_scan+0xbec>
9d0025bc:	2472ffff 	addiu	s2,v1,-1
9d0025c0:	8fa200cc 	lw	v0,204(sp)
9d0025c4:	24430001 	addiu	v1,v0,1
9d0025c8:	afa300cc 	sw	v1,204(sp)
9d0025cc:	16400063 	bnez	s2,9d00275c <do_scan+0x95c>
9d0025d0:	a0570000 	sb	s7,0(v0)
9d0025d4:	8fa300d4 	lw	v1,212(sp)
9d0025d8:	1060ffe2 	beqz	v1,9d002564 <do_scan+0x764>
9d0025dc:	8fb600cc 	lw	s6,204(sp)
9d0025e0:	24020010 	li	v0,16
9d0025e4:	1462feeb 	bne	v1,v0,9d002194 <do_scan+0x394>
9d0025e8:	2417ffff 	li	s7,-1
9d0025ec:	24030010 	li	v1,16
9d0025f0:	afa300d4 	sw	v1,212(sp)
9d0025f4:	3c049d01 	lui	a0,0x9d01
9d0025f8:	0b40086d 	j	9d0021b4 <do_scan+0x3b4>
9d0025fc:	2494c294 	addiu	s4,a0,-15724
9d002600:	0f402f32 	jal	9d00bcc8 <gsgetc>
9d002604:	27a40098 	addiu	a0,sp,152
9d002608:	2403ffff 	li	v1,-1
9d00260c:	5043001b 	beql	v0,v1,9d00267c <do_scan+0x87c>
9d002610:	241effff 	li	s8,-1
9d002614:	5452fe4e 	bnel	v0,s2,9d001f50 <do_scan+0x150>
9d002618:	afa2009c 	sw	v0,156(sp)
9d00261c:	0b4007b0 	j	9d001ec0 <do_scan+0xc0>
9d002620:	8fa500a0 	lw	a1,160(sp)
9d002624:	12c00023 	beqz	s6,9d0026b4 <do_scan+0x8b4>
9d002628:	00000000 	nop
9d00262c:	0f402559 	jal	9d009564 <strtol>
9d002630:	00000000 	nop
9d002634:	00002021 	move	a0,zero
9d002638:	0b400887 	j	9d00221c <do_scan+0x41c>
9d00263c:	00002821 	move	a1,zero
9d002640:	a2c00000 	sb	zero,0(s6)
9d002644:	26520001 	addiu	s2,s2,1
9d002648:	afb7009c 	sw	s7,156(sp)
9d00264c:	8fa200a8 	lw	v0,168(sp)
9d002650:	2442ffff 	addiu	v0,v0,-1
9d002654:	0b40087a 	j	9d0021e8 <do_scan+0x3e8>
9d002658:	afa200a8 	sw	v0,168(sp)
9d00265c:	0f402f32 	jal	9d00bcc8 <gsgetc>
9d002660:	27a40098 	addiu	a0,sp,152
9d002664:	0040b821 	move	s7,v0
9d002668:	00021027 	nor	v0,zero,v0
9d00266c:	8fb600cc 	lw	s6,204(sp)
9d002670:	0002102b 	sltu	v0,zero,v0
9d002674:	0b40086d 	j	9d0021b4 <do_scan+0x3b4>
9d002678:	02429023 	subu	s2,s2,v0
9d00267c:	0b4007b0 	j	9d001ec0 <do_scan+0xc0>
9d002680:	8fa500a0 	lw	a1,160(sp)
9d002684:	241effff 	li	s8,-1
9d002688:	00174027 	nor	t0,zero,s7
9d00268c:	24020001 	li	v0,1
9d002690:	0048f00b 	movn	s8,v0,t0
9d002694:	0b4007b0 	j	9d001ec0 <do_scan+0xc0>
9d002698:	8fa500a0 	lw	a1,160(sp)
9d00269c:	0f4022b4 	jal	9d008ad0 <strtoull>
9d0026a0:	00000000 	nop
9d0026a4:	00402021 	move	a0,v0
9d0026a8:	00602821 	move	a1,v1
9d0026ac:	0b400887 	j	9d00221c <do_scan+0x41c>
9d0026b0:	00001021 	move	v0,zero
9d0026b4:	0f4024b9 	jal	9d0092e4 <strtoul>
9d0026b8:	00000000 	nop
9d0026bc:	00002021 	move	a0,zero
9d0026c0:	0b400887 	j	9d00221c <do_scan+0x41c>
9d0026c4:	00002821 	move	a1,zero
9d0026c8:	24430004 	addiu	v1,v0,4
9d0026cc:	afa300a4 	sw	v1,164(sp)
9d0026d0:	8c420000 	lw	v0,0(v0)
9d0026d4:	ac440000 	sw	a0,0(v0)
9d0026d8:	0b400899 	j	9d002264 <do_scan+0x464>
9d0026dc:	ac450004 	sw	a1,4(v0)
9d0026e0:	241e0001 	li	s8,1
9d0026e4:	0b4007b0 	j	9d001ec0 <do_scan+0xc0>
9d0026e8:	8fa500a0 	lw	a1,160(sp)
9d0026ec:	8fb600cc 	lw	s6,204(sp)
9d0026f0:	0b40085e 	j	9d002178 <do_scan+0x378>
9d0026f4:	8fb200d0 	lw	s2,208(sp)
9d0026f8:	16e2ffbd 	bne	s7,v0,9d0025f0 <do_scan+0x7f0>
9d0026fc:	24030010 	li	v1,16
9d002700:	26c20001 	addiu	v0,s6,1
9d002704:	afa200cc 	sw	v0,204(sp)
9d002708:	16400004 	bnez	s2,9d00271c <do_scan+0x91c>
9d00270c:	a2d70000 	sb	s7,0(s6)
9d002710:	8fb600cc 	lw	s6,204(sp)
9d002714:	0b40097b 	j	9d0025ec <do_scan+0x7ec>
9d002718:	2417ffff 	li	s7,-1
9d00271c:	0f402f32 	jal	9d00bcc8 <gsgetc>
9d002720:	27a40098 	addiu	a0,sp,152
9d002724:	2416ffff 	li	s6,-1
9d002728:	1056fff9 	beq	v0,s6,9d002710 <do_scan+0x910>
9d00272c:	0040b821 	move	s7,v0
9d002730:	2403ffdf 	li	v1,-33
9d002734:	00431824 	and	v1,v0,v1
9d002738:	24020058 	li	v0,88
9d00273c:	146200a8 	bne	v1,v0,9d0029e0 <do_scan+0xbe0>
9d002740:	2654ffff 	addiu	s4,s2,-1
9d002744:	16800080 	bnez	s4,9d002948 <do_scan+0xb48>
9d002748:	00000000 	nop
9d00274c:	8fb600cc 	lw	s6,204(sp)
9d002750:	00009021 	move	s2,zero
9d002754:	0b40097b 	j	9d0025ec <do_scan+0x7ec>
9d002758:	2417ffff 	li	s7,-1
9d00275c:	0f402f32 	jal	9d00bcc8 <gsgetc>
9d002760:	27a40098 	addiu	a0,sp,152
9d002764:	0040b821 	move	s7,v0
9d002768:	2402ffff 	li	v0,-1
9d00276c:	12e2ff9a 	beq	s7,v0,9d0025d8 <do_scan+0x7d8>
9d002770:	8fa300d4 	lw	v1,212(sp)
9d002774:	8fb600cc 	lw	s6,204(sp)
9d002778:	8fa400d0 	lw	a0,208(sp)
9d00277c:	2492fffe 	addiu	s2,a0,-2
9d002780:	8fa300d4 	lw	v1,212(sp)
9d002784:	1460fe81 	bnez	v1,9d00218c <do_scan+0x38c>
9d002788:	24020010 	li	v0,16
9d00278c:	24020030 	li	v0,48
9d002790:	16e2ff76 	bne	s7,v0,9d00256c <do_scan+0x76c>
9d002794:	2403000a 	li	v1,10
9d002798:	26c20001 	addiu	v0,s6,1
9d00279c:	afa200cc 	sw	v0,204(sp)
9d0027a0:	16400004 	bnez	s2,9d0027b4 <do_scan+0x9b4>
9d0027a4:	a2d70000 	sb	s7,0(s6)
9d0027a8:	2417ffff 	li	s7,-1
9d0027ac:	0b400869 	j	9d0021a4 <do_scan+0x3a4>
9d0027b0:	8fb600cc 	lw	s6,204(sp)
9d0027b4:	0f402f32 	jal	9d00bcc8 <gsgetc>
9d0027b8:	27a40098 	addiu	a0,sp,152
9d0027bc:	2416ffff 	li	s6,-1
9d0027c0:	1056fff9 	beq	v0,s6,9d0027a8 <do_scan+0x9a8>
9d0027c4:	0040b821 	move	s7,v0
9d0027c8:	2403ffdf 	li	v1,-33
9d0027cc:	00431824 	and	v1,v0,v1
9d0027d0:	24020058 	li	v0,88
9d0027d4:	1062ffdb 	beq	v1,v0,9d002744 <do_scan+0x944>
9d0027d8:	2654ffff 	addiu	s4,s2,-1
9d0027dc:	02809021 	move	s2,s4
9d0027e0:	0b400869 	j	9d0021a4 <do_scan+0x3a4>
9d0027e4:	8fb600cc 	lw	s6,204(sp)
9d0027e8:	32230200 	andi	v1,s1,0x200
9d0027ec:	10600010 	beqz	v1,9d002830 <do_scan+0xa30>
9d0027f0:	32230100 	andi	v1,s1,0x100
9d0027f4:	8fa300a4 	lw	v1,164(sp)
9d0027f8:	24640004 	addiu	a0,v1,4
9d0027fc:	afa400a4 	sw	a0,164(sp)
9d002800:	8c630000 	lw	v1,0(v1)
9d002804:	ac620000 	sw	v0,0(v1)
9d002808:	0b4007b0 	j	9d001ec0 <do_scan+0xc0>
9d00280c:	8fa500a0 	lw	a1,160(sp)
9d002810:	10600010 	beqz	v1,9d002854 <do_scan+0xa54>
9d002814:	32310080 	andi	s1,s1,0x80
9d002818:	8fa300a4 	lw	v1,164(sp)
9d00281c:	24640004 	addiu	a0,v1,4
9d002820:	afa400a4 	sw	a0,164(sp)
9d002824:	8c630000 	lw	v1,0(v1)
9d002828:	0b400899 	j	9d002264 <do_scan+0x464>
9d00282c:	a4620000 	sh	v0,0(v1)
9d002830:	1060003d 	beqz	v1,9d002928 <do_scan+0xb28>
9d002834:	32310080 	andi	s1,s1,0x80
9d002838:	8fa300a4 	lw	v1,164(sp)
9d00283c:	24640004 	addiu	a0,v1,4
9d002840:	afa400a4 	sw	a0,164(sp)
9d002844:	8c630000 	lw	v1,0(v1)
9d002848:	a4620000 	sh	v0,0(v1)
9d00284c:	0b4007b0 	j	9d001ec0 <do_scan+0xc0>
9d002850:	8fa500a0 	lw	a1,160(sp)
9d002854:	8fa300a4 	lw	v1,164(sp)
9d002858:	24640004 	addiu	a0,v1,4
9d00285c:	afa400a4 	sw	a0,164(sp)
9d002860:	1220002f 	beqz	s1,9d002920 <do_scan+0xb20>
9d002864:	8c630000 	lw	v1,0(v1)
9d002868:	0b400899 	j	9d002264 <do_scan+0x464>
9d00286c:	a0620000 	sb	v0,0(v1)
9d002870:	0f402f32 	jal	9d00bcc8 <gsgetc>
9d002874:	27a40098 	addiu	a0,sp,152
9d002878:	0040b021 	move	s6,v0
9d00287c:	2402ffff 	li	v0,-1
9d002880:	52c2fef4 	beql	s6,v0,9d002454 <do_scan+0x654>
9d002884:	3c049d01 	lui	a0,0x9d01
9d002888:	8fa200b8 	lw	v0,184(sp)
9d00288c:	2442ffff 	addiu	v0,v0,-1
9d002890:	afa200b8 	sw	v0,184(sp)
9d002894:	2402002b 	li	v0,43
9d002898:	56c20059 	bnel	s6,v0,9d002a00 <do_scan+0xc00>
9d00289c:	2402002d 	li	v0,45
9d0028a0:	27b200b4 	addiu	s2,sp,180
9d0028a4:	02407821 	move	t7,s2
9d0028a8:	0f402a19 	jal	9d00a864 <putget.2773>
9d0028ac:	02c02021 	move	a0,s6
9d0028b0:	0040b021 	move	s6,v0
9d0028b4:	24420001 	addiu	v0,v0,1
9d0028b8:	3c049d01 	lui	a0,0x9d01
9d0028bc:	2483aa78 	addiu	v1,a0,-21896
9d0028c0:	00621021 	addu	v0,v1,v0
9d0028c4:	0b40091e 	j	9d002478 <do_scan+0x678>
9d0028c8:	24140001 	li	s4,1
9d0028cc:	0b400952 	j	9d002548 <do_scan+0x748>
9d0028d0:	241e0001 	li	s8,1
9d0028d4:	0f402a19 	jal	9d00a864 <putget.2773>
9d0028d8:	02c02021 	move	a0,s6
9d0028dc:	0040b021 	move	s6,v0
9d0028e0:	2402002d 	li	v0,45
9d0028e4:	12c20003 	beq	s6,v0,9d0028f4 <do_scan+0xaf4>
9d0028e8:	2402002b 	li	v0,43
9d0028ec:	16c20006 	bne	s6,v0,9d002908 <do_scan+0xb08>
9d0028f0:	02161021 	addu	v0,s0,s6
9d0028f4:	02407821 	move	t7,s2
9d0028f8:	0f402a19 	jal	9d00a864 <putget.2773>
9d0028fc:	02c02021 	move	a0,s6
9d002900:	0040b021 	move	s6,v0
9d002904:	02161021 	addu	v0,s0,s6
9d002908:	90420000 	lbu	v0,0(v0)
9d00290c:	30420004 	andi	v0,v0,0x4
9d002910:	1440fff9 	bnez	v0,9d0028f8 <do_scan+0xaf8>
9d002914:	02407821 	move	t7,s2
9d002918:	0b40092d 	j	9d0024b4 <do_scan+0x6b4>
9d00291c:	00000000 	nop
9d002920:	0b400899 	j	9d002264 <do_scan+0x464>
9d002924:	ac620000 	sw	v0,0(v1)
9d002928:	8fa300a4 	lw	v1,164(sp)
9d00292c:	24640004 	addiu	a0,v1,4
9d002930:	afa400a4 	sw	a0,164(sp)
9d002934:	1220001c 	beqz	s1,9d0029a8 <do_scan+0xba8>
9d002938:	8c630000 	lw	v1,0(v1)
9d00293c:	a0620000 	sb	v0,0(v1)
9d002940:	0b4007b0 	j	9d001ec0 <do_scan+0xc0>
9d002944:	8fa500a0 	lw	a1,160(sp)
9d002948:	0f402f32 	jal	9d00bcc8 <gsgetc>
9d00294c:	27a40098 	addiu	a0,sp,152
9d002950:	10560023 	beq	v0,s6,9d0029e0 <do_scan+0xbe0>
9d002954:	0040b821 	move	s7,v0
9d002958:	2652fffe 	addiu	s2,s2,-2
9d00295c:	0b40097b 	j	9d0025ec <do_scan+0x7ec>
9d002960:	8fb600cc 	lw	s6,204(sp)
9d002964:	0b400a5c 	j	9d002970 <do_scan+0xb70>
9d002968:	2404002e 	li	a0,46
9d00296c:	02c02021 	move	a0,s6
9d002970:	0f402a19 	jal	9d00a864 <putget.2773>
9d002974:	00000000 	nop
9d002978:	0040b021 	move	s6,v0
9d00297c:	02021021 	addu	v0,s0,v0
9d002980:	90420000 	lbu	v0,0(v0)
9d002984:	30420004 	andi	v0,v0,0x4
9d002988:	1440fff8 	bnez	v0,9d00296c <do_scan+0xb6c>
9d00298c:	02407821 	move	t7,s2
9d002990:	0b400925 	j	9d002494 <do_scan+0x694>
9d002994:	8fa200c8 	lw	v0,200(sp)
9d002998:	0f403108 	jal	9d00c420 <strtof>
9d00299c:	8c710000 	lw	s1,0(v1)
9d0029a0:	0b40094e 	j	9d002538 <do_scan+0x738>
9d0029a4:	ae220000 	sw	v0,0(s1)
9d0029a8:	ac620000 	sw	v0,0(v1)
9d0029ac:	0b4007b0 	j	9d001ec0 <do_scan+0xc0>
9d0029b0:	8fa500a0 	lw	a1,160(sp)
9d0029b4:	8c43000c 	lw	v1,12(v0)
9d0029b8:	8fa400bc 	lw	a0,188(sp)
9d0029bc:	24660004 	addiu	a2,v1,4
9d0029c0:	ac46000c 	sw	a2,12(v0)
9d0029c4:	0f403101 	jal	9d00c404 <strtod>
9d0029c8:	8c710000 	lw	s1,0(v1)
9d0029cc:	0f402cd3 	jal	9d00b34c <__extendsfdf2>
9d0029d0:	00402021 	move	a0,v0
9d0029d4:	ae220000 	sw	v0,0(s1)
9d0029d8:	0b40094e 	j	9d002538 <do_scan+0x738>
9d0029dc:	ae230004 	sw	v1,4(s1)
9d0029e0:	8fb600cc 	lw	s6,204(sp)
9d0029e4:	0b40097b 	j	9d0025ec <do_scan+0x7ec>
9d0029e8:	02809021 	move	s2,s4
9d0029ec:	2402002d 	li	v0,45
9d0029f0:	12e2fef4 	beq	s7,v0,9d0025c4 <do_scan+0x7c4>
9d0029f4:	8fa200cc 	lw	v0,204(sp)
9d0029f8:	0b4009e0 	j	9d002780 <do_scan+0x980>
9d0029fc:	8fb600cc 	lw	s6,204(sp)
9d002a00:	52c2ffa8 	beql	s6,v0,9d0028a4 <do_scan+0xaa4>
9d002a04:	27b200b4 	addiu	s2,sp,180
9d002a08:	26c20001 	addiu	v0,s6,1
9d002a0c:	3c049d01 	lui	a0,0x9d01
9d002a10:	2483aa78 	addiu	v1,a0,-21896
9d002a14:	0b400917 	j	9d00245c <do_scan+0x65c>
9d002a18:	00621021 	addu	v0,v1,v0

Disassembly of section .text._do_print_cdfFnopuxX:

9d002a1c <_do_print_cdfFnopuxX>:
9d002a1c:	27bdff60 	addiu	sp,sp,-160
9d002a20:	afbf009c 	sw	ra,156(sp)
9d002a24:	afbe0098 	sw	s8,152(sp)
9d002a28:	afb70094 	sw	s7,148(sp)
9d002a2c:	afb60090 	sw	s6,144(sp)
9d002a30:	afb5008c 	sw	s5,140(sp)
9d002a34:	afb40088 	sw	s4,136(sp)
9d002a38:	afb30084 	sw	s3,132(sp)
9d002a3c:	afb20080 	sw	s2,128(sp)
9d002a40:	afb1007c 	sw	s1,124(sp)
9d002a44:	afb00078 	sw	s0,120(sp)
9d002a48:	afa400a0 	sw	a0,160(sp)
9d002a4c:	8c820018 	lw	v0,24(a0)
9d002a50:	00a09021 	move	s2,a1
9d002a54:	24050001 	li	a1,1
9d002a58:	8c420010 	lw	v0,16(v0)
9d002a5c:	0040f809 	jalr	v0
9d002a60:	afa600a8 	sw	a2,168(sp)
9d002a64:	104001a9 	beqz	v0,9d00310c <_do_print_cdfFnopuxX+0x6f0>
9d002a68:	27a20058 	addiu	v0,sp,88
9d002a6c:	afa00068 	sw	zero,104(sp)
9d002a70:	afa20060 	sw	v0,96(sp)
9d002a74:	82440000 	lb	a0,0(s2)
9d002a78:	1080000d 	beqz	a0,9d002ab0 <_do_print_cdfFnopuxX+0x94>
9d002a7c:	26500001 	addiu	s0,s2,1
9d002a80:	24020025 	li	v0,37
9d002a84:	5082001c 	beql	a0,v0,9d002af8 <_do_print_cdfFnopuxX+0xdc>
9d002a88:	82420001 	lb	v0,1(s2)
9d002a8c:	0f402ca8 	jal	9d00b2a0 <.LFE3>
9d002a90:	8fa500a0 	lw	a1,160(sp)
9d002a94:	8fa30068 	lw	v1,104(sp)
9d002a98:	24630001 	addiu	v1,v1,1
9d002a9c:	afa30068 	sw	v1,104(sp)
9d002aa0:	02009021 	move	s2,s0
9d002aa4:	82440000 	lb	a0,0(s2)
9d002aa8:	1480fff5 	bnez	a0,9d002a80 <_do_print_cdfFnopuxX+0x64>
9d002aac:	26500001 	addiu	s0,s2,1
9d002ab0:	8fa400a0 	lw	a0,160(sp)
9d002ab4:	94820010 	lhu	v0,16(a0)
9d002ab8:	30420040 	andi	v0,v0,0x40
9d002abc:	14400194 	bnez	v0,9d003110 <_do_print_cdfFnopuxX+0x6f4>
9d002ac0:	2402ffff 	li	v0,-1
9d002ac4:	8fa20068 	lw	v0,104(sp)
9d002ac8:	8fbf009c 	lw	ra,156(sp)
9d002acc:	8fbe0098 	lw	s8,152(sp)
9d002ad0:	8fb70094 	lw	s7,148(sp)
9d002ad4:	8fb60090 	lw	s6,144(sp)
9d002ad8:	8fb5008c 	lw	s5,140(sp)
9d002adc:	8fb40088 	lw	s4,136(sp)
9d002ae0:	8fb30084 	lw	s3,132(sp)
9d002ae4:	8fb20080 	lw	s2,128(sp)
9d002ae8:	8fb1007c 	lw	s1,124(sp)
9d002aec:	8fb00078 	lw	s0,120(sp)
9d002af0:	03e00008 	jr	ra
9d002af4:	27bd00a0 	addiu	sp,sp,160
9d002af8:	10440174 	beq	v0,a0,9d0030cc <_do_print_cdfFnopuxX+0x6b0>
9d002afc:	0000b821 	move	s7,zero
9d002b00:	2403002d 	li	v1,45
9d002b04:	2404002b 	li	a0,43
9d002b08:	24050020 	li	a1,32
9d002b0c:	24060023 	li	a2,35
9d002b10:	1043000e 	beq	v0,v1,9d002b4c <_do_print_cdfFnopuxX+0x130>
9d002b14:	24070030 	li	a3,48
9d002b18:	50440010 	beql	v0,a0,9d002b5c <_do_print_cdfFnopuxX+0x140>
9d002b1c:	36f70002 	ori	s7,s7,0x2
9d002b20:	50450011 	beql	v0,a1,9d002b68 <_do_print_cdfFnopuxX+0x14c>
9d002b24:	36f70001 	ori	s7,s7,0x1
9d002b28:	50460012 	beql	v0,a2,9d002b74 <_do_print_cdfFnopuxX+0x158>
9d002b2c:	36f70800 	ori	s7,s7,0x800
9d002b30:	54470013 	bnel	v0,a3,9d002b80 <_do_print_cdfFnopuxX+0x164>
9d002b34:	2403002a 	li	v1,42
9d002b38:	36f70004 	ori	s7,s7,0x4
9d002b3c:	26100001 	addiu	s0,s0,1
9d002b40:	82020000 	lb	v0,0(s0)
9d002b44:	1443fff4 	bne	v0,v1,9d002b18 <_do_print_cdfFnopuxX+0xfc>
9d002b48:	00000000 	nop
9d002b4c:	36f70008 	ori	s7,s7,0x8
9d002b50:	26100001 	addiu	s0,s0,1
9d002b54:	0b400ad1 	j	9d002b44 <_do_print_cdfFnopuxX+0x128>
9d002b58:	82020000 	lb	v0,0(s0)
9d002b5c:	26100001 	addiu	s0,s0,1
9d002b60:	0b400ad1 	j	9d002b44 <_do_print_cdfFnopuxX+0x128>
9d002b64:	82020000 	lb	v0,0(s0)
9d002b68:	26100001 	addiu	s0,s0,1
9d002b6c:	0b400ad1 	j	9d002b44 <_do_print_cdfFnopuxX+0x128>
9d002b70:	82020000 	lb	v0,0(s0)
9d002b74:	26100001 	addiu	s0,s0,1
9d002b78:	0b400ad1 	j	9d002b44 <_do_print_cdfFnopuxX+0x128>
9d002b7c:	82020000 	lb	v0,0(s0)
9d002b80:	10430128 	beq	v0,v1,9d003024 <_do_print_cdfFnopuxX+0x608>
9d002b84:	02002021 	move	a0,s0
9d002b88:	2443ffd0 	addiu	v1,v0,-48
9d002b8c:	2c63000a 	sltiu	v1,v1,10
9d002b90:	1060000b 	beqz	v1,9d002bc0 <_do_print_cdfFnopuxX+0x1a4>
9d002b94:	0000b021 	move	s6,zero
9d002b98:	00161840 	sll	v1,s6,0x1
9d002b9c:	001650c0 	sll	t2,s6,0x3
9d002ba0:	006a5021 	addu	t2,v1,t2
9d002ba4:	26100001 	addiu	s0,s0,1
9d002ba8:	01425021 	addu	t2,t2,v0
9d002bac:	82020000 	lb	v0,0(s0)
9d002bb0:	2443ffd0 	addiu	v1,v0,-48
9d002bb4:	2c63000a 	sltiu	v1,v1,10
9d002bb8:	1460fff7 	bnez	v1,9d002b98 <_do_print_cdfFnopuxX+0x17c>
9d002bbc:	2556ffd0 	addiu	s6,t2,-48
9d002bc0:	2403002e 	li	v1,46
9d002bc4:	104300f0 	beq	v0,v1,9d002f88 <_do_print_cdfFnopuxX+0x56c>
9d002bc8:	241effff 	li	s8,-1
9d002bcc:	24030068 	li	v1,104
9d002bd0:	50430103 	beql	v0,v1,9d002fe0 <_do_print_cdfFnopuxX+0x5c4>
9d002bd4:	82030001 	lb	v1,1(s0)
9d002bd8:	2403006c 	li	v1,108
9d002bdc:	1043011b 	beq	v0,v1,9d00304c <_do_print_cdfFnopuxX+0x630>
9d002be0:	24030071 	li	v1,113
9d002be4:	10430145 	beq	v0,v1,9d0030fc <_do_print_cdfFnopuxX+0x6e0>
9d002be8:	2403004c 	li	v1,76
9d002bec:	504301d4 	beql	v0,v1,9d003340 <_do_print_cdfFnopuxX+0x924>
9d002bf0:	82020001 	lb	v0,1(s0)
9d002bf4:	32e40002 	andi	a0,s7,0x2
9d002bf8:	32e3fffe 	andi	v1,s7,0xfffe
9d002bfc:	0064b80b 	movn	s7,v1,a0
9d002c00:	2442ffbc 	addiu	v0,v0,-68
9d002c04:	32e50008 	andi	a1,s7,0x8
9d002c08:	32e4fffb 	andi	a0,s7,0xfffb
9d002c0c:	2c430035 	sltiu	v1,v0,53
9d002c10:	26120001 	addiu	s2,s0,1
9d002c14:	10600101 	beqz	v1,9d00301c <_do_print_cdfFnopuxX+0x600>
9d002c18:	0085b80b 	movn	s7,a0,a1
9d002c1c:	00021080 	sll	v0,v0,0x2
9d002c20:	3c049d00 	lui	a0,0x9d00
9d002c24:	24842c38 	addiu	a0,a0,11320
9d002c28:	00821021 	addu	v0,a0,v0
9d002c2c:	8c420000 	lw	v0,0(v0)
9d002c30:	00400008 	jr	v0
9d002c34:	00000000 	nop
9d002c38:	9d002ea0 	0x9d002ea0
9d002c3c:	9d00301c 	0x9d00301c
9d002c40:	9d00301c 	0x9d00301c
9d002c44:	9d00301c 	0x9d00301c
9d002c48:	9d00301c 	0x9d00301c
9d002c4c:	9d00301c 	0x9d00301c
9d002c50:	9d00301c 	0x9d00301c
9d002c54:	9d00301c 	0x9d00301c
9d002c58:	9d00301c 	0x9d00301c
9d002c5c:	9d00301c 	0x9d00301c
9d002c60:	9d00301c 	0x9d00301c
9d002c64:	9d003280 	0x9d003280
9d002c68:	9d002f10 	0x9d002f10
9d002c6c:	9d00301c 	0x9d00301c
9d002c70:	9d00301c 	0x9d00301c
9d002c74:	9d00301c 	0x9d00301c
9d002c78:	9d00301c 	0x9d00301c
9d002c7c:	9d002f00 	0x9d002f00
9d002c80:	9d00301c 	0x9d00301c
9d002c84:	9d00301c 	0x9d00301c
9d002c88:	9d002d0c 	0x9d002d0c
9d002c8c:	9d00301c 	0x9d00301c
9d002c90:	9d00301c 	0x9d00301c
9d002c94:	9d00301c 	0x9d00301c
9d002c98:	9d00301c 	0x9d00301c
9d002c9c:	9d00301c 	0x9d00301c
9d002ca0:	9d00301c 	0x9d00301c
9d002ca4:	9d00301c 	0x9d00301c
9d002ca8:	9d00301c 	0x9d00301c
9d002cac:	9d00301c 	0x9d00301c
9d002cb0:	9d00301c 	0x9d00301c
9d002cb4:	9d00324c 	0x9d00324c
9d002cb8:	9d002ea4 	0x9d002ea4
9d002cbc:	9d00301c 	0x9d00301c
9d002cc0:	9d003214 	0x9d003214
9d002cc4:	9d00301c 	0x9d00301c
9d002cc8:	9d00301c 	0x9d00301c
9d002ccc:	9d002ea4 	0x9d002ea4
9d002cd0:	9d00301c 	0x9d00301c
9d002cd4:	9d00301c 	0x9d00301c
9d002cd8:	9d00301c 	0x9d00301c
9d002cdc:	9d00301c 	0x9d00301c
9d002ce0:	9d0031cc 	0x9d0031cc
9d002ce4:	9d0031c4 	0x9d0031c4
9d002ce8:	9d002f14 	0x9d002f14
9d002cec:	9d00301c 	0x9d00301c
9d002cf0:	9d00301c 	0x9d00301c
9d002cf4:	9d00328c 	0x9d00328c
9d002cf8:	9d00301c 	0x9d00301c
9d002cfc:	9d002f04 	0x9d002f04
9d002d00:	9d00301c 	0x9d00301c
9d002d04:	9d00301c 	0x9d00301c
9d002d08:	9d002d10 	0x9d002d10
9d002d0c:	36f70020 	ori	s7,s7,0x20
9d002d10:	24100010 	li	s0,16
9d002d14:	2402ffff 	li	v0,-1
9d002d18:	13c20068 	beq	s8,v0,9d002ebc <_do_print_cdfFnopuxX+0x4a0>
9d002d1c:	00002821 	move	a1,zero
9d002d20:	32f7fffb 	andi	s7,s7,0xfffb
9d002d24:	27c5ffff 	addiu	a1,s8,-1
9d002d28:	32e200c0 	andi	v0,s7,0xc0
9d002d2c:	10400067 	beqz	v0,9d002ecc <_do_print_cdfFnopuxX+0x4b0>
9d002d30:	afa2006c 	sw	v0,108(sp)
9d002d34:	7c171620 	seh	v0,s7
9d002d38:	04400193 	bltz	v0,9d003388 <_do_print_cdfFnopuxX+0x96c>
9d002d3c:	32e20010 	andi	v0,s7,0x10
9d002d40:	104000ff 	beqz	v0,9d003140 <_do_print_cdfFnopuxX+0x724>
9d002d44:	32e20041 	andi	v0,s7,0x41
9d002d48:	8fa400a8 	lw	a0,168(sp)
9d002d4c:	8c950000 	lw	s5,0(a0)
9d002d50:	24840004 	addiu	a0,a0,4
9d002d54:	afa400a8 	sw	a0,168(sp)
9d002d58:	0015a7c3 	sra	s4,s5,0x1f
9d002d5c:	02801021 	move	v0,s4
9d002d60:	0440010c 	bltz	v0,9d003194 <_do_print_cdfFnopuxX+0x778>
9d002d64:	02a01821 	move	v1,s5
9d002d68:	afa00074 	sw	zero,116(sp)
9d002d6c:	128000be 	beqz	s4,9d003068 <_do_print_cdfFnopuxX+0x64c>
9d002d70:	02b41025 	or	v0,s5,s4
9d002d74:	104001a7 	beqz	v0,9d003414 <_do_print_cdfFnopuxX+0x9f8>
9d002d78:	27a20057 	addiu	v0,sp,87
9d002d7c:	afa20070 	sw	v0,112(sp)
9d002d80:	32e30020 	andi	v1,s7,0x20
9d002d84:	24040037 	li	a0,55
9d002d88:	00108fc3 	sra	s1,s0,0x1f
9d002d8c:	00409821 	move	s3,v0
9d002d90:	24020057 	li	v0,87
9d002d94:	0043200a 	movz	a0,v0,v1
9d002d98:	afa40064 	sw	a0,100(sp)
9d002d9c:	02a02021 	move	a0,s5
9d002da0:	02802821 	move	a1,s4
9d002da4:	02003021 	move	a2,s0
9d002da8:	0f401aec 	jal	9d006bb0 <__umoddi3>
9d002dac:	02203821 	move	a3,s1
9d002db0:	2843000a 	slti	v1,v0,10
9d002db4:	24460030 	addiu	a2,v0,48
9d002db8:	8fa40064 	lw	a0,100(sp)
9d002dbc:	00441021 	addu	v0,v0,a0
9d002dc0:	0043300a 	movz	a2,v0,v1
9d002dc4:	2673ffff 	addiu	s3,s3,-1
9d002dc8:	02a02021 	move	a0,s5
9d002dcc:	02802821 	move	a1,s4
9d002dd0:	a2660001 	sb	a2,1(s3)
9d002dd4:	02003021 	move	a2,s0
9d002dd8:	0f401d1b 	jal	9d00746c <__udivdi3>
9d002ddc:	02203821 	move	a3,s1
9d002de0:	00622025 	or	a0,v1,v0
9d002de4:	0040a821 	move	s5,v0
9d002de8:	0060a021 	move	s4,v1
9d002dec:	1480ffeb 	bnez	a0,9d002d9c <_do_print_cdfFnopuxX+0x380>
9d002df0:	27deffff 	addiu	s8,s8,-1
9d002df4:	27c5ffff 	addiu	a1,s8,-1
9d002df8:	04a0000a 	bltz	a1,9d002e24 <_do_print_cdfFnopuxX+0x408>
9d002dfc:	02601021 	move	v0,s3
9d002e00:	2664ffff 	addiu	a0,s3,-1
9d002e04:	00852023 	subu	a0,a0,a1
9d002e08:	24030030 	li	v1,48
9d002e0c:	a0430000 	sb	v1,0(v0)
9d002e10:	2442ffff 	addiu	v0,v0,-1
9d002e14:	5444fffe 	bnel	v0,a0,9d002e10 <_do_print_cdfFnopuxX+0x3f4>
9d002e18:	a0430000 	sb	v1,0(v0)
9d002e1c:	00052827 	nor	a1,zero,a1
9d002e20:	02659821 	addu	s3,s3,a1
9d002e24:	32e20004 	andi	v0,s7,0x4
9d002e28:	1440003d 	bnez	v0,9d002f20 <_do_print_cdfFnopuxX+0x504>
9d002e2c:	32e40800 	andi	a0,s7,0x800
9d002e30:	3084ffff 	andi	a0,a0,0xffff
9d002e34:	50800007 	beqzl	a0,9d002e54 <_do_print_cdfFnopuxX+0x438>
9d002e38:	8fa3006c 	lw	v1,108(sp)
9d002e3c:	24020008 	li	v0,8
9d002e40:	12020141 	beq	s0,v0,9d003348 <_do_print_cdfFnopuxX+0x92c>
9d002e44:	24020010 	li	v0,16
9d002e48:	1202016a 	beq	s0,v0,9d0033f4 <_do_print_cdfFnopuxX+0x9d8>
9d002e4c:	32e40020 	andi	a0,s7,0x20
9d002e50:	8fa3006c 	lw	v1,108(sp)
9d002e54:	10600007 	beqz	v1,9d002e74 <_do_print_cdfFnopuxX+0x458>
9d002e58:	8fa40074 	lw	a0,116(sp)
9d002e5c:	148000a3 	bnez	a0,9d0030ec <_do_print_cdfFnopuxX+0x6d0>
9d002e60:	32e20002 	andi	v0,s7,0x2
9d002e64:	10400003 	beqz	v0,9d002e74 <_do_print_cdfFnopuxX+0x458>
9d002e68:	2402002b 	li	v0,43
9d002e6c:	a2620000 	sb	v0,0(s3)
9d002e70:	2673ffff 	addiu	s3,s3,-1
9d002e74:	26650001 	addiu	a1,s3,1
9d002e78:	afb70010 	sw	s7,16(sp)
9d002e7c:	8fa400a0 	lw	a0,160(sp)
9d002e80:	8fa20060 	lw	v0,96(sp)
9d002e84:	00453023 	subu	a2,v0,a1
9d002e88:	0f40297d 	jal	9d00a5f4 <_outcnvrt>
9d002e8c:	02c03821 	move	a3,s6
9d002e90:	8fa30068 	lw	v1,104(sp)
9d002e94:	00621821 	addu	v1,v1,v0
9d002e98:	0b400a9d 	j	9d002a74 <_do_print_cdfFnopuxX+0x58>
9d002e9c:	afa30068 	sw	v1,104(sp)
9d002ea0:	36f70010 	ori	s7,s7,0x10
9d002ea4:	32e8f7ff 	andi	t0,s7,0xf7ff
9d002ea8:	351700c0 	ori	s7,t0,0xc0
9d002eac:	2402ffff 	li	v0,-1
9d002eb0:	17c2ff9b 	bne	s8,v0,9d002d20 <_do_print_cdfFnopuxX+0x304>
9d002eb4:	2410000a 	li	s0,10
9d002eb8:	00002821 	move	a1,zero
9d002ebc:	241e0001 	li	s8,1
9d002ec0:	32e200c0 	andi	v0,s7,0xc0
9d002ec4:	1440ff9b 	bnez	v0,9d002d34 <_do_print_cdfFnopuxX+0x318>
9d002ec8:	afa2006c 	sw	v0,108(sp)
9d002ecc:	7c171620 	seh	v0,s7
9d002ed0:	04400124 	bltz	v0,9d003364 <_do_print_cdfFnopuxX+0x948>
9d002ed4:	8fa400a8 	lw	a0,168(sp)
9d002ed8:	32e20010 	andi	v0,s7,0x10
9d002edc:	504000a4 	beqzl	v0,9d003170 <_do_print_cdfFnopuxX+0x754>
9d002ee0:	32e20041 	andi	v0,s7,0x41
9d002ee4:	8fa400a8 	lw	a0,168(sp)
9d002ee8:	8c950000 	lw	s5,0(a0)
9d002eec:	0000a021 	move	s4,zero
9d002ef0:	24840004 	addiu	a0,a0,4
9d002ef4:	afa400a8 	sw	a0,168(sp)
9d002ef8:	0b400b5b 	j	9d002d6c <_do_print_cdfFnopuxX+0x350>
9d002efc:	afa00074 	sw	zero,116(sp)
9d002f00:	36f70010 	ori	s7,s7,0x10
9d002f04:	32f7f7ff 	andi	s7,s7,0xf7ff
9d002f08:	0b400b45 	j	9d002d14 <_do_print_cdfFnopuxX+0x2f8>
9d002f0c:	2410000a 	li	s0,10
9d002f10:	36f70020 	ori	s7,s7,0x20
9d002f14:	36f70810 	ori	s7,s7,0x810
9d002f18:	0b400b45 	j	9d002d14 <_do_print_cdfFnopuxX+0x2f8>
9d002f1c:	24100010 	li	s0,16
9d002f20:	8fa20070 	lw	v0,112(sp)
9d002f24:	02621823 	subu	v1,s3,v0
9d002f28:	3084ffff 	andi	a0,a0,0xffff
9d002f2c:	10800006 	beqz	a0,9d002f48 <_do_print_cdfFnopuxX+0x52c>
9d002f30:	02c31821 	addu	v1,s6,v1
9d002f34:	24020008 	li	v0,8
9d002f38:	1202013e 	beq	s0,v0,9d003434 <_do_print_cdfFnopuxX+0xa18>
9d002f3c:	2462fffe 	addiu	v0,v1,-2
9d002f40:	3a050010 	xori	a1,s0,0x10
9d002f44:	0045180a 	movz	v1,v0,a1
9d002f48:	8fa2006c 	lw	v0,108(sp)
9d002f4c:	10400004 	beqz	v0,9d002f60 <_do_print_cdfFnopuxX+0x544>
9d002f50:	8fa20074 	lw	v0,116(sp)
9d002f54:	10400097 	beqz	v0,9d0031b4 <_do_print_cdfFnopuxX+0x798>
9d002f58:	32e20003 	andi	v0,s7,0x3
9d002f5c:	2463ffff 	addiu	v1,v1,-1
9d002f60:	1860ffb4 	blez	v1,9d002e34 <_do_print_cdfFnopuxX+0x418>
9d002f64:	02601021 	move	v0,s3
9d002f68:	02634823 	subu	t1,s3,v1
9d002f6c:	24030030 	li	v1,48
9d002f70:	a0430000 	sb	v1,0(v0)
9d002f74:	2442ffff 	addiu	v0,v0,-1
9d002f78:	5522fffe 	bnel	t1,v0,9d002f74 <_do_print_cdfFnopuxX+0x558>
9d002f7c:	a0430000 	sb	v1,0(v0)
9d002f80:	0b400b8d 	j	9d002e34 <_do_print_cdfFnopuxX+0x418>
9d002f84:	01209821 	move	s3,t1
9d002f88:	82020001 	lb	v0,1(s0)
9d002f8c:	2403002a 	li	v1,42
9d002f90:	1043010e 	beq	v0,v1,9d0033cc <_do_print_cdfFnopuxX+0x9b0>
9d002f94:	2443ffd0 	addiu	v1,v0,-48
9d002f98:	2c63000a 	sltiu	v1,v1,10
9d002f9c:	26100001 	addiu	s0,s0,1
9d002fa0:	1060ff0a 	beqz	v1,9d002bcc <_do_print_cdfFnopuxX+0x1b0>
9d002fa4:	0000f021 	move	s8,zero
9d002fa8:	001e1840 	sll	v1,s8,0x1
9d002fac:	001e58c0 	sll	t3,s8,0x3
9d002fb0:	006b5821 	addu	t3,v1,t3
9d002fb4:	26100001 	addiu	s0,s0,1
9d002fb8:	01625821 	addu	t3,t3,v0
9d002fbc:	82020000 	lb	v0,0(s0)
9d002fc0:	2443ffd0 	addiu	v1,v0,-48
9d002fc4:	2c63000a 	sltiu	v1,v1,10
9d002fc8:	1460fff7 	bnez	v1,9d002fa8 <_do_print_cdfFnopuxX+0x58c>
9d002fcc:	257effd0 	addiu	s8,t3,-48
9d002fd0:	24030068 	li	v1,104
9d002fd4:	1443ff01 	bne	v0,v1,9d002bdc <_do_print_cdfFnopuxX+0x1c0>
9d002fd8:	2403006c 	li	v1,108
9d002fdc:	82030001 	lb	v1,1(s0)
9d002fe0:	506200f6 	beql	v1,v0,9d0033bc <_do_print_cdfFnopuxX+0x9a0>
9d002fe4:	82020002 	lb	v0,2(s0)
9d002fe8:	36f70040 	ori	s7,s7,0x40
9d002fec:	00601021 	move	v0,v1
9d002ff0:	26100001 	addiu	s0,s0,1
9d002ff4:	32e40002 	andi	a0,s7,0x2
9d002ff8:	32e3fffe 	andi	v1,s7,0xfffe
9d002ffc:	0064b80b 	movn	s7,v1,a0
9d003000:	2442ffbc 	addiu	v0,v0,-68
9d003004:	32e50008 	andi	a1,s7,0x8
9d003008:	32e4fffb 	andi	a0,s7,0xfffb
9d00300c:	2c430035 	sltiu	v1,v0,53
9d003010:	26120001 	addiu	s2,s0,1
9d003014:	1460ff01 	bnez	v1,9d002c1c <_do_print_cdfFnopuxX+0x200>
9d003018:	0085b80b 	movn	s7,a0,a1
9d00301c:	0b400ba4 	j	9d002e90 <_do_print_cdfFnopuxX+0x474>
9d003020:	00001021 	move	v0,zero
9d003024:	8fa200a8 	lw	v0,168(sp)
9d003028:	8c560000 	lw	s6,0(v0)
9d00302c:	24550004 	addiu	s5,v0,4
9d003030:	26100001 	addiu	s0,s0,1
9d003034:	06c10003 	bgez	s6,9d003044 <_do_print_cdfFnopuxX+0x628>
9d003038:	80820001 	lb	v0,1(a0)
9d00303c:	36f70008 	ori	s7,s7,0x8
9d003040:	0016b023 	negu	s6,s6
9d003044:	0b400af0 	j	9d002bc0 <_do_print_cdfFnopuxX+0x1a4>
9d003048:	afb500a8 	sw	s5,168(sp)
9d00304c:	82030001 	lb	v1,1(s0)
9d003050:	506200f4 	beql	v1,v0,9d003424 <_do_print_cdfFnopuxX+0xa08>
9d003054:	82020002 	lb	v0,2(s0)
9d003058:	36f70010 	ori	s7,s7,0x10
9d00305c:	00601021 	move	v0,v1
9d003060:	0b400bfd 	j	9d002ff4 <_do_print_cdfFnopuxX+0x5d8>
9d003064:	26100001 	addiu	s0,s0,1
9d003068:	12a000ea 	beqz	s5,9d003414 <_do_print_cdfFnopuxX+0x9f8>
9d00306c:	02a06821 	move	t5,s5
9d003070:	27a30057 	addiu	v1,sp,87
9d003074:	afa30070 	sw	v1,112(sp)
9d003078:	32e30020 	andi	v1,s7,0x20
9d00307c:	24050037 	li	a1,55
9d003080:	8fb30070 	lw	s3,112(sp)
9d003084:	24020057 	li	v0,87
9d003088:	0043280a 	movz	a1,v0,v1
9d00308c:	01b0001b 	divu	zero,t5,s0
9d003090:	020001f4 	teq	s0,zero,0x7
9d003094:	00001810 	mfhi	v1
9d003098:	2673ffff 	addiu	s3,s3,-1
9d00309c:	27deffff 	addiu	s8,s8,-1
9d0030a0:	01b0001b 	divu	zero,t5,s0
9d0030a4:	020001f4 	teq	s0,zero,0x7
9d0030a8:	00006812 	mflo	t5
9d0030ac:	2864000a 	slti	a0,v1,10
9d0030b0:	24620030 	addiu	v0,v1,48
9d0030b4:	00651821 	addu	v1,v1,a1
9d0030b8:	0064100a 	movz	v0,v1,a0
9d0030bc:	15a0fff3 	bnez	t5,9d00308c <_do_print_cdfFnopuxX+0x670>
9d0030c0:	a2620001 	sb	v0,1(s3)
9d0030c4:	0b400b7e 	j	9d002df8 <_do_print_cdfFnopuxX+0x3dc>
9d0030c8:	27c5ffff 	addiu	a1,s8,-1
9d0030cc:	24040025 	li	a0,37
9d0030d0:	0f402ca8 	jal	9d00b2a0 <.LFE3>
9d0030d4:	8fa500a0 	lw	a1,160(sp)
9d0030d8:	26520002 	addiu	s2,s2,2
9d0030dc:	8fa40068 	lw	a0,104(sp)
9d0030e0:	24840001 	addiu	a0,a0,1
9d0030e4:	0b400a9d 	j	9d002a74 <_do_print_cdfFnopuxX+0x58>
9d0030e8:	afa40068 	sw	a0,104(sp)
9d0030ec:	2402002d 	li	v0,45
9d0030f0:	a2620000 	sb	v0,0(s3)
9d0030f4:	0b400b9d 	j	9d002e74 <_do_print_cdfFnopuxX+0x458>
9d0030f8:	2673ffff 	addiu	s3,s3,-1
9d0030fc:	82020001 	lb	v0,1(s0)
9d003100:	36f78000 	ori	s7,s7,0x8000
9d003104:	0b400afd 	j	9d002bf4 <_do_print_cdfFnopuxX+0x1d8>
9d003108:	26100001 	addiu	s0,s0,1
9d00310c:	2402ffff 	li	v0,-1
9d003110:	8fbf009c 	lw	ra,156(sp)
9d003114:	8fbe0098 	lw	s8,152(sp)
9d003118:	8fb70094 	lw	s7,148(sp)
9d00311c:	8fb60090 	lw	s6,144(sp)
9d003120:	8fb5008c 	lw	s5,140(sp)
9d003124:	8fb40088 	lw	s4,136(sp)
9d003128:	8fb30084 	lw	s3,132(sp)
9d00312c:	8fb20080 	lw	s2,128(sp)
9d003130:	8fb1007c 	lw	s1,124(sp)
9d003134:	8fb00078 	lw	s0,120(sp)
9d003138:	03e00008 	jr	ra
9d00313c:	27bd00a0 	addiu	sp,sp,160
9d003140:	50400076 	beqzl	v0,9d00331c <_do_print_cdfFnopuxX+0x900>
9d003144:	8fa300a8 	lw	v1,168(sp)
9d003148:	8fa200a8 	lw	v0,168(sp)
9d00314c:	8c550000 	lw	s5,0(v0)
9d003150:	24420004 	addiu	v0,v0,4
9d003154:	afa200a8 	sw	v0,168(sp)
9d003158:	0015a7c3 	sra	s4,s5,0x1f
9d00315c:	02801021 	move	v0,s4
9d003160:	0441ff01 	bgez	v0,9d002d68 <_do_print_cdfFnopuxX+0x34c>
9d003164:	02a01821 	move	v1,s5
9d003168:	0b400c66 	j	9d003198 <_do_print_cdfFnopuxX+0x77c>
9d00316c:	00036823 	negu	t5,v1
9d003170:	50400064 	beqzl	v0,9d003304 <_do_print_cdfFnopuxX+0x8e8>
9d003174:	8fa300a8 	lw	v1,168(sp)
9d003178:	8fa200a8 	lw	v0,168(sp)
9d00317c:	8c550000 	lw	s5,0(v0)
9d003180:	0000a021 	move	s4,zero
9d003184:	24420004 	addiu	v0,v0,4
9d003188:	afa200a8 	sw	v0,168(sp)
9d00318c:	0b400b5b 	j	9d002d6c <_do_print_cdfFnopuxX+0x350>
9d003190:	afa00074 	sw	zero,116(sp)
9d003194:	00036823 	negu	t5,v1
9d003198:	000d182b 	sltu	v1,zero,t5
9d00319c:	00021023 	negu	v0,v0
9d0031a0:	01a0a821 	move	s5,t5
9d0031a4:	0043a023 	subu	s4,v0,v1
9d0031a8:	24040001 	li	a0,1
9d0031ac:	0b400b5b 	j	9d002d6c <_do_print_cdfFnopuxX+0x350>
9d0031b0:	afa40074 	sw	a0,116(sp)
9d0031b4:	5440ff6a 	bnezl	v0,9d002f60 <_do_print_cdfFnopuxX+0x544>
9d0031b8:	2463ffff 	addiu	v1,v1,-1
9d0031bc:	0b400bd8 	j	9d002f60 <_do_print_cdfFnopuxX+0x544>
9d0031c0:	00000000 	nop
9d0031c4:	0b400b45 	j	9d002d14 <_do_print_cdfFnopuxX+0x2f8>
9d0031c8:	24100008 	li	s0,8
9d0031cc:	7c171620 	seh	v0,s7
9d0031d0:	044000a9 	bltz	v0,9d003478 <_do_print_cdfFnopuxX+0xa5c>
9d0031d4:	8fa300a8 	lw	v1,168(sp)
9d0031d8:	32e20010 	andi	v0,s7,0x10
9d0031dc:	1440009a 	bnez	v0,9d003448 <_do_print_cdfFnopuxX+0xa2c>
9d0031e0:	8fa200a8 	lw	v0,168(sp)
9d0031e4:	32e20040 	andi	v0,s7,0x40
9d0031e8:	104000ae 	beqz	v0,9d0034a4 <_do_print_cdfFnopuxX+0xa88>
9d0031ec:	32e80001 	andi	t0,s7,0x1
9d0031f0:	8fa200a8 	lw	v0,168(sp)
9d0031f4:	8c430000 	lw	v1,0(v0)
9d0031f8:	00001021 	move	v0,zero
9d0031fc:	8fa400a8 	lw	a0,168(sp)
9d003200:	24840004 	addiu	a0,a0,4
9d003204:	afa400a8 	sw	a0,168(sp)
9d003208:	8fa40068 	lw	a0,104(sp)
9d00320c:	0b400ba4 	j	9d002e90 <_do_print_cdfFnopuxX+0x474>
9d003210:	a4640000 	sh	a0,0(v1)
9d003214:	8fa300a8 	lw	v1,168(sp)
9d003218:	8c620000 	lw	v0,0(v1)
9d00321c:	36e80400 	ori	t0,s7,0x400
9d003220:	24750004 	addiu	s5,v1,4
9d003224:	afa20058 	sw	v0,88(sp)
9d003228:	8fa50058 	lw	a1,88(sp)
9d00322c:	afbe0010 	sw	s8,16(sp)
9d003230:	afa80014 	sw	t0,20(sp)
9d003234:	8fa400a0 	lw	a0,160(sp)
9d003238:	24060066 	li	a2,102
9d00323c:	0f4015f2 	jal	9d0057c8 <_fconvert>
9d003240:	02c03821 	move	a3,s6
9d003244:	0b400ba4 	j	9d002e90 <_do_print_cdfFnopuxX+0x474>
9d003248:	afb500a8 	sw	s5,168(sp)
9d00324c:	8fa400a8 	lw	a0,168(sp)
9d003250:	8c820000 	lw	v0,0(a0)
9d003254:	24950004 	addiu	s5,a0,4
9d003258:	afb70010 	sw	s7,16(sp)
9d00325c:	8fa400a0 	lw	a0,160(sp)
9d003260:	27a50018 	addiu	a1,sp,24
9d003264:	24060001 	li	a2,1
9d003268:	02c03821 	move	a3,s6
9d00326c:	a3a20018 	sb	v0,24(sp)
9d003270:	0f40297d 	jal	9d00a5f4 <_outcnvrt>
9d003274:	afb500a8 	sw	s5,168(sp)
9d003278:	0b400ba5 	j	9d002e94 <_do_print_cdfFnopuxX+0x478>
9d00327c:	8fa30068 	lw	v1,104(sp)
9d003280:	36f70010 	ori	s7,s7,0x10
9d003284:	0b400b45 	j	9d002d14 <_do_print_cdfFnopuxX+0x2f8>
9d003288:	24100008 	li	s0,8
9d00328c:	8fa200a8 	lw	v0,168(sp)
9d003290:	8c500000 	lw	s0,0(v0)
9d003294:	3c039d01 	lui	v1,0x9d01
9d003298:	2462be44 	addiu	v0,v1,-16828
9d00329c:	8fa400a8 	lw	a0,168(sp)
9d0032a0:	0050800a 	movz	s0,v0,s0
9d0032a4:	2402ffff 	li	v0,-1
9d0032a8:	13c2006f 	beq	s8,v0,9d003468 <_do_print_cdfFnopuxX+0xa4c>
9d0032ac:	24950004 	addiu	s5,a0,4
9d0032b0:	1bc00086 	blez	s8,9d0034cc <_do_print_cdfFnopuxX+0xab0>
9d0032b4:	021e5821 	addu	t3,s0,s8
9d0032b8:	82030000 	lb	v1,0(s0)
9d0032bc:	14600005 	bnez	v1,9d0032d4 <_do_print_cdfFnopuxX+0x8b8>
9d0032c0:	02001021 	move	v0,s0
9d0032c4:	0b400cb9 	j	9d0032e4 <_do_print_cdfFnopuxX+0x8c8>
9d0032c8:	00001021 	move	v0,zero
9d0032cc:	50600005 	beqzl	v1,9d0032e4 <_do_print_cdfFnopuxX+0x8c8>
9d0032d0:	00501023 	subu	v0,v0,s0
9d0032d4:	24420001 	addiu	v0,v0,1
9d0032d8:	544bfffc 	bnel	v0,t3,9d0032cc <_do_print_cdfFnopuxX+0x8b0>
9d0032dc:	80430000 	lb	v1,0(v0)
9d0032e0:	00501023 	subu	v0,v0,s0
9d0032e4:	afb70010 	sw	s7,16(sp)
9d0032e8:	8fa400a0 	lw	a0,160(sp)
9d0032ec:	02002821 	move	a1,s0
9d0032f0:	00403021 	move	a2,v0
9d0032f4:	0f40297d 	jal	9d00a5f4 <_outcnvrt>
9d0032f8:	02c03821 	move	a3,s6
9d0032fc:	0b400ba4 	j	9d002e90 <_do_print_cdfFnopuxX+0x474>
9d003300:	afb500a8 	sw	s5,168(sp)
9d003304:	8c750000 	lw	s5,0(v1)
9d003308:	0000a021 	move	s4,zero
9d00330c:	24630004 	addiu	v1,v1,4
9d003310:	afa300a8 	sw	v1,168(sp)
9d003314:	0b400b5b 	j	9d002d6c <_do_print_cdfFnopuxX+0x350>
9d003318:	afa00074 	sw	zero,116(sp)
9d00331c:	8c750000 	lw	s5,0(v1)
9d003320:	24630004 	addiu	v1,v1,4
9d003324:	afa300a8 	sw	v1,168(sp)
9d003328:	0015a7c3 	sra	s4,s5,0x1f
9d00332c:	02801021 	move	v0,s4
9d003330:	0441fe8d 	bgez	v0,9d002d68 <_do_print_cdfFnopuxX+0x34c>
9d003334:	02a01821 	move	v1,s5
9d003338:	0b400c66 	j	9d003198 <_do_print_cdfFnopuxX+0x77c>
9d00333c:	00036823 	negu	t5,v1
9d003340:	0b400bfd 	j	9d002ff4 <_do_print_cdfFnopuxX+0x5d8>
9d003344:	26100001 	addiu	s0,s0,1
9d003348:	82630001 	lb	v1,1(s3)
9d00334c:	24020030 	li	v0,48
9d003350:	1062fec0 	beq	v1,v0,9d002e54 <_do_print_cdfFnopuxX+0x438>
9d003354:	8fa3006c 	lw	v1,108(sp)
9d003358:	a2620000 	sb	v0,0(s3)
9d00335c:	0b400b94 	j	9d002e50 <_do_print_cdfFnopuxX+0x434>
9d003360:	2673ffff 	addiu	s3,s3,-1
9d003364:	24950007 	addiu	s5,a0,7
9d003368:	2402fff8 	li	v0,-8
9d00336c:	02a21024 	and	v0,s5,v0
9d003370:	24430008 	addiu	v1,v0,8
9d003374:	afa300a8 	sw	v1,168(sp)
9d003378:	8c550000 	lw	s5,0(v0)
9d00337c:	8c540004 	lw	s4,4(v0)
9d003380:	0b400b5b 	j	9d002d6c <_do_print_cdfFnopuxX+0x350>
9d003384:	afa00074 	sw	zero,116(sp)
9d003388:	8fa300a8 	lw	v1,168(sp)
9d00338c:	24750007 	addiu	s5,v1,7
9d003390:	2402fff8 	li	v0,-8
9d003394:	02a2a824 	and	s5,s5,v0
9d003398:	8ea30000 	lw	v1,0(s5)
9d00339c:	8ea20004 	lw	v0,4(s5)
9d0033a0:	26b50008 	addiu	s5,s5,8
9d0033a4:	afb500a8 	sw	s5,168(sp)
9d0033a8:	0060a821 	move	s5,v1
9d0033ac:	0441fe6e 	bgez	v0,9d002d68 <_do_print_cdfFnopuxX+0x34c>
9d0033b0:	0040a021 	move	s4,v0
9d0033b4:	0b400c66 	j	9d003198 <_do_print_cdfFnopuxX+0x77c>
9d0033b8:	00036823 	negu	t5,v1
9d0033bc:	36f70001 	ori	s7,s7,0x1
9d0033c0:	26100001 	addiu	s0,s0,1
9d0033c4:	0b400bfd 	j	9d002ff4 <_do_print_cdfFnopuxX+0x5d8>
9d0033c8:	26100001 	addiu	s0,s0,1
9d0033cc:	8fa300a8 	lw	v1,168(sp)
9d0033d0:	8c7e0000 	lw	s8,0(v1)
9d0033d4:	24750004 	addiu	s5,v1,4
9d0033d8:	26030002 	addiu	v1,s0,2
9d0033dc:	82020002 	lb	v0,2(s0)
9d0033e0:	afb500a8 	sw	s5,168(sp)
9d0033e4:	07c1fdf9 	bgez	s8,9d002bcc <_do_print_cdfFnopuxX+0x1b0>
9d0033e8:	00608021 	move	s0,v1
9d0033ec:	0b400af3 	j	9d002bcc <_do_print_cdfFnopuxX+0x1b0>
9d0033f0:	241effff 	li	s8,-1
9d0033f4:	24020058 	li	v0,88
9d0033f8:	24030078 	li	v1,120
9d0033fc:	0064100a 	movz	v0,v1,a0
9d003400:	a2620000 	sb	v0,0(s3)
9d003404:	24020030 	li	v0,48
9d003408:	a262ffff 	sb	v0,-1(s3)
9d00340c:	0b400b94 	j	9d002e50 <_do_print_cdfFnopuxX+0x434>
9d003410:	2673fffe 	addiu	s3,s3,-2
9d003414:	27a20057 	addiu	v0,sp,87
9d003418:	afa20070 	sw	v0,112(sp)
9d00341c:	0b400b7e 	j	9d002df8 <_do_print_cdfFnopuxX+0x3dc>
9d003420:	00409821 	move	s3,v0
9d003424:	36f78000 	ori	s7,s7,0x8000
9d003428:	26100001 	addiu	s0,s0,1
9d00342c:	0b400bfd 	j	9d002ff4 <_do_print_cdfFnopuxX+0x5d8>
9d003430:	26100001 	addiu	s0,s0,1
9d003434:	82620001 	lb	v0,1(s3)
9d003438:	38420030 	xori	v0,v0,0x30
9d00343c:	0002102b 	sltu	v0,zero,v0
9d003440:	0b400bd2 	j	9d002f48 <_do_print_cdfFnopuxX+0x52c>
9d003444:	00621823 	subu	v1,v1,v0
9d003448:	8c430000 	lw	v1,0(v0)
9d00344c:	00001021 	move	v0,zero
9d003450:	8fa400a8 	lw	a0,168(sp)
9d003454:	24840004 	addiu	a0,a0,4
9d003458:	afa400a8 	sw	a0,168(sp)
9d00345c:	8fa40068 	lw	a0,104(sp)
9d003460:	0b400ba4 	j	9d002e90 <_do_print_cdfFnopuxX+0x474>
9d003464:	ac640000 	sw	a0,0(v1)
9d003468:	0f402deb 	jal	9d00b7ac <strlen>
9d00346c:	02002021 	move	a0,s0
9d003470:	0b400cba 	j	9d0032e8 <_do_print_cdfFnopuxX+0x8cc>
9d003474:	afb70010 	sw	s7,16(sp)
9d003478:	8c620000 	lw	v0,0(v1)
9d00347c:	8fa40068 	lw	a0,104(sp)
9d003480:	00041fc3 	sra	v1,a0,0x1f
9d003484:	8fa400a8 	lw	a0,168(sp)
9d003488:	24840004 	addiu	a0,a0,4
9d00348c:	afa400a8 	sw	a0,168(sp)
9d003490:	8fa40068 	lw	a0,104(sp)
9d003494:	ac440000 	sw	a0,0(v0)
9d003498:	ac430004 	sw	v1,4(v0)
9d00349c:	0b400ba4 	j	9d002e90 <_do_print_cdfFnopuxX+0x474>
9d0034a0:	00001021 	move	v0,zero
9d0034a4:	8fa200a8 	lw	v0,168(sp)
9d0034a8:	8c430000 	lw	v1,0(v0)
9d0034ac:	00001021 	move	v0,zero
9d0034b0:	8fa400a8 	lw	a0,168(sp)
9d0034b4:	24840004 	addiu	a0,a0,4
9d0034b8:	afa400a8 	sw	a0,168(sp)
9d0034bc:	11000005 	beqz	t0,9d0034d4 <_do_print_cdfFnopuxX+0xab8>
9d0034c0:	8fa40068 	lw	a0,104(sp)
9d0034c4:	0b400ba4 	j	9d002e90 <_do_print_cdfFnopuxX+0x474>
9d0034c8:	a0640000 	sb	a0,0(v1)
9d0034cc:	0b400cb9 	j	9d0032e4 <_do_print_cdfFnopuxX+0x8c8>
9d0034d0:	00001021 	move	v0,zero
9d0034d4:	0b400ba4 	j	9d002e90 <_do_print_cdfFnopuxX+0x474>
9d0034d8:	ac640000 	sw	a0,0(v1)

Disassembly of section .text.malloc:

9d0034dc <malloc>:
9d0034dc:	27bdffc0 	addiu	sp,sp,-64
9d0034e0:	afbf003c 	sw	ra,60(sp)
9d0034e4:	afbe0038 	sw	s8,56(sp)
9d0034e8:	afb70034 	sw	s7,52(sp)
9d0034ec:	afb60030 	sw	s6,48(sp)
9d0034f0:	afb5002c 	sw	s5,44(sp)
9d0034f4:	afb40028 	sw	s4,40(sp)
9d0034f8:	afb30024 	sw	s3,36(sp)
9d0034fc:	afb20020 	sw	s2,32(sp)
9d003500:	afb1001c 	sw	s1,28(sp)
9d003504:	2482000b 	addiu	v0,a0,11
9d003508:	2c430017 	sltiu	v1,v0,23
9d00350c:	10600022 	beqz	v1,9d003598 <malloc+0xbc>
9d003510:	afb00018 	sw	s0,24(sp)
9d003514:	2c840011 	sltiu	a0,a0,17
9d003518:	10800090 	beqz	a0,9d00375c <malloc+0x280>
9d00351c:	24100010 	li	s0,16
9d003520:	3c11a000 	lui	s1,0xa000
9d003524:	26313ee4 	addiu	s1,s1,16100
9d003528:	02301821 	addu	v1,s1,s0
9d00352c:	8c62000c 	lw	v0,12(v1)
9d003530:	104300c5 	beq	v0,v1,9d003848 <malloc+0x36c>
9d003534:	001040c2 	srl	t0,s0,0x3
9d003538:	8c450004 	lw	a1,4(v0)
9d00353c:	8c44000c 	lw	a0,12(v0)
9d003540:	2403fffc 	li	v1,-4
9d003544:	00a31824 	and	v1,a1,v1
9d003548:	00431821 	addu	v1,v0,v1
9d00354c:	8c660004 	lw	a2,4(v1)
9d003550:	8c450008 	lw	a1,8(v0)
9d003554:	24420008 	addiu	v0,v0,8
9d003558:	34c60001 	ori	a2,a2,0x1
9d00355c:	aca4000c 	sw	a0,12(a1)
9d003560:	ac850008 	sw	a1,8(a0)
9d003564:	ac660004 	sw	a2,4(v1)
9d003568:	8fbf003c 	lw	ra,60(sp)
9d00356c:	8fbe0038 	lw	s8,56(sp)
9d003570:	8fb70034 	lw	s7,52(sp)
9d003574:	8fb60030 	lw	s6,48(sp)
9d003578:	8fb5002c 	lw	s5,44(sp)
9d00357c:	8fb40028 	lw	s4,40(sp)
9d003580:	8fb30024 	lw	s3,36(sp)
9d003584:	8fb20020 	lw	s2,32(sp)
9d003588:	8fb1001c 	lw	s1,28(sp)
9d00358c:	8fb00018 	lw	s0,24(sp)
9d003590:	03e00008 	jr	ra
9d003594:	27bd0040 	addiu	sp,sp,64
9d003598:	2410fff8 	li	s0,-8
9d00359c:	00508024 	and	s0,v0,s0
9d0035a0:	0600006e 	bltz	s0,9d00375c <malloc+0x280>
9d0035a4:	0204202b 	sltu	a0,s0,a0
9d0035a8:	1480006c 	bnez	a0,9d00375c <malloc+0x280>
9d0035ac:	2e0201f8 	sltiu	v0,s0,504
9d0035b0:	1440ffdc 	bnez	v0,9d003524 <malloc+0x48>
9d0035b4:	3c11a000 	lui	s1,0xa000
9d0035b8:	00101242 	srl	v0,s0,0x9
9d0035bc:	1040000a 	beqz	v0,9d0035e8 <malloc+0x10c>
9d0035c0:	2406007e 	li	a2,126
9d0035c4:	2c430005 	sltiu	v1,v0,5
9d0035c8:	14600043 	bnez	v1,9d0036d8 <malloc+0x1fc>
9d0035cc:	00104182 	srl	t0,s0,0x6
9d0035d0:	2c430015 	sltiu	v1,v0,21
9d0035d4:	10600107 	beqz	v1,9d0039f4 <malloc+0x518>
9d0035d8:	2c430055 	sltiu	v1,v0,85
9d0035dc:	2448005b 	addiu	t0,v0,91
9d0035e0:	0b400d7c 	j	9d0035f0 <malloc+0x114>
9d0035e4:	00083040 	sll	a2,t0,0x1
9d0035e8:	2408003f 	li	t0,63
9d0035ec:	3c11a000 	lui	s1,0xa000
9d0035f0:	00063080 	sll	a2,a2,0x2
9d0035f4:	26313ee4 	addiu	s1,s1,16100
9d0035f8:	02263021 	addu	a2,s1,a2
9d0035fc:	8cc2000c 	lw	v0,12(a2)
9d003600:	10c20015 	beq	a2,v0,9d003658 <malloc+0x17c>
9d003604:	2403fffc 	li	v1,-4
9d003608:	8c440004 	lw	a0,4(v0)
9d00360c:	00832024 	and	a0,a0,v1
9d003610:	00901823 	subu	v1,a0,s0
9d003614:	28650010 	slti	a1,v1,16
9d003618:	50a0000f 	beqzl	a1,9d003658 <malloc+0x17c>
9d00361c:	2508ffff 	addiu	t0,t0,-1
9d003620:	0460000a 	bltz	v1,9d00364c <malloc+0x170>
9d003624:	2407fffc 	li	a3,-4
9d003628:	0b400de7 	j	9d00379c <malloc+0x2c0>
9d00362c:	00442021 	addu	a0,v0,a0
9d003630:	00872024 	and	a0,a0,a3
9d003634:	00901823 	subu	v1,a0,s0
9d003638:	28650010 	slti	a1,v1,16
9d00363c:	50a00006 	beqzl	a1,9d003658 <malloc+0x17c>
9d003640:	2508ffff 	addiu	t0,t0,-1
9d003644:	04630055 	bgezl	v1,9d00379c <malloc+0x2c0>
9d003648:	00442021 	addu	a0,v0,a0
9d00364c:	8c42000c 	lw	v0,12(v0)
9d003650:	54c2fff7 	bnel	a2,v0,9d003630 <malloc+0x154>
9d003654:	8c440004 	lw	a0,4(v0)
9d003658:	25080001 	addiu	t0,t0,1
9d00365c:	8e220010 	lw	v0,16(s1)
9d003660:	3c06a000 	lui	a2,0xa000
9d003664:	24c63eec 	addiu	a2,a2,16108
9d003668:	1046007d 	beq	v0,a2,9d003860 <malloc+0x384>
9d00366c:	2403fffc 	li	v1,-4
9d003670:	8c440004 	lw	a0,4(v0)
9d003674:	00832024 	and	a0,a0,v1
9d003678:	00901823 	subu	v1,a0,s0
9d00367c:	28650010 	slti	a1,v1,16
9d003680:	50a0005a 	beqzl	a1,9d0037ec <malloc+0x310>
9d003684:	00502021 	addu	a0,v0,s0
9d003688:	ae260014 	sw	a2,20(s1)
9d00368c:	04600015 	bltz	v1,9d0036e4 <malloc+0x208>
9d003690:	ae260010 	sw	a2,16(s1)
9d003694:	00442021 	addu	a0,v0,a0
9d003698:	8c830004 	lw	v1,4(a0)
9d00369c:	24420008 	addiu	v0,v0,8
9d0036a0:	34630001 	ori	v1,v1,0x1
9d0036a4:	ac830004 	sw	v1,4(a0)
9d0036a8:	8fbf003c 	lw	ra,60(sp)
9d0036ac:	8fbe0038 	lw	s8,56(sp)
9d0036b0:	8fb70034 	lw	s7,52(sp)
9d0036b4:	8fb60030 	lw	s6,48(sp)
9d0036b8:	8fb5002c 	lw	s5,44(sp)
9d0036bc:	8fb40028 	lw	s4,40(sp)
9d0036c0:	8fb30024 	lw	s3,36(sp)
9d0036c4:	8fb20020 	lw	s2,32(sp)
9d0036c8:	8fb1001c 	lw	s1,28(sp)
9d0036cc:	8fb00018 	lw	s0,24(sp)
9d0036d0:	03e00008 	jr	ra
9d0036d4:	27bd0040 	addiu	sp,sp,64
9d0036d8:	25080038 	addiu	t0,t0,56
9d0036dc:	0b400d7b 	j	9d0035ec <malloc+0x110>
9d0036e0:	00083040 	sll	a2,t0,0x1
9d0036e4:	2c830200 	sltiu	v1,a0,512
9d0036e8:	546000cb 	bnezl	v1,9d003a18 <malloc+0x53c>
9d0036ec:	000420c2 	srl	a0,a0,0x3
9d0036f0:	00041a42 	srl	v1,a0,0x9
9d0036f4:	2c650005 	sltiu	a1,v1,5
9d0036f8:	10a00153 	beqz	a1,9d003c48 <malloc+0x76c>
9d0036fc:	2c650015 	sltiu	a1,v1,21
9d003700:	00042982 	srl	a1,a0,0x6
9d003704:	24a50038 	addiu	a1,a1,56
9d003708:	000538c0 	sll	a3,a1,0x3
9d00370c:	02273821 	addu	a3,s1,a3
9d003710:	8ce30008 	lw	v1,8(a3)
9d003714:	50670159 	beql	v1,a3,9d003c7c <malloc+0x7a0>
9d003718:	8e240004 	lw	a0,4(s1)
9d00371c:	2409fffc 	li	t1,-4
9d003720:	8c650004 	lw	a1,4(v1)
9d003724:	00a92824 	and	a1,a1,t1
9d003728:	0085282b 	sltu	a1,a0,a1
9d00372c:	50a00005 	beqzl	a1,9d003744 <malloc+0x268>
9d003730:	8c65000c 	lw	a1,12(v1)
9d003734:	8c630008 	lw	v1,8(v1)
9d003738:	54e3fffa 	bnel	a3,v1,9d003724 <malloc+0x248>
9d00373c:	8c650004 	lw	a1,4(v1)
9d003740:	8c65000c 	lw	a1,12(v1)
9d003744:	8e240004 	lw	a0,4(s1)
9d003748:	ac45000c 	sw	a1,12(v0)
9d00374c:	ac430008 	sw	v1,8(v0)
9d003750:	aca20008 	sw	v0,8(a1)
9d003754:	0b400e19 	j	9d003864 <malloc+0x388>
9d003758:	ac62000c 	sw	v0,12(v1)
9d00375c:	2403000c 	li	v1,12
9d003760:	3c02a000 	lui	v0,0xa000
9d003764:	ac430058 	sw	v1,88(v0)
9d003768:	00001021 	move	v0,zero
9d00376c:	8fbf003c 	lw	ra,60(sp)
9d003770:	8fbe0038 	lw	s8,56(sp)
9d003774:	8fb70034 	lw	s7,52(sp)
9d003778:	8fb60030 	lw	s6,48(sp)
9d00377c:	8fb5002c 	lw	s5,44(sp)
9d003780:	8fb40028 	lw	s4,40(sp)
9d003784:	8fb30024 	lw	s3,36(sp)
9d003788:	8fb20020 	lw	s2,32(sp)
9d00378c:	8fb1001c 	lw	s1,28(sp)
9d003790:	8fb00018 	lw	s0,24(sp)
9d003794:	03e00008 	jr	ra
9d003798:	27bd0040 	addiu	sp,sp,64
9d00379c:	8c860004 	lw	a2,4(a0)
9d0037a0:	8c43000c 	lw	v1,12(v0)
9d0037a4:	8c450008 	lw	a1,8(v0)
9d0037a8:	34c60001 	ori	a2,a2,0x1
9d0037ac:	24420008 	addiu	v0,v0,8
9d0037b0:	aca3000c 	sw	v1,12(a1)
9d0037b4:	ac650008 	sw	a1,8(v1)
9d0037b8:	ac860004 	sw	a2,4(a0)
9d0037bc:	8fbf003c 	lw	ra,60(sp)
9d0037c0:	8fbe0038 	lw	s8,56(sp)
9d0037c4:	8fb70034 	lw	s7,52(sp)
9d0037c8:	8fb60030 	lw	s6,48(sp)
9d0037cc:	8fb5002c 	lw	s5,44(sp)
9d0037d0:	8fb40028 	lw	s4,40(sp)
9d0037d4:	8fb30024 	lw	s3,36(sp)
9d0037d8:	8fb20020 	lw	s2,32(sp)
9d0037dc:	8fb1001c 	lw	s1,28(sp)
9d0037e0:	8fb00018 	lw	s0,24(sp)
9d0037e4:	03e00008 	jr	ra
9d0037e8:	27bd0040 	addiu	sp,sp,64
9d0037ec:	36100001 	ori	s0,s0,0x1
9d0037f0:	34670001 	ori	a3,v1,0x1
9d0037f4:	00832821 	addu	a1,a0,v1
9d0037f8:	ac500004 	sw	s0,4(v0)
9d0037fc:	24420008 	addiu	v0,v0,8
9d003800:	ae240014 	sw	a0,20(s1)
9d003804:	ae240010 	sw	a0,16(s1)
9d003808:	ac86000c 	sw	a2,12(a0)
9d00380c:	ac860008 	sw	a2,8(a0)
9d003810:	ac870004 	sw	a3,4(a0)
9d003814:	aca30000 	sw	v1,0(a1)
9d003818:	8fbf003c 	lw	ra,60(sp)
9d00381c:	8fbe0038 	lw	s8,56(sp)
9d003820:	8fb70034 	lw	s7,52(sp)
9d003824:	8fb60030 	lw	s6,48(sp)
9d003828:	8fb5002c 	lw	s5,44(sp)
9d00382c:	8fb40028 	lw	s4,40(sp)
9d003830:	8fb30024 	lw	s3,36(sp)
9d003834:	8fb20020 	lw	s2,32(sp)
9d003838:	8fb1001c 	lw	s1,28(sp)
9d00383c:	8fb00018 	lw	s0,24(sp)
9d003840:	03e00008 	jr	ra
9d003844:	27bd0040 	addiu	sp,sp,64
9d003848:	24430008 	addiu	v1,v0,8
9d00384c:	8c420014 	lw	v0,20(v0)
9d003850:	1062ff82 	beq	v1,v0,9d00365c <malloc+0x180>
9d003854:	25080002 	addiu	t0,t0,2
9d003858:	0b400d4f 	j	9d00353c <malloc+0x60>
9d00385c:	8c450004 	lw	a1,4(v0)
9d003860:	8e240004 	lw	a0,4(s1)
9d003864:	00081083 	sra	v0,t0,0x2
9d003868:	24070001 	li	a3,1
9d00386c:	00473804 	sllv	a3,a3,v0
9d003870:	0087102b 	sltu	v0,a0,a3
9d003874:	5440002b 	bnezl	v0,9d003924 <malloc+0x448>
9d003878:	8e320008 	lw	s2,8(s1)
9d00387c:	00871024 	and	v0,a0,a3
9d003880:	50400073 	beqzl	v0,9d003a50 <malloc+0x574>
9d003884:	00073840 	sll	a3,a3,0x1
9d003888:	240afffc 	li	t2,-4
9d00388c:	000858c0 	sll	t3,t0,0x3
9d003890:	022b5821 	addu	t3,s1,t3
9d003894:	01604821 	move	t1,t3
9d003898:	01006021 	move	t4,t0
9d00389c:	8d22000c 	lw	v0,12(t1)
9d0038a0:	55220009 	bnel	t1,v0,9d0038c8 <malloc+0x3ec>
9d0038a4:	8c440004 	lw	a0,4(v0)
9d0038a8:	0b400ea2 	j	9d003a88 <malloc+0x5ac>
9d0038ac:	258c0001 	addiu	t4,t4,1
9d0038b0:	04630093 	bgezl	v1,9d003b00 <malloc+0x624>
9d0038b4:	00442021 	addu	a0,v0,a0
9d0038b8:	8c42000c 	lw	v0,12(v0)
9d0038bc:	51220072 	beql	t1,v0,9d003a88 <malloc+0x5ac>
9d0038c0:	258c0001 	addiu	t4,t4,1
9d0038c4:	8c440004 	lw	a0,4(v0)
9d0038c8:	008a2024 	and	a0,a0,t2
9d0038cc:	00901823 	subu	v1,a0,s0
9d0038d0:	28650010 	slti	a1,v1,16
9d0038d4:	14a0fff6 	bnez	a1,9d0038b0 <malloc+0x3d4>
9d0038d8:	00000000 	nop
9d0038dc:	8c45000c 	lw	a1,12(v0)
9d0038e0:	8c470008 	lw	a3,8(v0)
9d0038e4:	00502021 	addu	a0,v0,s0
9d0038e8:	36100001 	ori	s0,s0,0x1
9d0038ec:	34690001 	ori	t1,v1,0x1
9d0038f0:	00834021 	addu	t0,a0,v1
9d0038f4:	ac500004 	sw	s0,4(v0)
9d0038f8:	24420008 	addiu	v0,v0,8
9d0038fc:	ace5000c 	sw	a1,12(a3)
9d003900:	aca70008 	sw	a3,8(a1)
9d003904:	ae240014 	sw	a0,20(s1)
9d003908:	ae240010 	sw	a0,16(s1)
9d00390c:	ac86000c 	sw	a2,12(a0)
9d003910:	ac860008 	sw	a2,8(a0)
9d003914:	ac890004 	sw	t1,4(a0)
9d003918:	0b400d5a 	j	9d003568 <malloc+0x8c>
9d00391c:	ad030000 	sw	v1,0(t0)
9d003920:	8e320008 	lw	s2,8(s1)
9d003924:	8e540004 	lw	s4,4(s2)
9d003928:	2402fffc 	li	v0,-4
9d00392c:	0282a024 	and	s4,s4,v0
9d003930:	0290102b 	sltu	v0,s4,s0
9d003934:	14400004 	bnez	v0,9d003948 <malloc+0x46c>
9d003938:	02901023 	subu	v0,s4,s0
9d00393c:	28430010 	slti	v1,v0,16
9d003940:	10600025 	beqz	v1,9d0039d8 <malloc+0x4fc>
9d003944:	02501821 	addu	v1,s2,s0
9d003948:	3c02a000 	lui	v0,0xa000
9d00394c:	8c554798 	lw	s5,18328(v0)
9d003950:	3c1ea000 	lui	s8,0xa000
9d003954:	0254b821 	addu	s7,s2,s4
9d003958:	26b50010 	addiu	s5,s5,16
9d00395c:	0f403184 	jal	9d00c610 <getpagesize>
9d003960:	02b0a821 	addu	s5,s5,s0
9d003964:	0040b021 	move	s6,v0
9d003968:	8fc33edc 	lw	v1,16092(s8)
9d00396c:	2402ffff 	li	v0,-1
9d003970:	10620004 	beq	v1,v0,9d003984 <malloc+0x4a8>
9d003974:	26a2ffff 	addiu	v0,s5,-1
9d003978:	00561021 	addu	v0,v0,s6
9d00397c:	0016a823 	negu	s5,s6
9d003980:	02a2a824 	and	s5,s5,v0
9d003984:	0f402fa6 	jal	9d00be98 <sbrk>
9d003988:	02a02021 	move	a0,s5
9d00398c:	00409821 	move	s3,v0
9d003990:	2402ffff 	li	v0,-1
9d003994:	52620007 	beql	s3,v0,9d0039b4 <malloc+0x4d8>
9d003998:	8e320008 	lw	s2,8(s1)
9d00399c:	0277102b 	sltu	v0,s3,s7
9d0039a0:	10400060 	beqz	v0,9d003b24 <malloc+0x648>
9d0039a4:	3c03a000 	lui	v1,0xa000
9d0039a8:	5251005f 	beql	s2,s1,9d003b28 <malloc+0x64c>
9d0039ac:	8c624768 	lw	v0,18280(v1)
9d0039b0:	8e320008 	lw	s2,8(s1)
9d0039b4:	8e430004 	lw	v1,4(s2)
9d0039b8:	2402fffc 	li	v0,-4
9d0039bc:	00621024 	and	v0,v1,v0
9d0039c0:	0050182b 	sltu	v1,v0,s0
9d0039c4:	146000a4 	bnez	v1,9d003c58 <malloc+0x77c>
9d0039c8:	00501023 	subu	v0,v0,s0
9d0039cc:	28430010 	slti	v1,v0,16
9d0039d0:	146000a1 	bnez	v1,9d003c58 <malloc+0x77c>
9d0039d4:	02501821 	addu	v1,s2,s0
9d0039d8:	36100001 	ori	s0,s0,0x1
9d0039dc:	34440001 	ori	a0,v0,0x1
9d0039e0:	ae500004 	sw	s0,4(s2)
9d0039e4:	26420008 	addiu	v0,s2,8
9d0039e8:	ae230008 	sw	v1,8(s1)
9d0039ec:	0b400d5a 	j	9d003568 <malloc+0x8c>
9d0039f0:	ac640004 	sw	a0,4(v1)
9d0039f4:	14600021 	bnez	v1,9d003a7c <malloc+0x5a0>
9d0039f8:	00104302 	srl	t0,s0,0xc
9d0039fc:	2c430155 	sltiu	v1,v0,341
9d003a00:	1060008b 	beqz	v1,9d003c30 <malloc+0x754>
9d003a04:	2c420555 	sltiu	v0,v0,1365
9d003a08:	001043c2 	srl	t0,s0,0xf
9d003a0c:	25080077 	addiu	t0,t0,119
9d003a10:	0b400d7b 	j	9d0035ec <malloc+0x110>
9d003a14:	00083040 	sll	a2,t0,0x1
9d003a18:	000418c0 	sll	v1,a0,0x3
9d003a1c:	02231821 	addu	v1,s1,v1
9d003a20:	8e270004 	lw	a3,4(s1)
9d003a24:	8c650008 	lw	a1,8(v1)
9d003a28:	00042083 	sra	a0,a0,0x2
9d003a2c:	24090001 	li	t1,1
9d003a30:	00892004 	sllv	a0,t1,a0
9d003a34:	00872025 	or	a0,a0,a3
9d003a38:	ac43000c 	sw	v1,12(v0)
9d003a3c:	ac450008 	sw	a1,8(v0)
9d003a40:	ae240004 	sw	a0,4(s1)
9d003a44:	ac620008 	sw	v0,8(v1)
9d003a48:	0b400e19 	j	9d003864 <malloc+0x388>
9d003a4c:	aca2000c 	sw	v0,12(a1)
9d003a50:	2402fffc 	li	v0,-4
9d003a54:	01024024 	and	t0,t0,v0
9d003a58:	00871024 	and	v0,a0,a3
9d003a5c:	1440ff8a 	bnez	v0,9d003888 <malloc+0x3ac>
9d003a60:	25080004 	addiu	t0,t0,4
9d003a64:	00073840 	sll	a3,a3,0x1
9d003a68:	00871024 	and	v0,a0,a3
9d003a6c:	1040fffd 	beqz	v0,9d003a64 <malloc+0x588>
9d003a70:	25080004 	addiu	t0,t0,4
9d003a74:	0b400e23 	j	9d00388c <malloc+0x3b0>
9d003a78:	240afffc 	li	t2,-4
9d003a7c:	2508006e 	addiu	t0,t0,110
9d003a80:	0b400d7b 	j	9d0035ec <malloc+0x110>
9d003a84:	00083040 	sll	a2,t0,0x1
9d003a88:	31820003 	andi	v0,t4,0x3
9d003a8c:	1440ff83 	bnez	v0,9d00389c <malloc+0x3c0>
9d003a90:	25290008 	addiu	t1,t1,8
9d003a94:	0b400eaa 	j	9d003aa8 <malloc+0x5cc>
9d003a98:	2562fff8 	addiu	v0,t3,-8
9d003a9c:	15620009 	bne	t3,v0,9d003ac4 <malloc+0x5e8>
9d003aa0:	2508ffff 	addiu	t0,t0,-1
9d003aa4:	2562fff8 	addiu	v0,t3,-8
9d003aa8:	31030003 	andi	v1,t0,0x3
9d003aac:	5460fffb 	bnezl	v1,9d003a9c <malloc+0x5c0>
9d003ab0:	8d6b0000 	lw	t3,0(t3)
9d003ab4:	8e220004 	lw	v0,4(s1)
9d003ab8:	00071827 	nor	v1,zero,a3
9d003abc:	00621024 	and	v0,v1,v0
9d003ac0:	ae220004 	sw	v0,4(s1)
9d003ac4:	8e220004 	lw	v0,4(s1)
9d003ac8:	00073840 	sll	a3,a3,0x1
9d003acc:	0047182b 	sltu	v1,v0,a3
9d003ad0:	5460ff94 	bnezl	v1,9d003924 <malloc+0x448>
9d003ad4:	8e320008 	lw	s2,8(s1)
9d003ad8:	10e0ff91 	beqz	a3,9d003920 <malloc+0x444>
9d003adc:	00e21824 	and	v1,a3,v0
9d003ae0:	1460ff6a 	bnez	v1,9d00388c <malloc+0x3b0>
9d003ae4:	01804021 	move	t0,t4
9d003ae8:	00073840 	sll	a3,a3,0x1
9d003aec:	00e21824 	and	v1,a3,v0
9d003af0:	1060fffd 	beqz	v1,9d003ae8 <malloc+0x60c>
9d003af4:	25080004 	addiu	t0,t0,4
9d003af8:	0b400e24 	j	9d003890 <malloc+0x3b4>
9d003afc:	000858c0 	sll	t3,t0,0x3
9d003b00:	8c860004 	lw	a2,4(a0)
9d003b04:	8c43000c 	lw	v1,12(v0)
9d003b08:	8c450008 	lw	a1,8(v0)
9d003b0c:	34c60001 	ori	a2,a2,0x1
9d003b10:	ac860004 	sw	a2,4(a0)
9d003b14:	24420008 	addiu	v0,v0,8
9d003b18:	aca3000c 	sw	v1,12(a1)
9d003b1c:	0b400d5a 	j	9d003568 <malloc+0x8c>
9d003b20:	ac650008 	sw	a1,8(v1)
9d003b24:	8c624768 	lw	v0,18280(v1)
9d003b28:	26c5ffff 	addiu	a1,s6,-1
9d003b2c:	02a21021 	addu	v0,s5,v0
9d003b30:	12f3005e 	beq	s7,s3,9d003cac <malloc+0x7d0>
9d003b34:	ac624768 	sw	v0,18280(v1)
9d003b38:	8fc63edc 	lw	a2,16092(s8)
9d003b3c:	2404ffff 	li	a0,-1
9d003b40:	50c4006a 	beql	a2,a0,9d003cec <malloc+0x810>
9d003b44:	3c02a000 	lui	v0,0xa000
9d003b48:	0277b823 	subu	s7,s3,s7
9d003b4c:	00571021 	addu	v0,v0,s7
9d003b50:	ac624768 	sw	v0,18280(v1)
9d003b54:	32640007 	andi	a0,s3,0x7
9d003b58:	10800004 	beqz	a0,9d003b6c <malloc+0x690>
9d003b5c:	00001021 	move	v0,zero
9d003b60:	24020008 	li	v0,8
9d003b64:	00441023 	subu	v0,v0,a0
9d003b68:	02629821 	addu	s3,s3,v0
9d003b6c:	0275a821 	addu	s5,s3,s5
9d003b70:	00561021 	addu	v0,v0,s6
9d003b74:	02a52824 	and	a1,s5,a1
9d003b78:	0045a823 	subu	s5,v0,a1
9d003b7c:	02a02021 	move	a0,s5
9d003b80:	0f402fa6 	jal	9d00be98 <sbrk>
9d003b84:	afa30010 	sw	v1,16(sp)
9d003b88:	2404ffff 	li	a0,-1
9d003b8c:	10440054 	beq	v0,a0,9d003ce0 <malloc+0x804>
9d003b90:	8fa30010 	lw	v1,16(sp)
9d003b94:	00531023 	subu	v0,v0,s3
9d003b98:	02a22021 	addu	a0,s5,v0
9d003b9c:	34840001 	ori	a0,a0,0x1
9d003ba0:	8c624768 	lw	v0,18280(v1)
9d003ba4:	ae330008 	sw	s3,8(s1)
9d003ba8:	02a21021 	addu	v0,s5,v0
9d003bac:	ac624768 	sw	v0,18280(v1)
9d003bb0:	12510010 	beq	s2,s1,9d003bf4 <malloc+0x718>
9d003bb4:	ae640004 	sw	a0,4(s3)
9d003bb8:	2e830010 	sltiu	v1,s4,16
9d003bbc:	1460002a 	bnez	v1,9d003c68 <malloc+0x78c>
9d003bc0:	2403fff8 	li	v1,-8
9d003bc4:	2694fff4 	addiu	s4,s4,-12
9d003bc8:	02831824 	and	v1,s4,v1
9d003bcc:	02432021 	addu	a0,s2,v1
9d003bd0:	24050005 	li	a1,5
9d003bd4:	ac850004 	sw	a1,4(a0)
9d003bd8:	ac850008 	sw	a1,8(a0)
9d003bdc:	8e450004 	lw	a1,4(s2)
9d003be0:	2c640010 	sltiu	a0,v1,16
9d003be4:	30a50001 	andi	a1,a1,0x1
9d003be8:	00651825 	or	v1,v1,a1
9d003bec:	10800037 	beqz	a0,9d003ccc <malloc+0x7f0>
9d003bf0:	ae430004 	sw	v1,4(s2)
9d003bf4:	3c03a000 	lui	v1,0xa000
9d003bf8:	8c644794 	lw	a0,18324(v1)
9d003bfc:	0082202b 	sltu	a0,a0,v0
9d003c00:	54800001 	bnezl	a0,9d003c08 <malloc+0x72c>
9d003c04:	ac624794 	sw	v0,18324(v1)
9d003c08:	3c03a000 	lui	v1,0xa000
9d003c0c:	8c644790 	lw	a0,18320(v1)
9d003c10:	0082202b 	sltu	a0,a0,v0
9d003c14:	10800002 	beqz	a0,9d003c20 <malloc+0x744>
9d003c18:	8e320008 	lw	s2,8(s1)
9d003c1c:	ac624790 	sw	v0,18320(v1)
9d003c20:	8e430004 	lw	v1,4(s2)
9d003c24:	2402fffc 	li	v0,-4
9d003c28:	0b400e70 	j	9d0039c0 <malloc+0x4e4>
9d003c2c:	00621024 	and	v0,v1,v0
9d003c30:	5040000b 	beqzl	v0,9d003c60 <malloc+0x784>
9d003c34:	240600fc 	li	a2,252
9d003c38:	00104482 	srl	t0,s0,0x12
9d003c3c:	2508007c 	addiu	t0,t0,124
9d003c40:	0b400d7b 	j	9d0035ec <malloc+0x110>
9d003c44:	00083040 	sll	a2,t0,0x1
9d003c48:	50a00013 	beqzl	a1,9d003c98 <malloc+0x7bc>
9d003c4c:	2c650055 	sltiu	a1,v1,85
9d003c50:	0b400dc2 	j	9d003708 <malloc+0x22c>
9d003c54:	2465005b 	addiu	a1,v1,91
9d003c58:	0b400d5a 	j	9d003568 <malloc+0x8c>
9d003c5c:	00001021 	move	v0,zero
9d003c60:	0b400d7b 	j	9d0035ec <malloc+0x110>
9d003c64:	2408007e 	li	t0,126
9d003c68:	24020001 	li	v0,1
9d003c6c:	ae620004 	sw	v0,4(s3)
9d003c70:	02609021 	move	s2,s3
9d003c74:	0b400e70 	j	9d0039c0 <malloc+0x4e4>
9d003c78:	00001021 	move	v0,zero
9d003c7c:	00052883 	sra	a1,a1,0x2
9d003c80:	24070001 	li	a3,1
9d003c84:	00a72804 	sllv	a1,a3,a1
9d003c88:	00a42025 	or	a0,a1,a0
9d003c8c:	ae240004 	sw	a0,4(s1)
9d003c90:	0b400dd2 	j	9d003748 <malloc+0x26c>
9d003c94:	00602821 	move	a1,v1
9d003c98:	50a00016 	beqzl	a1,9d003cf4 <malloc+0x818>
9d003c9c:	2c650155 	sltiu	a1,v1,341
9d003ca0:	00042b02 	srl	a1,a0,0xc
9d003ca4:	0b400dc2 	j	9d003708 <malloc+0x22c>
9d003ca8:	24a5006e 	addiu	a1,a1,110
9d003cac:	02e52024 	and	a0,s7,a1
9d003cb0:	5480ffa2 	bnezl	a0,9d003b3c <malloc+0x660>
9d003cb4:	8fc63edc 	lw	a2,16092(s8)
9d003cb8:	8e230008 	lw	v1,8(s1)
9d003cbc:	02b42021 	addu	a0,s5,s4
9d003cc0:	34840001 	ori	a0,a0,0x1
9d003cc4:	0b400efd 	j	9d003bf4 <malloc+0x718>
9d003cc8:	ac640004 	sw	a0,4(v1)
9d003ccc:	0f402418 	jal	9d009060 <free>
9d003cd0:	26440008 	addiu	a0,s2,8
9d003cd4:	3c02a000 	lui	v0,0xa000
9d003cd8:	0b400efd 	j	9d003bf4 <malloc+0x718>
9d003cdc:	8c424768 	lw	v0,18280(v0)
9d003ce0:	24040001 	li	a0,1
9d003ce4:	0b400ee8 	j	9d003ba0 <malloc+0x6c4>
9d003ce8:	0000a821 	move	s5,zero
9d003cec:	0b400ed5 	j	9d003b54 <malloc+0x678>
9d003cf0:	ac533edc 	sw	s3,16092(v0)
9d003cf4:	10a00004 	beqz	a1,9d003d08 <malloc+0x82c>
9d003cf8:	2c630555 	sltiu	v1,v1,1365
9d003cfc:	00042bc2 	srl	a1,a0,0xf
9d003d00:	0b400dc2 	j	9d003708 <malloc+0x22c>
9d003d04:	24a50077 	addiu	a1,a1,119
9d003d08:	1060fe7f 	beqz	v1,9d003708 <malloc+0x22c>
9d003d0c:	2405007e 	li	a1,126
9d003d10:	00042c82 	srl	a1,a0,0x12
9d003d14:	0b400dc2 	j	9d003708 <malloc+0x22c>
9d003d18:	24a5007c 	addiu	a1,a1,124

Disassembly of section .text:

9d003d1c <main>:
#include <stdio.h>
// include other header files here

#define BUF_SIZE 200

int main() {
9d003d1c:	27bdfee8 	addiu	sp,sp,-280
9d003d20:	afbf0114 	sw	ra,276(sp)
9d003d24:	afbe0110 	sw	s8,272(sp)
9d003d28:	afb7010c 	sw	s7,268(sp)
9d003d2c:	afb60108 	sw	s6,264(sp)
9d003d30:	afb50104 	sw	s5,260(sp)
9d003d34:	afb40100 	sw	s4,256(sp)
9d003d38:	afb300fc 	sw	s3,252(sp)
9d003d3c:	afb200f8 	sw	s2,248(sp)
9d003d40:	afb100f4 	sw	s1,244(sp)
  char buffer[BUF_SIZE];
  NU32_Startup();
9d003d44:	0f402722 	jal	9d009c88 <NU32_Startup>
9d003d48:	afb000f0 	sw	s0,240(sp)
  set_mode(IDLE);
9d003d4c:	0f403120 	jal	9d00c480 <set_mode>
9d003d50:	00002021 	move	a0,zero
  NU32_LED1 = 1;  // turn off the LEDs
9d003d54:	3c02bf88 	lui	v0,0xbf88
9d003d58:	90436160 	lbu	v1,24928(v0)
9d003d5c:	24040001 	li	a0,1
9d003d60:	7c830004 	ins	v1,a0,0x0,0x1
9d003d64:	a0436160 	sb	v1,24928(v0)
  NU32_LED2 = 1;
9d003d68:	90436160 	lbu	v1,24928(v0)
9d003d6c:	7c830844 	ins	v1,a0,0x1,0x1
9d003d70:	a0436160 	sb	v1,24928(v0)
  __builtin_disable_interrupts();
9d003d74:	41626000 	di	v0
9d003d78:	000000c0 	ehb
  // in future, intitialize modules or peripherals here
  encoder_init();
9d003d7c:	0f4028ec 	jal	9d00a3b0 <encoder_init>
9d003d80:	00000000 	nop
  ADC_init();
9d003d84:	0f402929 	jal	9d00a4a4 <ADC_init>
9d003d88:	00000000 	nop
  currentcontrol_init();
9d003d8c:	0f401146 	jal	9d004518 <currentcontrol_init>
9d003d90:	00000000 	nop
  positioncontrol_init();
9d003d94:	0f401746 	jal	9d005d18 <positioncontrol_init>
9d003d98:	00000000 	nop
  encoder_reset();
9d003d9c:	0f40290d 	jal	9d00a434 <encoder_reset>
9d003da0:	00000000 	nop
  __builtin_enable_interrupts();
9d003da4:	41626020 	ei	v0

  while(1) {
    NU32_ReadUART3(buffer, BUF_SIZE);
    NU32_LED2 = 1;  // clear the error LED
9d003da8:	3c14bf88 	lui	s4,0xbf88
    switch(buffer[0]) {
9d003dac:	3c159d00 	lui	s5,0x9d00
9d003db0:	26b53e10 	addiu	s5,s5,15888
      }
      case 'x': {
        // add two integers and return to client
        int x = 0, y = 0;
        NU32_ReadUART3(buffer, BUF_SIZE);
        sscanf(buffer, "%d %d", &x, &y);  // read numbers into x and y
9d003db4:	3c1e9d01 	lui	s8,0x9d01
        sprintf(buffer, "%d\r\n", n);
        NU32_WriteUART3(buffer);
        __builtin_disable_interrupts();
        int i;
        for (i = 1; i < n + 1; i++) {
          sprintf(buffer, "%f %f\r\n", get_desired_trajectory(i), get_actual_trajectory(i));
9d003db8:	3c169d01 	lui	s6,0x9d01
9d003dbc:	26d6bf94 	addiu	s6,s6,-16492
          sprintf(buffer, "%d\r\n", n);   // send a 1 if trajectory fits in buffer
          NU32_WriteUART3(buffer);
          int i;
          for (i = 1; i < n + 1; i++){
            NU32_ReadUART3(buffer, BUF_SIZE);
            sscanf(buffer, "%f", &m);
9d003dc0:	3c179d01 	lui	s7,0x9d01
9d003dc4:	26f7bfbc 	addiu	s7,s7,-16452
  positioncontrol_init();
  encoder_reset();
  __builtin_enable_interrupts();

  while(1) {
    NU32_ReadUART3(buffer, BUF_SIZE);
9d003dc8:	27a40018 	addiu	a0,sp,24
9d003dcc:	0f402767 	jal	9d009d9c <NU32_ReadUART3>
9d003dd0:	240500c8 	li	a1,200
    NU32_LED2 = 1;  // clear the error LED
9d003dd4:	92826160 	lbu	v0,24928(s4)
9d003dd8:	24030001 	li	v1,1
9d003ddc:	7c620844 	ins	v0,v1,0x1,0x1
9d003de0:	a2826160 	sb	v0,24928(s4)
    switch(buffer[0]) {
9d003de4:	93a20018 	lbu	v0,24(sp)
9d003de8:	2442ff9f 	addiu	v0,v0,-97
9d003dec:	304300ff 	andi	v1,v0,0xff
9d003df0:	2c630018 	sltiu	v1,v1,24
9d003df4:	106001c3 	beqz	v1,9d004504 <main+0x7e8>
9d003df8:	304200ff 	andi	v0,v0,0xff
9d003dfc:	00021080 	sll	v0,v0,0x2
9d003e00:	02a21021 	addu	v0,s5,v0
9d003e04:	8c420000 	lw	v0,0(v0)
9d003e08:	00400008 	jr	v0
9d003e0c:	00000000 	nop
9d003e10:	9d003e70 	0x9d003e70
9d003e14:	9d003e9c 	0x9d003e9c
9d003e18:	9d003ec8 	0x9d003ec8
9d003e1c:	9d003ef4 	0x9d003ef4
9d003e20:	9d003f20 	0x9d003f20
9d003e24:	9d003f30 	0x9d003f30
9d003e28:	9d003f74 	0x9d003f74
9d003e2c:	9d003fb8 	0x9d003fb8
9d003e30:	9d003ff4 	0x9d003ff4
9d003e34:	9d004048 	0x9d004048
9d003e38:	9d004098 	0x9d004098
9d003e3c:	9d00411c 	0x9d00411c
9d003e40:	9d004180 	0x9d004180
9d003e44:	9d00428c 	0x9d00428c
9d003e48:	9d004398 	0x9d004398
9d003e4c:	9d004454 	0x9d004454
9d003e50:	9d004474 	0x9d004474
9d003e54:	9d004484 	0x9d004484
9d003e58:	9d004504 	0x9d004504
9d003e5c:	9d004504 	0x9d004504
9d003e60:	9d004504 	0x9d004504
9d003e64:	9d004504 	0x9d004504
9d003e68:	9d004504 	0x9d004504
9d003e6c:	9d0044b0 	0x9d0044b0
      case 'a': {
        // Read current sensor (ADC counts)
        sprintf(buffer, "%d\r\n", get_ADC_counts());
9d003e70:	0f402954 	jal	9d00a550 <get_ADC_counts>
9d003e74:	00000000 	nop
9d003e78:	27a40018 	addiu	a0,sp,24
9d003e7c:	3c059d01 	lui	a1,0x9d01
9d003e80:	24a5bf80 	addiu	a1,a1,-16512
9d003e84:	0f402ec9 	jal	9d00bb24 <_sprintf_cdfFnopuxX>
9d003e88:	00403021 	move	a2,v0
        NU32_WriteUART3(buffer);
9d003e8c:	0f402784 	jal	9d009e10 <NU32_WriteUART3>
9d003e90:	27a40018 	addiu	a0,sp,24
        break;
9d003e94:	0b400f73 	j	9d003dcc <main+0xb0>
9d003e98:	27a40018 	addiu	a0,sp,24
      }
      case 'b': {
        // Read current sensor (milliamps)
        sprintf(buffer, "%d\r\n", get_ADC_milliamps());
9d003e9c:	0f40296a 	jal	9d00a5a8 <get_ADC_milliamps>
9d003ea0:	00000000 	nop
9d003ea4:	27a40018 	addiu	a0,sp,24
9d003ea8:	3c059d01 	lui	a1,0x9d01
9d003eac:	24a5bf80 	addiu	a1,a1,-16512
9d003eb0:	0f402ec9 	jal	9d00bb24 <_sprintf_cdfFnopuxX>
9d003eb4:	00403021 	move	a2,v0
        NU32_WriteUART3(buffer);
9d003eb8:	0f402784 	jal	9d009e10 <NU32_WriteUART3>
9d003ebc:	27a40018 	addiu	a0,sp,24
        break;
9d003ec0:	0b400f73 	j	9d003dcc <main+0xb0>
9d003ec4:	27a40018 	addiu	a0,sp,24
      }
      case 'c': {
        // Read encoder (counts)
        sprintf(buffer, "%d\r\n", encoder_ticks());
9d003ec8:	0f4028e3 	jal	9d00a38c <encoder_ticks>
9d003ecc:	00000000 	nop
9d003ed0:	27a40018 	addiu	a0,sp,24
9d003ed4:	3c059d01 	lui	a1,0x9d01
9d003ed8:	24a5bf80 	addiu	a1,a1,-16512
9d003edc:	0f402ec9 	jal	9d00bb24 <_sprintf_cdfFnopuxX>
9d003ee0:	00403021 	move	a2,v0
        NU32_WriteUART3(buffer);                  // send encoder count to client
9d003ee4:	0f402784 	jal	9d009e10 <NU32_WriteUART3>
9d003ee8:	27a40018 	addiu	a0,sp,24
        break;
9d003eec:	0b400f73 	j	9d003dcc <main+0xb0>
9d003ef0:	27a40018 	addiu	a0,sp,24
      }
      case 'd': {
        // Read encoder (degrees)
        sprintf(buffer, "%d\r\n", encoder_angle());
9d003ef4:	0f402914 	jal	9d00a450 <encoder_angle>
9d003ef8:	00000000 	nop
9d003efc:	27a40018 	addiu	a0,sp,24
9d003f00:	3c059d01 	lui	a1,0x9d01
9d003f04:	24a5bf80 	addiu	a1,a1,-16512
9d003f08:	0f402ec9 	jal	9d00bb24 <_sprintf_cdfFnopuxX>
9d003f0c:	00403021 	move	a2,v0
        NU32_WriteUART3(buffer);
9d003f10:	0f402784 	jal	9d009e10 <NU32_WriteUART3>
9d003f14:	27a40018 	addiu	a0,sp,24
        break;
9d003f18:	0b400f73 	j	9d003dcc <main+0xb0>
9d003f1c:	27a40018 	addiu	a0,sp,24
      }
      case 'e': {
        // reset encoder count to 32,768
        encoder_reset();
9d003f20:	0f40290d 	jal	9d00a434 <encoder_reset>
9d003f24:	00000000 	nop
        break;
9d003f28:	0b400f73 	j	9d003dcc <main+0xb0>
9d003f2c:	27a40018 	addiu	a0,sp,24
      }
      case 'f': {
        // set PWM between -100 and 100
        int x = 0;
9d003f30:	afa000e0 	sw	zero,224(sp)
        NU32_ReadUART3(buffer, BUF_SIZE);
9d003f34:	27a40018 	addiu	a0,sp,24
9d003f38:	0f402767 	jal	9d009d9c <NU32_ReadUART3>
9d003f3c:	240500c8 	li	a1,200
        sscanf(buffer, "%d", &x);
9d003f40:	27a40018 	addiu	a0,sp,24
9d003f44:	3c059d01 	lui	a1,0x9d01
9d003f48:	24a5bf88 	addiu	a1,a1,-16504
9d003f4c:	0f402eac 	jal	9d00bab0 <_sscanf_cdfFnopuxX>
9d003f50:	27a600e0 	addiu	a2,sp,224
        set_duty_cycle(x);
9d003f54:	0f402f64 	jal	9d00bd90 <__floatsisf>
9d003f58:	8fa400e0 	lw	a0,224(sp)
9d003f5c:	0f401186 	jal	9d004618 <set_duty_cycle>
9d003f60:	00402021 	move	a0,v0
        set_mode(PWM);
9d003f64:	0f403120 	jal	9d00c480 <set_mode>
9d003f68:	24040001 	li	a0,1
  positioncontrol_init();
  encoder_reset();
  __builtin_enable_interrupts();

  while(1) {
    NU32_ReadUART3(buffer, BUF_SIZE);
9d003f6c:	0b400f73 	j	9d003dcc <main+0xb0>
9d003f70:	27a40018 	addiu	a0,sp,24
        set_mode(PWM);
        break;
      }
      case 'g': {
        // set current gains
        float kptemp = 0, kitemp = 0;
9d003f74:	00001021 	move	v0,zero
9d003f78:	afa200e4 	sw	v0,228(sp)
9d003f7c:	afa200e0 	sw	v0,224(sp)
        NU32_ReadUART3(buffer, BUF_SIZE);
9d003f80:	27a40018 	addiu	a0,sp,24
9d003f84:	0f402767 	jal	9d009d9c <NU32_ReadUART3>
9d003f88:	240500c8 	li	a1,200
        sscanf(buffer, "%f %f", &kptemp, &kitemp);
9d003f8c:	27a40018 	addiu	a0,sp,24
9d003f90:	3c059d01 	lui	a1,0x9d01
9d003f94:	24a5bf8c 	addiu	a1,a1,-16500
9d003f98:	27a600e4 	addiu	a2,sp,228
9d003f9c:	0f402eac 	jal	9d00bab0 <_sscanf_cdfFnopuxX>
9d003fa0:	27a700e0 	addiu	a3,sp,224
        set_current_gains(kptemp, kitemp);
9d003fa4:	8fa400e4 	lw	a0,228(sp)
9d003fa8:	0f4011c0 	jal	9d004700 <set_current_gains>
9d003fac:	8fa500e0 	lw	a1,224(sp)
  positioncontrol_init();
  encoder_reset();
  __builtin_enable_interrupts();

  while(1) {
    NU32_ReadUART3(buffer, BUF_SIZE);
9d003fb0:	0b400f73 	j	9d003dcc <main+0xb0>
9d003fb4:	27a40018 	addiu	a0,sp,24
        set_current_gains(kptemp, kitemp);
        break;
      }
      case 'h': {
        // get current gains
        float kptemp = 0, kitemp = 0;
9d003fb8:	00001021 	move	v0,zero
9d003fbc:	afa200e4 	sw	v0,228(sp)
9d003fc0:	afa200e0 	sw	v0,224(sp)
        get_current_gains(&kptemp, &kitemp);
9d003fc4:	27a400e4 	addiu	a0,sp,228
9d003fc8:	0f4011cf 	jal	9d00473c <get_current_gains>
9d003fcc:	27a500e0 	addiu	a1,sp,224
        sprintf(buffer, "%f %f\r\n", kptemp, kitemp);
9d003fd0:	27a40018 	addiu	a0,sp,24
9d003fd4:	02c02821 	move	a1,s6
9d003fd8:	8fa600e4 	lw	a2,228(sp)
9d003fdc:	0f402ec9 	jal	9d00bb24 <_sprintf_cdfFnopuxX>
9d003fe0:	8fa700e0 	lw	a3,224(sp)
        NU32_WriteUART3(buffer);
9d003fe4:	0f402784 	jal	9d009e10 <NU32_WriteUART3>
9d003fe8:	27a40018 	addiu	a0,sp,24
  positioncontrol_init();
  encoder_reset();
  __builtin_enable_interrupts();

  while(1) {
    NU32_ReadUART3(buffer, BUF_SIZE);
9d003fec:	0b400f73 	j	9d003dcc <main+0xb0>
9d003ff0:	27a40018 	addiu	a0,sp,24
        NU32_WriteUART3(buffer);
        break;
      }
      case 'i': {
        // set position gains
        float kptemp = 0, kitemp = 0, kdtemp = 0;
9d003ff4:	00001021 	move	v0,zero
9d003ff8:	afa200e8 	sw	v0,232(sp)
9d003ffc:	afa200e4 	sw	v0,228(sp)
9d004000:	afa200e0 	sw	v0,224(sp)
        NU32_ReadUART3(buffer, BUF_SIZE);
9d004004:	27a40018 	addiu	a0,sp,24
9d004008:	0f402767 	jal	9d009d9c <NU32_ReadUART3>
9d00400c:	240500c8 	li	a1,200
        sscanf(buffer, "%f %f %f", &kptemp, &kitemp, &kdtemp);
9d004010:	27a200e0 	addiu	v0,sp,224
9d004014:	afa20010 	sw	v0,16(sp)
9d004018:	27a40018 	addiu	a0,sp,24
9d00401c:	3c059d01 	lui	a1,0x9d01
9d004020:	24a5bf9c 	addiu	a1,a1,-16484
9d004024:	27a600e8 	addiu	a2,sp,232
9d004028:	0f402eac 	jal	9d00bab0 <_sscanf_cdfFnopuxX>
9d00402c:	27a700e4 	addiu	a3,sp,228
        set_position_gains(kptemp, kitemp, kdtemp);
9d004030:	8fa400e8 	lw	a0,232(sp)
9d004034:	8fa500e4 	lw	a1,228(sp)
9d004038:	0f40176c 	jal	9d005db0 <set_position_gains>
9d00403c:	8fa600e0 	lw	a2,224(sp)
  positioncontrol_init();
  encoder_reset();
  __builtin_enable_interrupts();

  while(1) {
    NU32_ReadUART3(buffer, BUF_SIZE);
9d004040:	0b400f73 	j	9d003dcc <main+0xb0>
9d004044:	27a40018 	addiu	a0,sp,24
        set_position_gains(kptemp, kitemp, kdtemp);
        break;
      }
      case 'j': {
        // get position gains
        float kptemp = 0, kitemp = 0, kdtemp = 0;
9d004048:	00001021 	move	v0,zero
9d00404c:	afa200e8 	sw	v0,232(sp)
9d004050:	afa200e4 	sw	v0,228(sp)
9d004054:	afa200e0 	sw	v0,224(sp)
        get_position_gains(&kptemp, &kitemp, &kdtemp);
9d004058:	27a400e8 	addiu	a0,sp,232
9d00405c:	27a500e4 	addiu	a1,sp,228
9d004060:	0f401777 	jal	9d005ddc <get_position_gains>
9d004064:	27a600e0 	addiu	a2,sp,224
        sprintf(buffer, "%f %f %f\r\n", kptemp, kitemp, kdtemp);
9d004068:	8fa200e0 	lw	v0,224(sp)
9d00406c:	afa20010 	sw	v0,16(sp)
9d004070:	27a40018 	addiu	a0,sp,24
9d004074:	3c059d01 	lui	a1,0x9d01
9d004078:	24a5bfa8 	addiu	a1,a1,-16472
9d00407c:	8fa600e8 	lw	a2,232(sp)
9d004080:	0f402ec9 	jal	9d00bb24 <_sprintf_cdfFnopuxX>
9d004084:	8fa700e4 	lw	a3,228(sp)
        NU32_WriteUART3(buffer);
9d004088:	0f402784 	jal	9d009e10 <NU32_WriteUART3>
9d00408c:	27a40018 	addiu	a0,sp,24
  positioncontrol_init();
  encoder_reset();
  __builtin_enable_interrupts();

  while(1) {
    NU32_ReadUART3(buffer, BUF_SIZE);
9d004090:	0b400f73 	j	9d003dcc <main+0xb0>
9d004094:	27a40018 	addiu	a0,sp,24
        break;
      }
      case 'k': {
        // test current gains
        int i = 0;
        start_test();
9d004098:	0f401304 	jal	9d004c10 <start_test>
9d00409c:	00000000 	nop
        while (!test_finished()) {} // wait for test to finish
9d0040a0:	0f4012f3 	jal	9d004bcc <test_finished>
9d0040a4:	00000000 	nop
9d0040a8:	1040fffd 	beqz	v0,9d0040a0 <main+0x384>
9d0040ac:	27a40018 	addiu	a0,sp,24

        sprintf(buffer, "%d\r\n", PLOTPTS);
9d0040b0:	3c059d01 	lui	a1,0x9d01
9d0040b4:	24a5bf80 	addiu	a1,a1,-16512
9d0040b8:	0f402ec9 	jal	9d00bb24 <_sprintf_cdfFnopuxX>
9d0040bc:	24060064 	li	a2,100
        NU32_WriteUART3(buffer);
9d0040c0:	0f402784 	jal	9d009e10 <NU32_WriteUART3>
9d0040c4:	27a40018 	addiu	a0,sp,24
        for (i = 0; i < PLOTPTS; i++) {
9d0040c8:	00008021 	move	s0,zero
          sprintf(buffer, "%d %d\r\n", get_reference_array(i), get_sensor_array(i));
9d0040cc:	3c139d01 	lui	s3,0x9d01
9d0040d0:	2673bfb4 	addiu	s3,s3,-16460
        start_test();
        while (!test_finished()) {} // wait for test to finish

        sprintf(buffer, "%d\r\n", PLOTPTS);
        NU32_WriteUART3(buffer);
        for (i = 0; i < PLOTPTS; i++) {
9d0040d4:	24120064 	li	s2,100
          sprintf(buffer, "%d %d\r\n", get_reference_array(i), get_sensor_array(i));
9d0040d8:	0f4012fd 	jal	9d004bf4 <get_reference_array>
9d0040dc:	02002021 	move	a0,s0
9d0040e0:	00408821 	move	s1,v0
9d0040e4:	0f4012f6 	jal	9d004bd8 <get_sensor_array>
9d0040e8:	02002021 	move	a0,s0
9d0040ec:	27a40018 	addiu	a0,sp,24
9d0040f0:	02602821 	move	a1,s3
9d0040f4:	02203021 	move	a2,s1
9d0040f8:	0f402ec9 	jal	9d00bb24 <_sprintf_cdfFnopuxX>
9d0040fc:	00403821 	move	a3,v0
          NU32_WriteUART3(buffer);
9d004100:	0f402784 	jal	9d009e10 <NU32_WriteUART3>
9d004104:	27a40018 	addiu	a0,sp,24
        start_test();
        while (!test_finished()) {} // wait for test to finish

        sprintf(buffer, "%d\r\n", PLOTPTS);
        NU32_WriteUART3(buffer);
        for (i = 0; i < PLOTPTS; i++) {
9d004108:	26100001 	addiu	s0,s0,1
9d00410c:	1612fff2 	bne	s0,s2,9d0040d8 <main+0x3bc>
9d004110:	00000000 	nop
9d004114:	0b400f73 	j	9d003dcc <main+0xb0>
9d004118:	27a40018 	addiu	a0,sp,24
        }
        break;
      }
      case 'l': {
        // go to angle (degree)
        float angle = 0;
9d00411c:	00001021 	move	v0,zero
9d004120:	afa200e0 	sw	v0,224(sp)
        NU32_ReadUART3(buffer, BUF_SIZE);
9d004124:	27a40018 	addiu	a0,sp,24
9d004128:	0f402767 	jal	9d009d9c <NU32_ReadUART3>
9d00412c:	240500c8 	li	a1,200
        sscanf(buffer, "%f", &angle);
9d004130:	27a40018 	addiu	a0,sp,24
9d004134:	02e02821 	move	a1,s7
9d004138:	0f402eac 	jal	9d00bab0 <_sscanf_cdfFnopuxX>
9d00413c:	27a600e0 	addiu	a2,sp,224
        __builtin_disable_interrupts();
9d004140:	41626000 	di	v0
9d004144:	000000c0 	ehb
        set_desired_angle(angle);
9d004148:	0f40177e 	jal	9d005df8 <set_desired_angle>
9d00414c:	8fa400e0 	lw	a0,224(sp)
        reset_position_eint();
9d004150:	0f4017d1 	jal	9d005f44 <reset_position_eint>
9d004154:	00000000 	nop
        __builtin_enable_interrupts();
9d004158:	41626020 	ei	v0
        if (!(get_mode() == HOLD)) {
9d00415c:	0f40311d 	jal	9d00c474 <get_mode>
9d004160:	00000000 	nop
9d004164:	24030003 	li	v1,3
9d004168:	5043ff18 	beql	v0,v1,9d003dcc <main+0xb0>
9d00416c:	27a40018 	addiu	a0,sp,24
          set_mode(HOLD);
9d004170:	0f403120 	jal	9d00c480 <set_mode>
9d004174:	24040003 	li	a0,3
  positioncontrol_init();
  encoder_reset();
  __builtin_enable_interrupts();

  while(1) {
    NU32_ReadUART3(buffer, BUF_SIZE);
9d004178:	0b400f73 	j	9d003dcc <main+0xb0>
9d00417c:	27a40018 	addiu	a0,sp,24
        }
        break;
      }
      case 'm': {
        // load step trajectory
        int n = 0;
9d004180:	afa000e4 	sw	zero,228(sp)
        float m = 0;
9d004184:	00001021 	move	v0,zero
9d004188:	afa200e0 	sw	v0,224(sp)
        NU32_ReadUART3(buffer, BUF_SIZE);
9d00418c:	27a40018 	addiu	a0,sp,24
9d004190:	0f402767 	jal	9d009d9c <NU32_ReadUART3>
9d004194:	240500c8 	li	a1,200
        sscanf(buffer, "%d", &n);         // first read the number of samples
9d004198:	27a40018 	addiu	a0,sp,24
9d00419c:	3c059d01 	lui	a1,0x9d01
9d0041a0:	24a5bf88 	addiu	a1,a1,-16504
9d0041a4:	0f402eac 	jal	9d00bab0 <_sscanf_cdfFnopuxX>
9d0041a8:	27a600e4 	addiu	a2,sp,228
        if (n < TRAJECTORY_SIZE) {
9d0041ac:	8fa200e4 	lw	v0,228(sp)
9d0041b0:	284207d0 	slti	v0,v0,2000
9d0041b4:	5040002d 	beqzl	v0,9d00426c <main+0x550>
9d0041b8:	27a40018 	addiu	a0,sp,24
          __builtin_disable_interrupts();
9d0041bc:	41626000 	di	v0
9d0041c0:	000000c0 	ehb
          set_desired_trajectory(0, (float)n);      // first value is size of trajectory
9d0041c4:	0f402f64 	jal	9d00bd90 <__floatsisf>
9d0041c8:	8fa400e4 	lw	a0,228(sp)
9d0041cc:	00002021 	move	a0,zero
9d0041d0:	0f4017e3 	jal	9d005f8c <set_desired_trajectory>
9d0041d4:	00402821 	move	a1,v0
          sprintf(buffer, "%d\r\n", n);   // send a 1 if trajectory fits in buffer
9d0041d8:	27a40018 	addiu	a0,sp,24
9d0041dc:	3c059d01 	lui	a1,0x9d01
9d0041e0:	24a5bf80 	addiu	a1,a1,-16512
9d0041e4:	0f402ec9 	jal	9d00bb24 <_sprintf_cdfFnopuxX>
9d0041e8:	8fa600e4 	lw	a2,228(sp)
          NU32_WriteUART3(buffer);
9d0041ec:	0f402784 	jal	9d009e10 <NU32_WriteUART3>
9d0041f0:	27a40018 	addiu	a0,sp,24
          int i;
          for (i = 1; i < n + 1; i++){
9d0041f4:	8fa200e4 	lw	v0,228(sp)
9d0041f8:	24420001 	addiu	v0,v0,1
9d0041fc:	28420002 	slti	v0,v0,2
9d004200:	14400011 	bnez	v0,9d004248 <main+0x52c>
9d004204:	27a40018 	addiu	a0,sp,24
9d004208:	24100001 	li	s0,1
            NU32_ReadUART3(buffer, BUF_SIZE);
9d00420c:	0f402767 	jal	9d009d9c <NU32_ReadUART3>
9d004210:	240500c8 	li	a1,200
            sscanf(buffer, "%f", &m);
9d004214:	27a40018 	addiu	a0,sp,24
9d004218:	02e02821 	move	a1,s7
9d00421c:	0f402eac 	jal	9d00bab0 <_sscanf_cdfFnopuxX>
9d004220:	27a600e0 	addiu	a2,sp,224
            set_desired_trajectory(i, m);
9d004224:	02002021 	move	a0,s0
9d004228:	0f4017e3 	jal	9d005f8c <set_desired_trajectory>
9d00422c:	8fa500e0 	lw	a1,224(sp)
          __builtin_disable_interrupts();
          set_desired_trajectory(0, (float)n);      // first value is size of trajectory
          sprintf(buffer, "%d\r\n", n);   // send a 1 if trajectory fits in buffer
          NU32_WriteUART3(buffer);
          int i;
          for (i = 1; i < n + 1; i++){
9d004230:	26100001 	addiu	s0,s0,1
9d004234:	8fa200e4 	lw	v0,228(sp)
9d004238:	24420001 	addiu	v0,v0,1
9d00423c:	0202102a 	slt	v0,s0,v0
9d004240:	1440fff2 	bnez	v0,9d00420c <main+0x4f0>
9d004244:	27a40018 	addiu	a0,sp,24
            NU32_ReadUART3(buffer, BUF_SIZE);
            sscanf(buffer, "%f", &m);
            set_desired_trajectory(i, m);
          }
          sprintf(buffer, "%d\r\n", 1);   // send a 1 to signal finish
9d004248:	3c059d01 	lui	a1,0x9d01
9d00424c:	24a5bf80 	addiu	a1,a1,-16512
9d004250:	0f402ec9 	jal	9d00bb24 <_sprintf_cdfFnopuxX>
9d004254:	24060001 	li	a2,1
          NU32_WriteUART3(buffer);
9d004258:	0f402784 	jal	9d009e10 <NU32_WriteUART3>
9d00425c:	27a40018 	addiu	a0,sp,24
          __builtin_enable_interrupts();
9d004260:	41626020 	ei	v0
9d004264:	0b400f73 	j	9d003dcc <main+0xb0>
9d004268:	27a40018 	addiu	a0,sp,24
        } else {
          sprintf(buffer, "%d\r\n", 0);   // otherwise respond with a 0
9d00426c:	3c059d01 	lui	a1,0x9d01
9d004270:	24a5bf80 	addiu	a1,a1,-16512
9d004274:	0f402ec9 	jal	9d00bb24 <_sprintf_cdfFnopuxX>
9d004278:	00003021 	move	a2,zero
          NU32_WriteUART3(buffer);
9d00427c:	0f402784 	jal	9d009e10 <NU32_WriteUART3>
9d004280:	27a40018 	addiu	a0,sp,24
  positioncontrol_init();
  encoder_reset();
  __builtin_enable_interrupts();

  while(1) {
    NU32_ReadUART3(buffer, BUF_SIZE);
9d004284:	0b400f73 	j	9d003dcc <main+0xb0>
9d004288:	27a40018 	addiu	a0,sp,24
        }
        break;
      }
      case 'n': {
        // Load cubic trajectory
        int n = 0;
9d00428c:	afa000e4 	sw	zero,228(sp)
        float m = 0;
9d004290:	00001021 	move	v0,zero
9d004294:	afa200e0 	sw	v0,224(sp)
        NU32_ReadUART3(buffer, BUF_SIZE);
9d004298:	27a40018 	addiu	a0,sp,24
9d00429c:	0f402767 	jal	9d009d9c <NU32_ReadUART3>
9d0042a0:	240500c8 	li	a1,200
        sscanf(buffer, "%d", &n);         // first read the number of samples
9d0042a4:	27a40018 	addiu	a0,sp,24
9d0042a8:	3c059d01 	lui	a1,0x9d01
9d0042ac:	24a5bf88 	addiu	a1,a1,-16504
9d0042b0:	0f402eac 	jal	9d00bab0 <_sscanf_cdfFnopuxX>
9d0042b4:	27a600e4 	addiu	a2,sp,228
        if (n < TRAJECTORY_SIZE) {
9d0042b8:	8fa200e4 	lw	v0,228(sp)
9d0042bc:	284207d0 	slti	v0,v0,2000
9d0042c0:	5040002d 	beqzl	v0,9d004378 <main+0x65c>
9d0042c4:	27a40018 	addiu	a0,sp,24
          __builtin_disable_interrupts();
9d0042c8:	41626000 	di	v0
9d0042cc:	000000c0 	ehb
          set_desired_trajectory(0, (float)n);      // first value is size of trajectory
9d0042d0:	0f402f64 	jal	9d00bd90 <__floatsisf>
9d0042d4:	8fa400e4 	lw	a0,228(sp)
9d0042d8:	00002021 	move	a0,zero
9d0042dc:	0f4017e3 	jal	9d005f8c <set_desired_trajectory>
9d0042e0:	00402821 	move	a1,v0
          sprintf(buffer, "%d\r\n", n);   // send a 1 if trajectory fits in buffer
9d0042e4:	27a40018 	addiu	a0,sp,24
9d0042e8:	3c059d01 	lui	a1,0x9d01
9d0042ec:	24a5bf80 	addiu	a1,a1,-16512
9d0042f0:	0f402ec9 	jal	9d00bb24 <_sprintf_cdfFnopuxX>
9d0042f4:	8fa600e4 	lw	a2,228(sp)
          NU32_WriteUART3(buffer);
9d0042f8:	0f402784 	jal	9d009e10 <NU32_WriteUART3>
9d0042fc:	27a40018 	addiu	a0,sp,24
          int i;
          for (i = 1; i < n + 1; i++){
9d004300:	8fa200e4 	lw	v0,228(sp)
9d004304:	24420001 	addiu	v0,v0,1
9d004308:	28420002 	slti	v0,v0,2
9d00430c:	14400011 	bnez	v0,9d004354 <main+0x638>
9d004310:	27a40018 	addiu	a0,sp,24
9d004314:	24100001 	li	s0,1
            NU32_ReadUART3(buffer, BUF_SIZE);
9d004318:	0f402767 	jal	9d009d9c <NU32_ReadUART3>
9d00431c:	240500c8 	li	a1,200
            sscanf(buffer, "%f", &m);
9d004320:	27a40018 	addiu	a0,sp,24
9d004324:	02e02821 	move	a1,s7
9d004328:	0f402eac 	jal	9d00bab0 <_sscanf_cdfFnopuxX>
9d00432c:	27a600e0 	addiu	a2,sp,224
            set_desired_trajectory(i, m);
9d004330:	02002021 	move	a0,s0
9d004334:	0f4017e3 	jal	9d005f8c <set_desired_trajectory>
9d004338:	8fa500e0 	lw	a1,224(sp)
          __builtin_disable_interrupts();
          set_desired_trajectory(0, (float)n);      // first value is size of trajectory
          sprintf(buffer, "%d\r\n", n);   // send a 1 if trajectory fits in buffer
          NU32_WriteUART3(buffer);
          int i;
          for (i = 1; i < n + 1; i++){
9d00433c:	26100001 	addiu	s0,s0,1
9d004340:	8fa200e4 	lw	v0,228(sp)
9d004344:	24420001 	addiu	v0,v0,1
9d004348:	0202102a 	slt	v0,s0,v0
9d00434c:	1440fff2 	bnez	v0,9d004318 <main+0x5fc>
9d004350:	27a40018 	addiu	a0,sp,24
            NU32_ReadUART3(buffer, BUF_SIZE);
            sscanf(buffer, "%f", &m);
            set_desired_trajectory(i, m);
          }
          sprintf(buffer, "%d\r\n", 1);   // send a 1 to signal finish
9d004354:	3c059d01 	lui	a1,0x9d01
9d004358:	24a5bf80 	addiu	a1,a1,-16512
9d00435c:	0f402ec9 	jal	9d00bb24 <_sprintf_cdfFnopuxX>
9d004360:	24060001 	li	a2,1
          NU32_WriteUART3(buffer);
9d004364:	0f402784 	jal	9d009e10 <NU32_WriteUART3>
9d004368:	27a40018 	addiu	a0,sp,24
          __builtin_enable_interrupts();
9d00436c:	41626020 	ei	v0
9d004370:	0b400f73 	j	9d003dcc <main+0xb0>
9d004374:	27a40018 	addiu	a0,sp,24
        } else {
          sprintf(buffer, "%d\r\n", 0);   // otherwise respond with a 0
9d004378:	3c059d01 	lui	a1,0x9d01
9d00437c:	24a5bf80 	addiu	a1,a1,-16512
9d004380:	0f402ec9 	jal	9d00bb24 <_sprintf_cdfFnopuxX>
9d004384:	00003021 	move	a2,zero
          NU32_WriteUART3(buffer);
9d004388:	0f402784 	jal	9d009e10 <NU32_WriteUART3>
9d00438c:	27a40018 	addiu	a0,sp,24
  positioncontrol_init();
  encoder_reset();
  __builtin_enable_interrupts();

  while(1) {
    NU32_ReadUART3(buffer, BUF_SIZE);
9d004390:	0b400f73 	j	9d003dcc <main+0xb0>
9d004394:	27a40018 	addiu	a0,sp,24
        }
        break;
      }
      case 'o': {
        // Execute trajectory
        start_trajectory_execution();
9d004398:	0f4017d6 	jal	9d005f58 <start_trajectory_execution>
9d00439c:	00000000 	nop
        set_mode(TRACK);
9d0043a0:	0f403120 	jal	9d00c480 <set_mode>
9d0043a4:	24040004 	li	a0,4
        while (!trajectory_finished()) {} // wait for execution to end
9d0043a8:	0f4017e0 	jal	9d005f80 <trajectory_finished>
9d0043ac:	00000000 	nop
9d0043b0:	1040fffd 	beqz	v0,9d0043a8 <main+0x68c>
9d0043b4:	00000000 	nop
        int n = (int)get_desired_trajectory(0);
9d0043b8:	0f4017ea 	jal	9d005fa8 <get_desired_trajectory>
9d0043bc:	00002021 	move	a0,zero
9d0043c0:	0f402e10 	jal	9d00b840 <__fixsfsi>
9d0043c4:	00402021 	move	a0,v0
9d0043c8:	00409021 	move	s2,v0
        sprintf(buffer, "%d\r\n", n);
9d0043cc:	27a40018 	addiu	a0,sp,24
9d0043d0:	3c059d01 	lui	a1,0x9d01
9d0043d4:	24a5bf80 	addiu	a1,a1,-16512
9d0043d8:	0f402ec9 	jal	9d00bb24 <_sprintf_cdfFnopuxX>
9d0043dc:	00403021 	move	a2,v0
        NU32_WriteUART3(buffer);
9d0043e0:	0f402784 	jal	9d009e10 <NU32_WriteUART3>
9d0043e4:	27a40018 	addiu	a0,sp,24
        __builtin_disable_interrupts();
9d0043e8:	41626000 	di	v0
9d0043ec:	000000c0 	ehb
        int i;
        for (i = 1; i < n + 1; i++) {
9d0043f0:	26520001 	addiu	s2,s2,1
9d0043f4:	2a420002 	slti	v0,s2,2
9d0043f8:	14400011 	bnez	v0,9d004440 <main+0x724>
9d0043fc:	00000000 	nop
9d004400:	24100001 	li	s0,1
          sprintf(buffer, "%f %f\r\n", get_desired_trajectory(i), get_actual_trajectory(i));
9d004404:	0f4017ea 	jal	9d005fa8 <get_desired_trajectory>
9d004408:	02002021 	move	a0,s0
9d00440c:	00408821 	move	s1,v0
9d004410:	0f4017f8 	jal	9d005fe0 <get_actual_trajectory>
9d004414:	02002021 	move	a0,s0
9d004418:	27a40018 	addiu	a0,sp,24
9d00441c:	02c02821 	move	a1,s6
9d004420:	02203021 	move	a2,s1
9d004424:	0f402ec9 	jal	9d00bb24 <_sprintf_cdfFnopuxX>
9d004428:	00403821 	move	a3,v0
          NU32_WriteUART3(buffer);
9d00442c:	0f402784 	jal	9d009e10 <NU32_WriteUART3>
9d004430:	27a40018 	addiu	a0,sp,24
        int n = (int)get_desired_trajectory(0);
        sprintf(buffer, "%d\r\n", n);
        NU32_WriteUART3(buffer);
        __builtin_disable_interrupts();
        int i;
        for (i = 1; i < n + 1; i++) {
9d004434:	26100001 	addiu	s0,s0,1
9d004438:	1612fff2 	bne	s0,s2,9d004404 <main+0x6e8>
9d00443c:	00000000 	nop
          sprintf(buffer, "%f %f\r\n", get_desired_trajectory(i), get_actual_trajectory(i));
          NU32_WriteUART3(buffer);
        }
        __builtin_enable_interrupts();
9d004440:	41626020 	ei	v0
        set_mode(HOLD);
9d004444:	0f403120 	jal	9d00c480 <set_mode>
9d004448:	24040003 	li	a0,3
         break;
9d00444c:	0b400f73 	j	9d003dcc <main+0xb0>
9d004450:	27a40018 	addiu	a0,sp,24
      }
      case 'p': {
        // Unpower the moter
        set_mode(IDLE);
9d004454:	0f403120 	jal	9d00c480 <set_mode>
9d004458:	00002021 	move	a0,zero
        set_duty_cycle(0);
9d00445c:	0f401186 	jal	9d004618 <set_duty_cycle>
9d004460:	00002021 	move	a0,zero
        set_direction(0);
9d004464:	0f4011ba 	jal	9d0046e8 <set_direction>
9d004468:	00002021 	move	a0,zero
        break;
9d00446c:	0b400f73 	j	9d003dcc <main+0xb0>
9d004470:	27a40018 	addiu	a0,sp,24
      }
      case 'q': {
        // handle q for quit. Later you may want to return to IDLE mode here
        set_mode(IDLE);
9d004474:	0f403120 	jal	9d00c480 <set_mode>
9d004478:	00002021 	move	a0,zero
        break;
9d00447c:	0b400f73 	j	9d003dcc <main+0xb0>
9d004480:	27a40018 	addiu	a0,sp,24
      }
      case 'r': {
        // get mode
        sprintf(buffer, "%d\r\n", get_mode());
9d004484:	0f40311d 	jal	9d00c474 <get_mode>
9d004488:	00000000 	nop
9d00448c:	27a40018 	addiu	a0,sp,24
9d004490:	3c059d01 	lui	a1,0x9d01
9d004494:	24a5bf80 	addiu	a1,a1,-16512
9d004498:	0f402ec9 	jal	9d00bb24 <_sprintf_cdfFnopuxX>
9d00449c:	00403021 	move	a2,v0
        NU32_WriteUART3(buffer);
9d0044a0:	0f402784 	jal	9d009e10 <NU32_WriteUART3>
9d0044a4:	27a40018 	addiu	a0,sp,24
        break;
9d0044a8:	0b400f73 	j	9d003dcc <main+0xb0>
9d0044ac:	27a40018 	addiu	a0,sp,24
      }
      case 'x': {
        // add two integers and return to client
        int x = 0, y = 0;
9d0044b0:	afa000e4 	sw	zero,228(sp)
9d0044b4:	afa000e0 	sw	zero,224(sp)
        NU32_ReadUART3(buffer, BUF_SIZE);
9d0044b8:	27a40018 	addiu	a0,sp,24
9d0044bc:	0f402767 	jal	9d009d9c <NU32_ReadUART3>
9d0044c0:	240500c8 	li	a1,200
        sscanf(buffer, "%d %d", &x, &y);  // read numbers into x and y
9d0044c4:	27a40018 	addiu	a0,sp,24
9d0044c8:	27c5bfc0 	addiu	a1,s8,-16448
9d0044cc:	27a600e4 	addiu	a2,sp,228
9d0044d0:	0f402eac 	jal	9d00bab0 <_sscanf_cdfFnopuxX>
9d0044d4:	27a700e0 	addiu	a3,sp,224
        sprintf(buffer, "%d\r\n", x + y); // return x + y
9d0044d8:	27a40018 	addiu	a0,sp,24
9d0044dc:	3c059d01 	lui	a1,0x9d01
9d0044e0:	24a5bf80 	addiu	a1,a1,-16512
9d0044e4:	8fa200e0 	lw	v0,224(sp)
9d0044e8:	8fa600e4 	lw	a2,228(sp)
9d0044ec:	0f402ec9 	jal	9d00bb24 <_sprintf_cdfFnopuxX>
9d0044f0:	00c23021 	addu	a2,a2,v0
        NU32_WriteUART3(buffer);
9d0044f4:	0f402784 	jal	9d009e10 <NU32_WriteUART3>
9d0044f8:	27a40018 	addiu	a0,sp,24
  positioncontrol_init();
  encoder_reset();
  __builtin_enable_interrupts();

  while(1) {
    NU32_ReadUART3(buffer, BUF_SIZE);
9d0044fc:	0b400f73 	j	9d003dcc <main+0xb0>
9d004500:	27a40018 	addiu	a0,sp,24
        sprintf(buffer, "%d\r\n", x + y); // return x + y
        NU32_WriteUART3(buffer);
        break;
      }
      default: {
        NU32_LED2 = 0;  // turn on error LED
9d004504:	92826160 	lbu	v0,24928(s4)
9d004508:	7c020844 	ins	v0,zero,0x1,0x1
9d00450c:	a2826160 	sb	v0,24928(s4)
        break;
9d004510:	0b400f73 	j	9d003dcc <main+0xb0>
9d004514:	27a40018 	addiu	a0,sp,24

9d004518 <currentcontrol_init>:
static volatile int demanded_current = 0;
static volatile float eintmax = 100;

void currentcontrol_init() {
  /* Initialize Timer 2 Interrupt */
  PR2 = 15999;          // 5 kHz interrupt
9d004518:	24033e7f 	li	v1,15999
9d00451c:	3c02bf80 	lui	v0,0xbf80
9d004520:	ac430820 	sw	v1,2080(v0)
  TMR2 = 0;
9d004524:	3c02bf80 	lui	v0,0xbf80
9d004528:	ac400810 	sw	zero,2064(v0)
  T2CONbits.TGATE = 0;  // not gated input (default)
9d00452c:	3c02bf80 	lui	v0,0xbf80
9d004530:	94430800 	lhu	v1,2048(v0)
9d004534:	7c0339c4 	ins	v1,zero,0x7,0x1
9d004538:	a4430800 	sh	v1,2048(v0)
  T2CONbits.ON = 1;     // turn on Timer 2
9d00453c:	94440800 	lhu	a0,2048(v0)
9d004540:	24030001 	li	v1,1
9d004544:	7c647bc4 	ins	a0,v1,0xf,0x1
9d004548:	a4440800 	sh	a0,2048(v0)
  IPC2bits.T2IP = 5;    // set interrupt priority
9d00454c:	3c02bf88 	lui	v0,0xbf88
9d004550:	8c4410b0 	lw	a0,4272(v0)
9d004554:	24050005 	li	a1,5
9d004558:	7ca42084 	ins	a0,a1,0x2,0x3
9d00455c:	ac4410b0 	sw	a0,4272(v0)
  IPC2bits.T2IS = 0;    // set interrupt subpriority
9d004560:	8c4410b0 	lw	a0,4272(v0)
9d004564:	7c040804 	ins	a0,zero,0x0,0x2
9d004568:	ac4410b0 	sw	a0,4272(v0)
  IFS0bits.T2IF = 0;    // clear interrupt flag
9d00456c:	3c02bf88 	lui	v0,0xbf88
9d004570:	8c441030 	lw	a0,4144(v0)
9d004574:	7c044204 	ins	a0,zero,0x8,0x1
9d004578:	ac441030 	sw	a0,4144(v0)
  IEC0bits.T2IE = 1;    // enable interrupt
9d00457c:	3c02bf88 	lui	v0,0xbf88
9d004580:	8c441060 	lw	a0,4192(v0)
9d004584:	7c644204 	ins	a0,v1,0x8,0x1
9d004588:	ac441060 	sw	a0,4192(v0)

  /* Initialize 20 kHz PWM signal */
  PR3 = 3999;             // period = (PR3+1) * N * 12.5ns = 50us = 20khz
9d00458c:	24040f9f 	li	a0,3999
9d004590:	3c02bf80 	lui	v0,0xbf80
9d004594:	ac440a20 	sw	a0,2592(v0)
  TMR3 = 0;
9d004598:	3c02bf80 	lui	v0,0xbf80
9d00459c:	ac400a10 	sw	zero,2576(v0)
  OC1CONbits.OCM = 0b110; // PWM mode with fault pin disabled
9d0045a0:	3c02bf80 	lui	v0,0xbf80
9d0045a4:	94443000 	lhu	a0,12288(v0)
9d0045a8:	24050006 	li	a1,6
9d0045ac:	7ca41004 	ins	a0,a1,0x0,0x3
9d0045b0:	a4443000 	sh	a0,12288(v0)
  OC1CONbits.OCTSEL = 1;  // use Timer 3 for OC1
9d0045b4:	94443000 	lhu	a0,12288(v0)
9d0045b8:	7c6418c4 	ins	a0,v1,0x3,0x1
9d0045bc:	a4443000 	sh	a0,12288(v0)
  OC1RS = 3000;           // duty cycle = OC1RS / (PR3 + 1)
9d0045c0:	24040bb8 	li	a0,3000
9d0045c4:	3c05bf80 	lui	a1,0xbf80
9d0045c8:	aca43020 	sw	a0,12320(a1)
  OC1R = 3000;            // initialize this before turning OC1 on, afterwards it is read-only
9d0045cc:	3c05bf80 	lui	a1,0xbf80
9d0045d0:	aca43010 	sw	a0,12304(a1)
  T3CONbits.ON = 1;       // turn on Timer 3
9d0045d4:	3c04bf80 	lui	a0,0xbf80
9d0045d8:	94850a00 	lhu	a1,2560(a0)
9d0045dc:	7c657bc4 	ins	a1,v1,0xf,0x1
9d0045e0:	a4850a00 	sh	a1,2560(a0)
  OC1CONbits.ON = 1;      // turn on OC1
9d0045e4:	94443000 	lhu	a0,12288(v0)
9d0045e8:	7c647bc4 	ins	a0,v1,0xf,0x1
9d0045ec:	a4443000 	sh	a0,12288(v0)

  /* Intialize digital output for motor direction */
  TRISDbits.TRISD10 = 0;  // set D10 to be an output pin
9d0045f0:	3c02bf88 	lui	v0,0xbf88
9d0045f4:	944360c0 	lhu	v1,24768(v0)
9d0045f8:	7c035284 	ins	v1,zero,0xa,0x1
9d0045fc:	a44360c0 	sh	v1,24768(v0)
  LATDbits.LATD10 = 0;    // initialize output to low
9d004600:	3c02bf88 	lui	v0,0xbf88
9d004604:	944360e0 	lhu	v1,24800(v0)
9d004608:	7c035284 	ins	v1,zero,0xa,0x1
9d00460c:	a44360e0 	sh	v1,24800(v0)
9d004610:	03e00008 	jr	ra
9d004614:	00000000 	nop

9d004618 <set_duty_cycle>:
}

void set_duty_cycle(float cycle) {
9d004618:	27bdffe8 	addiu	sp,sp,-24
9d00461c:	afbf0014 	sw	ra,20(sp)
9d004620:	afb00010 	sw	s0,16(sp)
9d004624:	00808021 	move	s0,a0
  if (cycle > 100) {
9d004628:	3c029d01 	lui	v0,0x9d01
9d00462c:	8c44c520 	lw	a0,-15072(v0)
9d004630:	0f402d50 	jal	9d00b540 <__eqsf2>
9d004634:	02002821 	move	a1,s0
9d004638:	04430006 	bgezl	v0,9d004654 <set_duty_cycle+0x3c>
9d00463c:	02002021 	move	a0,s0
    current_duty_cycle = 100;
9d004640:	3c029d01 	lui	v0,0x9d01
9d004644:	8c42c520 	lw	v0,-15072(v0)
9d004648:	af828048 	sw	v0,-32696(gp)
9d00464c:	0b4011a6 	j	9d004698 <set_duty_cycle+0x80>
9d004650:	00002021 	move	a0,zero
  } else if (cycle < -100) {
9d004654:	3c029d01 	lui	v0,0x9d01
9d004658:	0f402d50 	jal	9d00b540 <__eqsf2>
9d00465c:	8c45c524 	lw	a1,-15068(v0)
9d004660:	04410005 	bgez	v0,9d004678 <set_duty_cycle+0x60>
9d004664:	3c029d01 	lui	v0,0x9d01
    current_duty_cycle = -100;
9d004668:	8c42c524 	lw	v0,-15068(v0)
9d00466c:	af828048 	sw	v0,-32696(gp)
9d004670:	0b4011a6 	j	9d004698 <set_duty_cycle+0x80>
9d004674:	00002021 	move	a0,zero
  } else {
    current_duty_cycle = abs(cycle);
9d004678:	0f402e10 	jal	9d00b840 <__fixsfsi>
9d00467c:	02002021 	move	a0,s0
9d004680:	000227c3 	sra	a0,v0,0x1f
9d004684:	00821026 	xor	v0,a0,v0
9d004688:	0f402f64 	jal	9d00bd90 <__floatsisf>
9d00468c:	00442023 	subu	a0,v0,a0
9d004690:	af828048 	sw	v0,-32696(gp)
  }
  if (cycle >= 0) {
9d004694:	00002021 	move	a0,zero
9d004698:	0f402d50 	jal	9d00b540 <__eqsf2>
9d00469c:	02002821 	move	a1,s0
9d0046a0:	1c400004 	bgtz	v0,9d0046b4 <set_duty_cycle+0x9c>
9d0046a4:	24020001 	li	v0,1
int get_duty_cycle() {
  return current_duty_cycle;
}

void set_direction(int dir) {
  current_direction = dir;
9d0046a8:	af808044 	sw	zero,-32700(gp)
  if (cycle >= 0) {
    set_direction(0);
  } else {
    set_direction(1);
  }
}
9d0046ac:	0b4011af 	j	9d0046bc <set_duty_cycle+0xa4>
9d0046b0:	8fbf0014 	lw	ra,20(sp)
int get_duty_cycle() {
  return current_duty_cycle;
}

void set_direction(int dir) {
  current_direction = dir;
9d0046b4:	af828044 	sw	v0,-32700(gp)
  if (cycle >= 0) {
    set_direction(0);
  } else {
    set_direction(1);
  }
}
9d0046b8:	8fbf0014 	lw	ra,20(sp)
9d0046bc:	8fb00010 	lw	s0,16(sp)
9d0046c0:	03e00008 	jr	ra
9d0046c4:	27bd0018 	addiu	sp,sp,24

9d0046c8 <get_duty_cycle>:

int get_duty_cycle() {
9d0046c8:	27bdffe8 	addiu	sp,sp,-24
9d0046cc:	afbf0014 	sw	ra,20(sp)
  return current_duty_cycle;
9d0046d0:	8f848048 	lw	a0,-32696(gp)
9d0046d4:	0f402e10 	jal	9d00b840 <__fixsfsi>
9d0046d8:	00000000 	nop
}
9d0046dc:	8fbf0014 	lw	ra,20(sp)
9d0046e0:	03e00008 	jr	ra
9d0046e4:	27bd0018 	addiu	sp,sp,24

9d0046e8 <set_direction>:

void set_direction(int dir) {
  current_direction = dir;
9d0046e8:	af848044 	sw	a0,-32700(gp)
9d0046ec:	03e00008 	jr	ra
9d0046f0:	00000000 	nop

9d0046f4 <get_direction>:
}

int get_direction() {
  return current_direction;
9d0046f4:	8f828044 	lw	v0,-32700(gp)
}
9d0046f8:	03e00008 	jr	ra
9d0046fc:	00000000 	nop

9d004700 <set_current_gains>:
    }
  }
  IFS0bits.T2IF = 0;        // clear interrupt flag
}

void set_current_gains(float kp, float ki) {
9d004700:	27bdffe8 	addiu	sp,sp,-24
9d004704:	afbf0014 	sw	ra,20(sp)
  __builtin_disable_interrupts();
9d004708:	41626000 	di	v0
9d00470c:	000000c0 	ehb
  Kp = kp;
9d004710:	af84803c 	sw	a0,-32708(gp)
  Ki = ki;
9d004714:	af858040 	sw	a1,-32704(gp)
  eintmax = 100 / Ki;
9d004718:	8f858040 	lw	a1,-32704(gp)
9d00471c:	3c029d01 	lui	v0,0x9d01
9d004720:	0f402696 	jal	9d009a58 <__divsf3>
9d004724:	8c44c520 	lw	a0,-15072(v0)
9d004728:	af828010 	sw	v0,-32752(gp)
  __builtin_enable_interrupts();
9d00472c:	41626020 	ei	v0
}
9d004730:	8fbf0014 	lw	ra,20(sp)
9d004734:	03e00008 	jr	ra
9d004738:	27bd0018 	addiu	sp,sp,24

9d00473c <get_current_gains>:
void get_current_gains(float *kp, float *ki) {
  *kp = Kp;
9d00473c:	8f82803c 	lw	v0,-32708(gp)
9d004740:	ac820000 	sw	v0,0(a0)
  *ki = Ki;
9d004744:	8f828040 	lw	v0,-32704(gp)
9d004748:	03e00008 	jr	ra
9d00474c:	aca20000 	sw	v0,0(a1)

9d004750 <set_demanded_current>:
}

void set_demanded_current(int current) {
  demanded_current = current;
9d004750:	af84802c 	sw	a0,-32724(gp)
9d004754:	03e00008 	jr	ra
9d004758:	00000000 	nop

9d00475c <get_demanded_current>:
}

int get_demanded_current() {
  return demanded_current;
9d00475c:	8f82802c 	lw	v0,-32724(gp)
}
9d004760:	03e00008 	jr	ra
9d004764:	00000000 	nop

9d004768 <current_PI_controller>:

void current_PI_controller(int sensor_val, int reference_val) {
9d004768:	27bdffe0 	addiu	sp,sp,-32
9d00476c:	afbf001c 	sw	ra,28(sp)
9d004770:	afb20018 	sw	s2,24(sp)
9d004774:	afb10014 	sw	s1,20(sp)
9d004778:	afb00010 	sw	s0,16(sp)
  float e = reference_val - sensor_val;
9d00477c:	0f402f64 	jal	9d00bd90 <__floatsisf>
9d004780:	00a42023 	subu	a0,a1,a0
9d004784:	00408021 	move	s0,v0
  eint = eint + e;
9d004788:	8f848038 	lw	a0,-32712(gp)
9d00478c:	0f4025fa 	jal	9d0097e8 <__addsf3>
9d004790:	00402821 	move	a1,v0
9d004794:	af828038 	sw	v0,-32712(gp)
  if (eint > eintmax) {
9d004798:	8f858038 	lw	a1,-32712(gp)
9d00479c:	8f848010 	lw	a0,-32752(gp)
9d0047a0:	0f402d50 	jal	9d00b540 <__eqsf2>
9d0047a4:	00000000 	nop
9d0047a8:	04410005 	bgez	v0,9d0047c0 <current_PI_controller+0x58>
9d0047ac:	00000000 	nop
    eint = eintmax;
9d0047b0:	8f828010 	lw	v0,-32752(gp)
9d0047b4:	af828038 	sw	v0,-32712(gp)
9d0047b8:	0b4011fb 	j	9d0047ec <current_PI_controller+0x84>
9d0047bc:	00000000 	nop
  } else if (eint < -eintmax) {
9d0047c0:	8f828010 	lw	v0,-32752(gp)
9d0047c4:	8f848038 	lw	a0,-32712(gp)
9d0047c8:	3c058000 	lui	a1,0x8000
9d0047cc:	0f402d50 	jal	9d00b540 <__eqsf2>
9d0047d0:	00a22826 	xor	a1,a1,v0
9d0047d4:	04410005 	bgez	v0,9d0047ec <current_PI_controller+0x84>
9d0047d8:	00000000 	nop
    eint = -eintmax;
9d0047dc:	8f838010 	lw	v1,-32752(gp)
9d0047e0:	3c028000 	lui	v0,0x8000
9d0047e4:	00621026 	xor	v0,v1,v0
9d0047e8:	af828038 	sw	v0,-32712(gp)
  }
  float u = Kp * e + Ki * eint;
9d0047ec:	8f84803c 	lw	a0,-32708(gp)
9d0047f0:	8f928040 	lw	s2,-32704(gp)
9d0047f4:	8f918038 	lw	s1,-32712(gp)
9d0047f8:	0f402793 	jal	9d009e4c <.LFE4>
9d0047fc:	02002821 	move	a1,s0
9d004800:	00408021 	move	s0,v0
9d004804:	02402021 	move	a0,s2
9d004808:	0f402793 	jal	9d009e4c <.LFE4>
9d00480c:	02202821 	move	a1,s1
9d004810:	02002021 	move	a0,s0
9d004814:	0f4025fa 	jal	9d0097e8 <__addsf3>
9d004818:	00402821 	move	a1,v0
  set_duty_cycle(u);
9d00481c:	0f401186 	jal	9d004618 <set_duty_cycle>
9d004820:	00402021 	move	a0,v0
}
9d004824:	8fbf001c 	lw	ra,28(sp)
9d004828:	8fb20018 	lw	s2,24(sp)
9d00482c:	8fb10014 	lw	s1,20(sp)
9d004830:	8fb00010 	lw	s0,16(sp)
9d004834:	03e00008 	jr	ra
9d004838:	27bd0020 	addiu	sp,sp,32

9d00483c <current_control_ISR>:

int get_direction() {
  return current_direction;
}

void __ISR(_TIMER_2_VECTOR, IPL5SOFT) current_control_ISR(void) {
9d00483c:	415de800 	rdpgpr	sp,sp
9d004840:	401a7000 	mfc0	k0,c0_epc
9d004844:	401b6000 	mfc0	k1,c0_status
9d004848:	27bdff88 	addiu	sp,sp,-120
9d00484c:	afba0074 	sw	k0,116(sp)
9d004850:	401a6002 	mfc0	k0,c0_srsctl
9d004854:	afbb0070 	sw	k1,112(sp)
9d004858:	afba006c 	sw	k0,108(sp)
9d00485c:	7c1b7844 	ins	k1,zero,0x1,0xf
9d004860:	377b1400 	ori	k1,k1,0x1400
9d004864:	409b6000 	mtc0	k1,c0_status
9d004868:	afbf005c 	sw	ra,92(sp)
9d00486c:	afb90058 	sw	t9,88(sp)
9d004870:	afb80054 	sw	t8,84(sp)
9d004874:	afb00050 	sw	s0,80(sp)
9d004878:	afaf004c 	sw	t7,76(sp)
9d00487c:	afae0048 	sw	t6,72(sp)
9d004880:	afad0044 	sw	t5,68(sp)
9d004884:	afac0040 	sw	t4,64(sp)
9d004888:	afab003c 	sw	t3,60(sp)
9d00488c:	afaa0038 	sw	t2,56(sp)
9d004890:	afa90034 	sw	t1,52(sp)
9d004894:	afa80030 	sw	t0,48(sp)
9d004898:	afa7002c 	sw	a3,44(sp)
9d00489c:	afa60028 	sw	a2,40(sp)
9d0048a0:	afa50024 	sw	a1,36(sp)
9d0048a4:	afa40020 	sw	a0,32(sp)
9d0048a8:	afa3001c 	sw	v1,28(sp)
9d0048ac:	afa20018 	sw	v0,24(sp)
9d0048b0:	afa10014 	sw	at,20(sp)
9d0048b4:	00001012 	mflo	v0
9d0048b8:	afa20064 	sw	v0,100(sp)
9d0048bc:	00001810 	mfhi	v1
9d0048c0:	afa30060 	sw	v1,96(sp)
  switch(get_mode()) {
9d0048c4:	0f40311d 	jal	9d00c474 <get_mode>
9d0048c8:	00000000 	nop
9d0048cc:	2c430005 	sltiu	v1,v0,5
9d0048d0:	10600098 	beqz	v1,9d004b34 <current_control_ISR+0x2f8>
9d0048d4:	00021080 	sll	v0,v0,0x2
9d0048d8:	3c039d00 	lui	v1,0x9d00
9d0048dc:	246348f0 	addiu	v1,v1,18672
9d0048e0:	00621021 	addu	v0,v1,v0
9d0048e4:	8c420000 	lw	v0,0(v0)
9d0048e8:	00400008 	jr	v0
9d0048ec:	00000000 	nop
9d0048f0:	9d004904 	0x9d004904
9d0048f4:	9d004914 	0x9d004914
9d0048f8:	9d004964 	0x9d004964
9d0048fc:	9d004a74 	0x9d004a74
9d004900:	9d004ad8 	0x9d004ad8
    case IDLE: {
      OC1RS = 0; // set duty cycle to 0 (braking)
9d004904:	3c02bf80 	lui	v0,0xbf80
9d004908:	ac403020 	sw	zero,12320(v0)
      break;
9d00490c:	0b4012ce 	j	9d004b38 <current_control_ISR+0x2fc>
9d004910:	3c02bf88 	lui	v0,0xbf88
    }
    case PWM : {
      OC1RS = ((PR3 + 1) * (get_duty_cycle())) / 100;
9d004914:	3c02bf80 	lui	v0,0xbf80
9d004918:	8c500a20 	lw	s0,2592(v0)
    set_direction(1);
  }
}

int get_duty_cycle() {
  return current_duty_cycle;
9d00491c:	8f848048 	lw	a0,-32696(gp)
9d004920:	0f402e10 	jal	9d00b840 <__fixsfsi>
9d004924:	26100001 	addiu	s0,s0,1
    case IDLE: {
      OC1RS = 0; // set duty cycle to 0 (braking)
      break;
    }
    case PWM : {
      OC1RS = ((PR3 + 1) * (get_duty_cycle())) / 100;
9d004928:	70501002 	mul	v0,v0,s0
9d00492c:	3c0351eb 	lui	v1,0x51eb
9d004930:	3463851f 	ori	v1,v1,0x851f
9d004934:	00430019 	multu	v0,v1
9d004938:	00008010 	mfhi	s0
9d00493c:	00108142 	srl	s0,s0,0x5
9d004940:	3c02bf80 	lui	v0,0xbf80
9d004944:	ac503020 	sw	s0,12320(v0)
void set_direction(int dir) {
  current_direction = dir;
}

int get_direction() {
  return current_direction;
9d004948:	8f848044 	lw	a0,-32700(gp)
      OC1RS = 0; // set duty cycle to 0 (braking)
      break;
    }
    case PWM : {
      OC1RS = ((PR3 + 1) * (get_duty_cycle())) / 100;
      LATDbits.LATD10 = get_direction();  // 0 = counterclockwise, 1 = clockwise
9d00494c:	3c02bf88 	lui	v0,0xbf88
9d004950:	944360e0 	lhu	v1,24800(v0)
9d004954:	7c835284 	ins	v1,a0,0xa,0x1
9d004958:	a44360e0 	sh	v1,24800(v0)
      break;
9d00495c:	0b4012ce 	j	9d004b38 <current_control_ISR+0x2fc>
9d004960:	3c02bf88 	lui	v0,0xbf88
    }
    case ITEST: {
      test_is_finished = 0;
9d004964:	af808030 	sw	zero,-32720(gp)
      int sensed_current = get_ADC_milliamps();
9d004968:	0f40296a 	jal	9d00a5a8 <get_ADC_milliamps>
9d00496c:	00000000 	nop
      sensor_array[square_wave_counter] = sensed_current;
9d004970:	8f848034 	lw	a0,-32716(gp)
9d004974:	00042080 	sll	a0,a0,0x2
9d004978:	3c03a000 	lui	v1,0xa000
9d00497c:	246342ec 	addiu	v1,v1,17132
9d004980:	00831821 	addu	v1,a0,v1
9d004984:	ac620000 	sw	v0,0(v1)
      reference_array[square_wave_counter] = reference_current;
9d004988:	8f858034 	lw	a1,-32716(gp)
9d00498c:	8f848014 	lw	a0,-32748(gp)
9d004990:	00052880 	sll	a1,a1,0x2
9d004994:	3c03a000 	lui	v1,0xa000
9d004998:	2463447c 	addiu	v1,v1,17532
9d00499c:	00a31821 	addu	v1,a1,v1
9d0049a0:	ac640000 	sw	a0,0(v1)
      current_PI_controller(sensed_current, reference_current);
9d0049a4:	8f858014 	lw	a1,-32748(gp)
9d0049a8:	0f4011da 	jal	9d004768 <current_PI_controller>
9d0049ac:	00402021 	move	a0,v0
      OC1RS = ((PR3 + 1) * (get_duty_cycle())) / 100;
9d0049b0:	3c02bf80 	lui	v0,0xbf80
9d0049b4:	8c500a20 	lw	s0,2592(v0)
    set_direction(1);
  }
}

int get_duty_cycle() {
  return current_duty_cycle;
9d0049b8:	8f848048 	lw	a0,-32696(gp)
9d0049bc:	0f402e10 	jal	9d00b840 <__fixsfsi>
9d0049c0:	26100001 	addiu	s0,s0,1
      test_is_finished = 0;
      int sensed_current = get_ADC_milliamps();
      sensor_array[square_wave_counter] = sensed_current;
      reference_array[square_wave_counter] = reference_current;
      current_PI_controller(sensed_current, reference_current);
      OC1RS = ((PR3 + 1) * (get_duty_cycle())) / 100;
9d0049c4:	70501002 	mul	v0,v0,s0
9d0049c8:	3c0351eb 	lui	v1,0x51eb
9d0049cc:	3463851f 	ori	v1,v1,0x851f
9d0049d0:	00430019 	multu	v0,v1
9d0049d4:	00008010 	mfhi	s0
9d0049d8:	00108142 	srl	s0,s0,0x5
9d0049dc:	3c02bf80 	lui	v0,0xbf80
9d0049e0:	ac503020 	sw	s0,12320(v0)
void set_direction(int dir) {
  current_direction = dir;
}

int get_direction() {
  return current_direction;
9d0049e4:	8f848044 	lw	a0,-32700(gp)
      int sensed_current = get_ADC_milliamps();
      sensor_array[square_wave_counter] = sensed_current;
      reference_array[square_wave_counter] = reference_current;
      current_PI_controller(sensed_current, reference_current);
      OC1RS = ((PR3 + 1) * (get_duty_cycle())) / 100;
      LATDbits.LATD10 = get_direction();
9d0049e8:	3c02bf88 	lui	v0,0xbf88
9d0049ec:	944360e0 	lhu	v1,24800(v0)
9d0049f0:	7c835284 	ins	v1,a0,0xa,0x1
9d0049f4:	a44360e0 	sh	v1,24800(v0)

      if (square_wave_counter == 25 || square_wave_counter == 50 || square_wave_counter == 75) {
9d0049f8:	8f838034 	lw	v1,-32716(gp)
9d0049fc:	24020019 	li	v0,25
9d004a00:	10620009 	beq	v1,v0,9d004a28 <current_control_ISR+0x1ec>
9d004a04:	00000000 	nop
9d004a08:	8f838034 	lw	v1,-32716(gp)
9d004a0c:	24020032 	li	v0,50
9d004a10:	10620005 	beq	v1,v0,9d004a28 <current_control_ISR+0x1ec>
9d004a14:	00000000 	nop
9d004a18:	8f838034 	lw	v1,-32716(gp)
9d004a1c:	2402004b 	li	v0,75
9d004a20:	14620004 	bne	v1,v0,9d004a34 <current_control_ISR+0x1f8>
9d004a24:	00000000 	nop
        reference_current = -reference_current;
9d004a28:	8f828014 	lw	v0,-32748(gp)
9d004a2c:	00021023 	negu	v0,v0
9d004a30:	af828014 	sw	v0,-32748(gp)
      }
      if (square_wave_counter == 99) {
9d004a34:	8f838034 	lw	v1,-32716(gp)
9d004a38:	24020063 	li	v0,99
9d004a3c:	14620008 	bne	v1,v0,9d004a60 <current_control_ISR+0x224>
9d004a40:	00000000 	nop
        test_is_finished = 1;
9d004a44:	24020001 	li	v0,1
9d004a48:	af828030 	sw	v0,-32720(gp)
        set_mode(IDLE);
9d004a4c:	0f403120 	jal	9d00c480 <set_mode>
9d004a50:	00002021 	move	a0,zero
        square_wave_counter = 0;
9d004a54:	af808034 	sw	zero,-32716(gp)
        eint = 0;         // reset between runs
9d004a58:	00001021 	move	v0,zero
9d004a5c:	af828038 	sw	v0,-32712(gp)
      }
      square_wave_counter++;
9d004a60:	8f828034 	lw	v0,-32716(gp)
9d004a64:	24420001 	addiu	v0,v0,1
9d004a68:	af828034 	sw	v0,-32716(gp)
      break;
9d004a6c:	0b4012ce 	j	9d004b38 <current_control_ISR+0x2fc>
9d004a70:	3c02bf88 	lui	v0,0xbf88
    }
    case HOLD: {
      int sensed_current = get_ADC_milliamps();
9d004a74:	0f40296a 	jal	9d00a5a8 <get_ADC_milliamps>
9d004a78:	00000000 	nop
      current_PI_controller(sensed_current, demanded_current);
9d004a7c:	8f85802c 	lw	a1,-32724(gp)
9d004a80:	0f4011da 	jal	9d004768 <current_PI_controller>
9d004a84:	00402021 	move	a0,v0
      OC1RS = ((PR3 + 1) * (get_duty_cycle())) / 100;
9d004a88:	3c02bf80 	lui	v0,0xbf80
9d004a8c:	8c500a20 	lw	s0,2592(v0)
    set_direction(1);
  }
}

int get_duty_cycle() {
  return current_duty_cycle;
9d004a90:	8f848048 	lw	a0,-32696(gp)
9d004a94:	0f402e10 	jal	9d00b840 <__fixsfsi>
9d004a98:	26100001 	addiu	s0,s0,1
      break;
    }
    case HOLD: {
      int sensed_current = get_ADC_milliamps();
      current_PI_controller(sensed_current, demanded_current);
      OC1RS = ((PR3 + 1) * (get_duty_cycle())) / 100;
9d004a9c:	70501002 	mul	v0,v0,s0
9d004aa0:	3c0351eb 	lui	v1,0x51eb
9d004aa4:	3463851f 	ori	v1,v1,0x851f
9d004aa8:	00430019 	multu	v0,v1
9d004aac:	00008010 	mfhi	s0
9d004ab0:	00108142 	srl	s0,s0,0x5
9d004ab4:	3c02bf80 	lui	v0,0xbf80
9d004ab8:	ac503020 	sw	s0,12320(v0)
void set_direction(int dir) {
  current_direction = dir;
}

int get_direction() {
  return current_direction;
9d004abc:	8f848044 	lw	a0,-32700(gp)
    }
    case HOLD: {
      int sensed_current = get_ADC_milliamps();
      current_PI_controller(sensed_current, demanded_current);
      OC1RS = ((PR3 + 1) * (get_duty_cycle())) / 100;
      LATDbits.LATD10 = get_direction();
9d004ac0:	3c02bf88 	lui	v0,0xbf88
9d004ac4:	944360e0 	lhu	v1,24800(v0)
9d004ac8:	7c835284 	ins	v1,a0,0xa,0x1
9d004acc:	a44360e0 	sh	v1,24800(v0)
      break;
9d004ad0:	0b4012ce 	j	9d004b38 <current_control_ISR+0x2fc>
9d004ad4:	3c02bf88 	lui	v0,0xbf88
    }
    case TRACK: {
      int sensed_current = get_ADC_milliamps();
9d004ad8:	0f40296a 	jal	9d00a5a8 <get_ADC_milliamps>
9d004adc:	00000000 	nop
      current_PI_controller(sensed_current, demanded_current);
9d004ae0:	8f85802c 	lw	a1,-32724(gp)
9d004ae4:	0f4011da 	jal	9d004768 <current_PI_controller>
9d004ae8:	00402021 	move	a0,v0
      OC1RS = ((PR3 + 1) * (get_duty_cycle())) / 100;
9d004aec:	3c02bf80 	lui	v0,0xbf80
9d004af0:	8c500a20 	lw	s0,2592(v0)
    set_direction(1);
  }
}

int get_duty_cycle() {
  return current_duty_cycle;
9d004af4:	8f848048 	lw	a0,-32696(gp)
9d004af8:	0f402e10 	jal	9d00b840 <__fixsfsi>
9d004afc:	26100001 	addiu	s0,s0,1
      break;
    }
    case TRACK: {
      int sensed_current = get_ADC_milliamps();
      current_PI_controller(sensed_current, demanded_current);
      OC1RS = ((PR3 + 1) * (get_duty_cycle())) / 100;
9d004b00:	70501002 	mul	v0,v0,s0
9d004b04:	3c0351eb 	lui	v1,0x51eb
9d004b08:	3463851f 	ori	v1,v1,0x851f
9d004b0c:	00430019 	multu	v0,v1
9d004b10:	00008010 	mfhi	s0
9d004b14:	00108142 	srl	s0,s0,0x5
9d004b18:	3c02bf80 	lui	v0,0xbf80
9d004b1c:	ac503020 	sw	s0,12320(v0)
void set_direction(int dir) {
  current_direction = dir;
}

int get_direction() {
  return current_direction;
9d004b20:	8f848044 	lw	a0,-32700(gp)
    }
    case TRACK: {
      int sensed_current = get_ADC_milliamps();
      current_PI_controller(sensed_current, demanded_current);
      OC1RS = ((PR3 + 1) * (get_duty_cycle())) / 100;
      LATDbits.LATD10 = get_direction();
9d004b24:	3c02bf88 	lui	v0,0xbf88
9d004b28:	944360e0 	lhu	v1,24800(v0)
9d004b2c:	7c835284 	ins	v1,a0,0xa,0x1
9d004b30:	a44360e0 	sh	v1,24800(v0)
    }
    default: {
      break;
    }
  }
  IFS0bits.T2IF = 0;        // clear interrupt flag
9d004b34:	3c02bf88 	lui	v0,0xbf88
9d004b38:	8c431030 	lw	v1,4144(v0)
9d004b3c:	7c034204 	ins	v1,zero,0x8,0x1
9d004b40:	ac431030 	sw	v1,4144(v0)
}
9d004b44:	8fa20064 	lw	v0,100(sp)
9d004b48:	00400013 	mtlo	v0
9d004b4c:	8fa30060 	lw	v1,96(sp)
9d004b50:	00600011 	mthi	v1
9d004b54:	8fbf005c 	lw	ra,92(sp)
9d004b58:	8fb90058 	lw	t9,88(sp)
9d004b5c:	8fb80054 	lw	t8,84(sp)
9d004b60:	8fb00050 	lw	s0,80(sp)
9d004b64:	8faf004c 	lw	t7,76(sp)
9d004b68:	8fae0048 	lw	t6,72(sp)
9d004b6c:	8fad0044 	lw	t5,68(sp)
9d004b70:	8fac0040 	lw	t4,64(sp)
9d004b74:	8fab003c 	lw	t3,60(sp)
9d004b78:	8faa0038 	lw	t2,56(sp)
9d004b7c:	8fa90034 	lw	t1,52(sp)
9d004b80:	8fa80030 	lw	t0,48(sp)
9d004b84:	8fa7002c 	lw	a3,44(sp)
9d004b88:	8fa60028 	lw	a2,40(sp)
9d004b8c:	8fa50024 	lw	a1,36(sp)
9d004b90:	8fa40020 	lw	a0,32(sp)
9d004b94:	8fa3001c 	lw	v1,28(sp)
9d004b98:	8fa20018 	lw	v0,24(sp)
9d004b9c:	8fa10014 	lw	at,20(sp)
9d004ba0:	41606000 	di
9d004ba4:	000000c0 	ehb
9d004ba8:	8fba0074 	lw	k0,116(sp)
9d004bac:	8fbb0070 	lw	k1,112(sp)
9d004bb0:	409a7000 	mtc0	k0,c0_epc
9d004bb4:	8fba006c 	lw	k0,108(sp)
9d004bb8:	27bd0078 	addiu	sp,sp,120
9d004bbc:	409a6002 	mtc0	k0,c0_srsctl
9d004bc0:	41dde800 	wrpgpr	sp,sp
9d004bc4:	409b6000 	mtc0	k1,c0_status
9d004bc8:	42000018 	eret

9d004bcc <test_finished>:
  float u = Kp * e + Ki * eint;
  set_duty_cycle(u);
}

int test_finished() {
  return test_is_finished;
9d004bcc:	8f828030 	lw	v0,-32720(gp)
}
9d004bd0:	03e00008 	jr	ra
9d004bd4:	00000000 	nop

9d004bd8 <get_sensor_array>:

int get_sensor_array(int index) {
  return sensor_array[index];
9d004bd8:	00042080 	sll	a0,a0,0x2
9d004bdc:	3c02a000 	lui	v0,0xa000
9d004be0:	244242ec 	addiu	v0,v0,17132
9d004be4:	00822021 	addu	a0,a0,v0
9d004be8:	8c820000 	lw	v0,0(a0)
}
9d004bec:	03e00008 	jr	ra
9d004bf0:	00000000 	nop

9d004bf4 <get_reference_array>:

int get_reference_array(int index) {
  return reference_array[index];
9d004bf4:	00042080 	sll	a0,a0,0x2
9d004bf8:	3c02a000 	lui	v0,0xa000
9d004bfc:	2442447c 	addiu	v0,v0,17532
9d004c00:	00822021 	addu	a0,a0,v0
9d004c04:	8c820000 	lw	v0,0(a0)
}
9d004c08:	03e00008 	jr	ra
9d004c0c:	00000000 	nop

9d004c10 <start_test>:

void start_test() {
9d004c10:	27bdffe8 	addiu	sp,sp,-24
9d004c14:	afbf0014 	sw	ra,20(sp)
  test_is_finished = 0;
9d004c18:	af808030 	sw	zero,-32720(gp)
  set_mode(ITEST);
9d004c1c:	0f403120 	jal	9d00c480 <set_mode>
9d004c20:	24040002 	li	a0,2
}
9d004c24:	8fbf0014 	lw	ra,20(sp)
9d004c28:	03e00008 	jr	ra
9d004c2c:	27bd0018 	addiu	sp,sp,24

Disassembly of section .dinit:

9d004c30 <.dinit>:
9d004c30:	a00042ec 	sb	zero,17132(zero)
9d004c34:	00000320 	0x320
9d004c38:	00000000 	nop
9d004c3c:	a0000000 	sb	zero,0(zero)
9d004c40:	00000008 	jr	zero
9d004c44:	00000001 	movf	zero,zero,$fcc0
9d004c48:	42c80000 	c0	0xc80000
9d004c4c:	000000c8 	0xc8
9d004c50:	a000001c 	sb	zero,28(zero)
9d004c54:	00000020 	add	zero,zero,zero
9d004c58:	00000000 	nop
9d004c5c:	a000005c 	sb	zero,92(zero)
9d004c60:	00003e80 	sll	a3,zero,0x1a
9d004c64:	00000000 	nop
9d004c68:	a0000008 	sb	zero,8(zero)
9d004c6c:	0000000c 	syscall
9d004c70:	00000001 	movf	zero,zero,$fcc0
9d004c74:	00000001 	movf	zero,zero,$fcc0
9d004c78:	00000001 	movf	zero,zero,$fcc0
9d004c7c:	43960000 	c0	0x1960000
9d004c80:	a000003c 	sb	zero,60(zero)
9d004c84:	00000018 	mult	zero,zero
9d004c88:	00000000 	nop
9d004c8c:	a0000054 	sb	zero,84(zero)
9d004c90:	00000004 	sllv	zero,zero,zero
9d004c94:	00000000 	nop
9d004c98:	a000460c 	sb	zero,17932(zero)
9d004c9c:	000000d4 	0xd4
9d004ca0:	00000001 	movf	zero,zero,$fcc0
9d004ca4:	a0004670 	sb	zero,18032(zero)
9d004ca8:	a000468c 	sb	zero,18060(zero)
9d004cac:	a00046a8 	sb	zero,18088(zero)
9d004cb0:	a000466c 	sb	zero,18028(zero)
9d004cb4:	a00046e0 	sb	zero,18144(zero)
9d004cb8:	00000001 	movf	zero,zero,$fcc0
	...
9d004d08:	ffffffff 	sdc3	$31,-1(ra)
9d004d0c:	ffffffff 	sdc3	$31,-1(ra)
9d004d10:	00000000 	nop
9d004d14:	00000040 	ssnop
9d004d18:	00001009 	jalr	v0,zero
9d004d1c:	00000000 	nop
9d004d20:	9d00c4d0 	0x9d00c4d0
9d004d24:	ffffffff 	sdc3	$31,-1(ra)
	...
9d004d34:	00011002 	srl	v0,at,0x0
9d004d38:	00000000 	nop
9d004d3c:	9d00c4d0 	0x9d00c4d0
9d004d40:	ffffffff 	sdc3	$31,-1(ra)
	...
9d004d50:	00020002 	srl	zero,v0,0x0
9d004d54:	00000000 	nop
9d004d58:	9d00c4d0 	0x9d00c4d0
9d004d5c:	fffffffd 	sdc3	$31,-3(ra)
	...
9d004d78:	a00046e0 	sb	zero,18144(zero)
9d004d7c:	00000088 	0x88
9d004d80:	00000000 	nop
9d004d84:	a0000014 	sb	zero,20(zero)
9d004d88:	00000004 	sllv	zero,zero,zero
9d004d8c:	00000001 	movf	zero,zero,$fcc0
9d004d90:	a000460c 	sb	zero,17932(zero)
9d004d94:	a00047e0 	sb	zero,18400(zero)
9d004d98:	00000004 	sllv	zero,zero,zero
9d004d9c:	00000000 	nop
9d004da0:	a0003edc 	sb	zero,16092(zero)
9d004da4:	00000410 	0x410
9d004da8:	00000001 	movf	zero,zero,$fcc0
9d004dac:	ffffffff 	sdc3	$31,-1(ra)
9d004db0:	00002000 	sll	a0,zero,0x0
	...
9d004dbc:	a0003ee4 	sb	zero,16100(zero)
9d004dc0:	a0003ee4 	sb	zero,16100(zero)
9d004dc4:	a0003eec 	sb	zero,16108(zero)
9d004dc8:	a0003eec 	sb	zero,16108(zero)
9d004dcc:	a0003ef4 	sb	zero,16116(zero)
9d004dd0:	a0003ef4 	sb	zero,16116(zero)
9d004dd4:	a0003efc 	sb	zero,16124(zero)
9d004dd8:	a0003efc 	sb	zero,16124(zero)
9d004ddc:	a0003f04 	sb	zero,16132(zero)
9d004de0:	a0003f04 	sb	zero,16132(zero)
9d004de4:	a0003f0c 	sb	zero,16140(zero)
9d004de8:	a0003f0c 	sb	zero,16140(zero)
9d004dec:	a0003f14 	sb	zero,16148(zero)
9d004df0:	a0003f14 	sb	zero,16148(zero)
9d004df4:	a0003f1c 	sb	zero,16156(zero)
9d004df8:	a0003f1c 	sb	zero,16156(zero)
9d004dfc:	a0003f24 	sb	zero,16164(zero)
9d004e00:	a0003f24 	sb	zero,16164(zero)
9d004e04:	a0003f2c 	sb	zero,16172(zero)
9d004e08:	a0003f2c 	sb	zero,16172(zero)
9d004e0c:	a0003f34 	sb	zero,16180(zero)
9d004e10:	a0003f34 	sb	zero,16180(zero)
9d004e14:	a0003f3c 	sb	zero,16188(zero)
9d004e18:	a0003f3c 	sb	zero,16188(zero)
9d004e1c:	a0003f44 	sb	zero,16196(zero)
9d004e20:	a0003f44 	sb	zero,16196(zero)
9d004e24:	a0003f4c 	sb	zero,16204(zero)
9d004e28:	a0003f4c 	sb	zero,16204(zero)
9d004e2c:	a0003f54 	sb	zero,16212(zero)
9d004e30:	a0003f54 	sb	zero,16212(zero)
9d004e34:	a0003f5c 	sb	zero,16220(zero)
9d004e38:	a0003f5c 	sb	zero,16220(zero)
9d004e3c:	a0003f64 	sb	zero,16228(zero)
9d004e40:	a0003f64 	sb	zero,16228(zero)
9d004e44:	a0003f6c 	sb	zero,16236(zero)
9d004e48:	a0003f6c 	sb	zero,16236(zero)
9d004e4c:	a0003f74 	sb	zero,16244(zero)
9d004e50:	a0003f74 	sb	zero,16244(zero)
9d004e54:	a0003f7c 	sb	zero,16252(zero)
9d004e58:	a0003f7c 	sb	zero,16252(zero)
9d004e5c:	a0003f84 	sb	zero,16260(zero)
9d004e60:	a0003f84 	sb	zero,16260(zero)
9d004e64:	a0003f8c 	sb	zero,16268(zero)
9d004e68:	a0003f8c 	sb	zero,16268(zero)
9d004e6c:	a0003f94 	sb	zero,16276(zero)
9d004e70:	a0003f94 	sb	zero,16276(zero)
9d004e74:	a0003f9c 	sb	zero,16284(zero)
9d004e78:	a0003f9c 	sb	zero,16284(zero)
9d004e7c:	a0003fa4 	sb	zero,16292(zero)
9d004e80:	a0003fa4 	sb	zero,16292(zero)
9d004e84:	a0003fac 	sb	zero,16300(zero)
9d004e88:	a0003fac 	sb	zero,16300(zero)
9d004e8c:	a0003fb4 	sb	zero,16308(zero)
9d004e90:	a0003fb4 	sb	zero,16308(zero)
9d004e94:	a0003fbc 	sb	zero,16316(zero)
9d004e98:	a0003fbc 	sb	zero,16316(zero)
9d004e9c:	a0003fc4 	sb	zero,16324(zero)
9d004ea0:	a0003fc4 	sb	zero,16324(zero)
9d004ea4:	a0003fcc 	sb	zero,16332(zero)
9d004ea8:	a0003fcc 	sb	zero,16332(zero)
9d004eac:	a0003fd4 	sb	zero,16340(zero)
9d004eb0:	a0003fd4 	sb	zero,16340(zero)
9d004eb4:	a0003fdc 	sb	zero,16348(zero)
9d004eb8:	a0003fdc 	sb	zero,16348(zero)
9d004ebc:	a0003fe4 	sb	zero,16356(zero)
9d004ec0:	a0003fe4 	sb	zero,16356(zero)
9d004ec4:	a0003fec 	sb	zero,16364(zero)
9d004ec8:	a0003fec 	sb	zero,16364(zero)
9d004ecc:	a0003ff4 	sb	zero,16372(zero)
9d004ed0:	a0003ff4 	sb	zero,16372(zero)
9d004ed4:	a0003ffc 	sb	zero,16380(zero)
9d004ed8:	a0003ffc 	sb	zero,16380(zero)
9d004edc:	a0004004 	sb	zero,16388(zero)
9d004ee0:	a0004004 	sb	zero,16388(zero)
9d004ee4:	a000400c 	sb	zero,16396(zero)
9d004ee8:	a000400c 	sb	zero,16396(zero)
9d004eec:	a0004014 	sb	zero,16404(zero)
9d004ef0:	a0004014 	sb	zero,16404(zero)
9d004ef4:	a000401c 	sb	zero,16412(zero)
9d004ef8:	a000401c 	sb	zero,16412(zero)
9d004efc:	a0004024 	sb	zero,16420(zero)
9d004f00:	a0004024 	sb	zero,16420(zero)
9d004f04:	a000402c 	sb	zero,16428(zero)
9d004f08:	a000402c 	sb	zero,16428(zero)
9d004f0c:	a0004034 	sb	zero,16436(zero)
9d004f10:	a0004034 	sb	zero,16436(zero)
9d004f14:	a000403c 	sb	zero,16444(zero)
9d004f18:	a000403c 	sb	zero,16444(zero)
9d004f1c:	a0004044 	sb	zero,16452(zero)
9d004f20:	a0004044 	sb	zero,16452(zero)
9d004f24:	a000404c 	sb	zero,16460(zero)
9d004f28:	a000404c 	sb	zero,16460(zero)
9d004f2c:	a0004054 	sb	zero,16468(zero)
9d004f30:	a0004054 	sb	zero,16468(zero)
9d004f34:	a000405c 	sb	zero,16476(zero)
9d004f38:	a000405c 	sb	zero,16476(zero)
9d004f3c:	a0004064 	sb	zero,16484(zero)
9d004f40:	a0004064 	sb	zero,16484(zero)
9d004f44:	a000406c 	sb	zero,16492(zero)
9d004f48:	a000406c 	sb	zero,16492(zero)
9d004f4c:	a0004074 	sb	zero,16500(zero)
9d004f50:	a0004074 	sb	zero,16500(zero)
9d004f54:	a000407c 	sb	zero,16508(zero)
9d004f58:	a000407c 	sb	zero,16508(zero)
9d004f5c:	a0004084 	sb	zero,16516(zero)
9d004f60:	a0004084 	sb	zero,16516(zero)
9d004f64:	a000408c 	sb	zero,16524(zero)
9d004f68:	a000408c 	sb	zero,16524(zero)
9d004f6c:	a0004094 	sb	zero,16532(zero)
9d004f70:	a0004094 	sb	zero,16532(zero)
9d004f74:	a000409c 	sb	zero,16540(zero)
9d004f78:	a000409c 	sb	zero,16540(zero)
9d004f7c:	a00040a4 	sb	zero,16548(zero)
9d004f80:	a00040a4 	sb	zero,16548(zero)
9d004f84:	a00040ac 	sb	zero,16556(zero)
9d004f88:	a00040ac 	sb	zero,16556(zero)
9d004f8c:	a00040b4 	sb	zero,16564(zero)
9d004f90:	a00040b4 	sb	zero,16564(zero)
9d004f94:	a00040bc 	sb	zero,16572(zero)
9d004f98:	a00040bc 	sb	zero,16572(zero)
9d004f9c:	a00040c4 	sb	zero,16580(zero)
9d004fa0:	a00040c4 	sb	zero,16580(zero)
9d004fa4:	a00040cc 	sb	zero,16588(zero)
9d004fa8:	a00040cc 	sb	zero,16588(zero)
9d004fac:	a00040d4 	sb	zero,16596(zero)
9d004fb0:	a00040d4 	sb	zero,16596(zero)
9d004fb4:	a00040dc 	sb	zero,16604(zero)
9d004fb8:	a00040dc 	sb	zero,16604(zero)
9d004fbc:	a00040e4 	sb	zero,16612(zero)
9d004fc0:	a00040e4 	sb	zero,16612(zero)
9d004fc4:	a00040ec 	sb	zero,16620(zero)
9d004fc8:	a00040ec 	sb	zero,16620(zero)
9d004fcc:	a00040f4 	sb	zero,16628(zero)
9d004fd0:	a00040f4 	sb	zero,16628(zero)
9d004fd4:	a00040fc 	sb	zero,16636(zero)
9d004fd8:	a00040fc 	sb	zero,16636(zero)
9d004fdc:	a0004104 	sb	zero,16644(zero)
9d004fe0:	a0004104 	sb	zero,16644(zero)
9d004fe4:	a000410c 	sb	zero,16652(zero)
9d004fe8:	a000410c 	sb	zero,16652(zero)
9d004fec:	a0004114 	sb	zero,16660(zero)
9d004ff0:	a0004114 	sb	zero,16660(zero)
9d004ff4:	a000411c 	sb	zero,16668(zero)
9d004ff8:	a000411c 	sb	zero,16668(zero)
9d004ffc:	a0004124 	sb	zero,16676(zero)
9d005000:	a0004124 	sb	zero,16676(zero)
9d005004:	a000412c 	sb	zero,16684(zero)
9d005008:	a000412c 	sb	zero,16684(zero)
9d00500c:	a0004134 	sb	zero,16692(zero)
9d005010:	a0004134 	sb	zero,16692(zero)
9d005014:	a000413c 	sb	zero,16700(zero)
9d005018:	a000413c 	sb	zero,16700(zero)
9d00501c:	a0004144 	sb	zero,16708(zero)
9d005020:	a0004144 	sb	zero,16708(zero)
9d005024:	a000414c 	sb	zero,16716(zero)
9d005028:	a000414c 	sb	zero,16716(zero)
9d00502c:	a0004154 	sb	zero,16724(zero)
9d005030:	a0004154 	sb	zero,16724(zero)
9d005034:	a000415c 	sb	zero,16732(zero)
9d005038:	a000415c 	sb	zero,16732(zero)
9d00503c:	a0004164 	sb	zero,16740(zero)
9d005040:	a0004164 	sb	zero,16740(zero)
9d005044:	a000416c 	sb	zero,16748(zero)
9d005048:	a000416c 	sb	zero,16748(zero)
9d00504c:	a0004174 	sb	zero,16756(zero)
9d005050:	a0004174 	sb	zero,16756(zero)
9d005054:	a000417c 	sb	zero,16764(zero)
9d005058:	a000417c 	sb	zero,16764(zero)
9d00505c:	a0004184 	sb	zero,16772(zero)
9d005060:	a0004184 	sb	zero,16772(zero)
9d005064:	a000418c 	sb	zero,16780(zero)
9d005068:	a000418c 	sb	zero,16780(zero)
9d00506c:	a0004194 	sb	zero,16788(zero)
9d005070:	a0004194 	sb	zero,16788(zero)
9d005074:	a000419c 	sb	zero,16796(zero)
9d005078:	a000419c 	sb	zero,16796(zero)
9d00507c:	a00041a4 	sb	zero,16804(zero)
9d005080:	a00041a4 	sb	zero,16804(zero)
9d005084:	a00041ac 	sb	zero,16812(zero)
9d005088:	a00041ac 	sb	zero,16812(zero)
9d00508c:	a00041b4 	sb	zero,16820(zero)
9d005090:	a00041b4 	sb	zero,16820(zero)
9d005094:	a00041bc 	sb	zero,16828(zero)
9d005098:	a00041bc 	sb	zero,16828(zero)
9d00509c:	a00041c4 	sb	zero,16836(zero)
9d0050a0:	a00041c4 	sb	zero,16836(zero)
9d0050a4:	a00041cc 	sb	zero,16844(zero)
9d0050a8:	a00041cc 	sb	zero,16844(zero)
9d0050ac:	a00041d4 	sb	zero,16852(zero)
9d0050b0:	a00041d4 	sb	zero,16852(zero)
9d0050b4:	a00041dc 	sb	zero,16860(zero)
9d0050b8:	a00041dc 	sb	zero,16860(zero)
9d0050bc:	a00041e4 	sb	zero,16868(zero)
9d0050c0:	a00041e4 	sb	zero,16868(zero)
9d0050c4:	a00041ec 	sb	zero,16876(zero)
9d0050c8:	a00041ec 	sb	zero,16876(zero)
9d0050cc:	a00041f4 	sb	zero,16884(zero)
9d0050d0:	a00041f4 	sb	zero,16884(zero)
9d0050d4:	a00041fc 	sb	zero,16892(zero)
9d0050d8:	a00041fc 	sb	zero,16892(zero)
9d0050dc:	a0004204 	sb	zero,16900(zero)
9d0050e0:	a0004204 	sb	zero,16900(zero)
9d0050e4:	a000420c 	sb	zero,16908(zero)
9d0050e8:	a000420c 	sb	zero,16908(zero)
9d0050ec:	a0004214 	sb	zero,16916(zero)
9d0050f0:	a0004214 	sb	zero,16916(zero)
9d0050f4:	a000421c 	sb	zero,16924(zero)
9d0050f8:	a000421c 	sb	zero,16924(zero)
9d0050fc:	a0004224 	sb	zero,16932(zero)
9d005100:	a0004224 	sb	zero,16932(zero)
9d005104:	a000422c 	sb	zero,16940(zero)
9d005108:	a000422c 	sb	zero,16940(zero)
9d00510c:	a0004234 	sb	zero,16948(zero)
9d005110:	a0004234 	sb	zero,16948(zero)
9d005114:	a000423c 	sb	zero,16956(zero)
9d005118:	a000423c 	sb	zero,16956(zero)
9d00511c:	a0004244 	sb	zero,16964(zero)
9d005120:	a0004244 	sb	zero,16964(zero)
9d005124:	a000424c 	sb	zero,16972(zero)
9d005128:	a000424c 	sb	zero,16972(zero)
9d00512c:	a0004254 	sb	zero,16980(zero)
9d005130:	a0004254 	sb	zero,16980(zero)
9d005134:	a000425c 	sb	zero,16988(zero)
9d005138:	a000425c 	sb	zero,16988(zero)
9d00513c:	a0004264 	sb	zero,16996(zero)
9d005140:	a0004264 	sb	zero,16996(zero)
9d005144:	a000426c 	sb	zero,17004(zero)
9d005148:	a000426c 	sb	zero,17004(zero)
9d00514c:	a0004274 	sb	zero,17012(zero)
9d005150:	a0004274 	sb	zero,17012(zero)
9d005154:	a000427c 	sb	zero,17020(zero)
9d005158:	a000427c 	sb	zero,17020(zero)
9d00515c:	a0004284 	sb	zero,17028(zero)
9d005160:	a0004284 	sb	zero,17028(zero)
9d005164:	a000428c 	sb	zero,17036(zero)
9d005168:	a000428c 	sb	zero,17036(zero)
9d00516c:	a0004294 	sb	zero,17044(zero)
9d005170:	a0004294 	sb	zero,17044(zero)
9d005174:	a000429c 	sb	zero,17052(zero)
9d005178:	a000429c 	sb	zero,17052(zero)
9d00517c:	a00042a4 	sb	zero,17060(zero)
9d005180:	a00042a4 	sb	zero,17060(zero)
9d005184:	a00042ac 	sb	zero,17068(zero)
9d005188:	a00042ac 	sb	zero,17068(zero)
9d00518c:	a00042b4 	sb	zero,17076(zero)
9d005190:	a00042b4 	sb	zero,17076(zero)
9d005194:	a00042bc 	sb	zero,17084(zero)
9d005198:	a00042bc 	sb	zero,17084(zero)
9d00519c:	a00042c4 	sb	zero,17092(zero)
9d0051a0:	a00042c4 	sb	zero,17092(zero)
9d0051a4:	a00042cc 	sb	zero,17100(zero)
9d0051a8:	a00042cc 	sb	zero,17100(zero)
9d0051ac:	a00042d4 	sb	zero,17108(zero)
9d0051b0:	a00042d4 	sb	zero,17108(zero)
9d0051b4:	a00042dc 	sb	zero,17116(zero)
9d0051b8:	a00042dc 	sb	zero,17116(zero)
9d0051bc:	a0004768 	sb	zero,18280(zero)
9d0051c0:	00000034 	teq	zero,zero
9d0051c4:	00000000 	nop
9d0051c8:	a0000058 	sb	zero,88(zero)
9d0051cc:	00000004 	sllv	zero,zero,zero
9d0051d0:	00000000 	nop
9d0051d4:	a00047c0 	sb	zero,18368(zero)
9d0051d8:	00000020 	add	zero,zero,zero
9d0051dc:	00000001 	movf	zero,zero,$fcc0
9d0051e0:	00000000 	nop
9d0051e4:	ffffffff 	sdc3	$31,-1(ra)
	...
9d005200:	a00047e4 	sb	zero,18404(zero)
9d005204:	00000004 	sllv	zero,zero,zero
9d005208:	00000000 	nop
9d00520c:	a000479c 	sb	zero,18332(zero)
9d005210:	00000024 	and	zero,zero,zero
9d005214:	00000000 	nop
9d005218:	a0000018 	sb	zero,24(zero)
9d00521c:	00000004 	sllv	zero,zero,zero
9d005220:	00000001 	movf	zero,zero,$fcc0
9d005224:	00000002 	srl	zero,zero,0x0
9d005228:	00000000 	nop
9d00522c:	22222222 	addi	v0,s1,8738

Disassembly of section .text.realloc:

9d005230 <realloc>:
9d005230:	27bdffc8 	addiu	sp,sp,-56
9d005234:	afbf0034 	sw	ra,52(sp)
9d005238:	afbe0030 	sw	s8,48(sp)
9d00523c:	afb7002c 	sw	s7,44(sp)
9d005240:	afb60028 	sw	s6,40(sp)
9d005244:	afb50024 	sw	s5,36(sp)
9d005248:	afb40020 	sw	s4,32(sp)
9d00524c:	afb3001c 	sw	s3,28(sp)
9d005250:	afb20018 	sw	s2,24(sp)
9d005254:	afb10014 	sw	s1,20(sp)
9d005258:	afb00010 	sw	s0,16(sp)
9d00525c:	108000e9 	beqz	a0,9d005604 <realloc+0x3d4>
9d005260:	00808021 	move	s0,a0
9d005264:	8c94fffc 	lw	s4,-4(a0)
9d005268:	24a2000b 	addiu	v0,a1,11
9d00526c:	2c430017 	sltiu	v1,v0,23
9d005270:	2493fff8 	addiu	s3,a0,-8
9d005274:	2411fffc 	li	s1,-4
9d005278:	10600047 	beqz	v1,9d005398 <realloc+0x168>
9d00527c:	02918824 	and	s1,s4,s1
9d005280:	24030010 	li	v1,16
9d005284:	24120010 	li	s2,16
9d005288:	0245102b 	sltu	v0,s2,a1
9d00528c:	14400046 	bnez	v0,9d0053a8 <realloc+0x178>
9d005290:	0223102a 	slt	v0,s1,v1
9d005294:	10400054 	beqz	v0,9d0053e8 <realloc+0x1b8>
9d005298:	32950001 	andi	s5,s4,0x1
9d00529c:	3c17a000 	lui	s7,0xa000
9d0052a0:	26f73ee4 	addiu	s7,s7,16100
9d0052a4:	8ee40008 	lw	a0,8(s7)
9d0052a8:	02711021 	addu	v0,s3,s1
9d0052ac:	108200b9 	beq	a0,v0,9d005594 <realloc+0x364>
9d0052b0:	2407fffe 	li	a3,-2
9d0052b4:	8c460004 	lw	a2,4(v0)
9d0052b8:	00c73824 	and	a3,a2,a3
9d0052bc:	00473821 	addu	a3,v0,a3
9d0052c0:	8ce70004 	lw	a3,4(a3)
9d0052c4:	30e70001 	andi	a3,a3,0x1
9d0052c8:	10e0005f 	beqz	a3,9d005448 <realloc+0x218>
9d0052cc:	2407fffc 	li	a3,-4
9d0052d0:	00003021 	move	a2,zero
9d0052d4:	00001021 	move	v0,zero
9d0052d8:	32950001 	andi	s5,s4,0x1
9d0052dc:	16a00075 	bnez	s5,9d0054b4 <realloc+0x284>
9d0052e0:	2407fffc 	li	a3,-4
9d0052e4:	8e16fff8 	lw	s6,-8(s0)
9d0052e8:	0276b023 	subu	s6,s3,s6
9d0052ec:	8ec80004 	lw	t0,4(s6)
9d0052f0:	104000cd 	beqz	v0,9d005628 <realloc+0x3f8>
9d0052f4:	01073824 	and	a3,t0,a3
9d0052f8:	104400cd 	beq	v0,a0,9d005630 <realloc+0x400>
9d0052fc:	00f13821 	addu	a3,a3,s1
9d005300:	00c7b821 	addu	s7,a2,a3
9d005304:	02e3202a 	slt	a0,s7,v1
9d005308:	54800090 	bnezl	a0,9d00554c <realloc+0x31c>
9d00530c:	00e0b821 	move	s7,a3
9d005310:	8c43000c 	lw	v1,12(v0)
9d005314:	8c420008 	lw	v0,8(v0)
9d005318:	2626fffc 	addiu	a2,s1,-4
9d00531c:	2cc40025 	sltiu	a0,a2,37
9d005320:	ac43000c 	sw	v1,12(v0)
9d005324:	ac620008 	sw	v0,8(v1)
9d005328:	8ec2000c 	lw	v0,12(s6)
9d00532c:	8ec30008 	lw	v1,8(s6)
9d005330:	26d40008 	addiu	s4,s6,8
9d005334:	ac62000c 	sw	v0,12(v1)
9d005338:	1080008e 	beqz	a0,9d005574 <realloc+0x344>
9d00533c:	ac430008 	sw	v1,8(v0)
9d005340:	2cc20014 	sltiu	v0,a2,20
9d005344:	14400009 	bnez	v0,9d00536c <realloc+0x13c>
9d005348:	02801821 	move	v1,s4
9d00534c:	8e030000 	lw	v1,0(s0)
9d005350:	2cc2001c 	sltiu	v0,a2,28
9d005354:	aec30008 	sw	v1,8(s6)
9d005358:	8e030004 	lw	v1,4(s0)
9d00535c:	104000ed 	beqz	v0,9d005714 <realloc+0x4e4>
9d005360:	aec3000c 	sw	v1,12(s6)
9d005364:	26c30010 	addiu	v1,s6,16
9d005368:	26100008 	addiu	s0,s0,8
9d00536c:	8e020000 	lw	v0,0(s0)
9d005370:	02e08821 	move	s1,s7
9d005374:	ac620000 	sw	v0,0(v1)
9d005378:	8e020004 	lw	v0,4(s0)
9d00537c:	02c09821 	move	s3,s6
9d005380:	ac620004 	sw	v0,4(v1)
9d005384:	8e020008 	lw	v0,8(s0)
9d005388:	ac620008 	sw	v0,8(v1)
9d00538c:	8ed50004 	lw	s5,4(s6)
9d005390:	0b4014fb 	j	9d0053ec <realloc+0x1bc>
9d005394:	32b50001 	andi	s5,s5,0x1
9d005398:	2412fff8 	li	s2,-8
9d00539c:	00529024 	and	s2,v0,s2
9d0053a0:	0641ffb9 	bgez	s2,9d005288 <realloc+0x58>
9d0053a4:	02401821 	move	v1,s2
9d0053a8:	2403000c 	li	v1,12
9d0053ac:	3c02a000 	lui	v0,0xa000
9d0053b0:	ac430058 	sw	v1,88(v0)
9d0053b4:	00001021 	move	v0,zero
9d0053b8:	8fbf0034 	lw	ra,52(sp)
9d0053bc:	8fbe0030 	lw	s8,48(sp)
9d0053c0:	8fb7002c 	lw	s7,44(sp)
9d0053c4:	8fb60028 	lw	s6,40(sp)
9d0053c8:	8fb50024 	lw	s5,36(sp)
9d0053cc:	8fb40020 	lw	s4,32(sp)
9d0053d0:	8fb3001c 	lw	s3,28(sp)
9d0053d4:	8fb20018 	lw	s2,24(sp)
9d0053d8:	8fb10014 	lw	s1,20(sp)
9d0053dc:	8fb00010 	lw	s0,16(sp)
9d0053e0:	03e00008 	jr	ra
9d0053e4:	27bd0038 	addiu	sp,sp,56
9d0053e8:	0200a021 	move	s4,s0
9d0053ec:	02321823 	subu	v1,s1,s2
9d0053f0:	2c650010 	sltiu	a1,v1,16
9d0053f4:	10a00023 	beqz	a1,9d005484 <realloc+0x254>
9d0053f8:	02722021 	addu	a0,s3,s2
9d0053fc:	02b1a825 	or	s5,s5,s1
9d005400:	ae750004 	sw	s5,4(s3)
9d005404:	02718821 	addu	s1,s3,s1
9d005408:	8e220004 	lw	v0,4(s1)
9d00540c:	34420001 	ori	v0,v0,0x1
9d005410:	ae220004 	sw	v0,4(s1)
9d005414:	02801021 	move	v0,s4
9d005418:	8fbf0034 	lw	ra,52(sp)
9d00541c:	8fbe0030 	lw	s8,48(sp)
9d005420:	8fb7002c 	lw	s7,44(sp)
9d005424:	8fb60028 	lw	s6,40(sp)
9d005428:	8fb50024 	lw	s5,36(sp)
9d00542c:	8fb40020 	lw	s4,32(sp)
9d005430:	8fb3001c 	lw	s3,28(sp)
9d005434:	8fb20018 	lw	s2,24(sp)
9d005438:	8fb10014 	lw	s1,20(sp)
9d00543c:	8fb00010 	lw	s0,16(sp)
9d005440:	03e00008 	jr	ra
9d005444:	27bd0038 	addiu	sp,sp,56
9d005448:	00c73024 	and	a2,a2,a3
9d00544c:	00d13821 	addu	a3,a2,s1
9d005450:	00e3402a 	slt	t0,a3,v1
9d005454:	1500ffa1 	bnez	t0,9d0052dc <realloc+0xac>
9d005458:	32950001 	andi	s5,s4,0x1
9d00545c:	8c43000c 	lw	v1,12(v0)
9d005460:	8c420008 	lw	v0,8(v0)
9d005464:	ac43000c 	sw	v1,12(v0)
9d005468:	00e08821 	move	s1,a3
9d00546c:	ac620008 	sw	v0,8(v1)
9d005470:	02321823 	subu	v1,s1,s2
9d005474:	2c650010 	sltiu	a1,v1,16
9d005478:	14a0ffe0 	bnez	a1,9d0053fc <realloc+0x1cc>
9d00547c:	0200a021 	move	s4,s0
9d005480:	02722021 	addu	a0,s3,s2
9d005484:	02b29025 	or	s2,s5,s2
9d005488:	34620001 	ori	v0,v1,0x1
9d00548c:	ae720004 	sw	s2,4(s3)
9d005490:	00831821 	addu	v1,a0,v1
9d005494:	ac820004 	sw	v0,4(a0)
9d005498:	8c620004 	lw	v0,4(v1)
9d00549c:	24840008 	addiu	a0,a0,8
9d0054a0:	34420001 	ori	v0,v0,0x1
9d0054a4:	0f402418 	jal	9d009060 <free>
9d0054a8:	ac620004 	sw	v0,4(v1)
9d0054ac:	0b401506 	j	9d005418 <realloc+0x1e8>
9d0054b0:	02801021 	move	v0,s4
9d0054b4:	0f400d37 	jal	9d0034dc <malloc>
9d0054b8:	00a02021 	move	a0,a1
9d0054bc:	104000b0 	beqz	v0,9d005780 <realloc+0x550>
9d0054c0:	0040b021 	move	s6,v0
9d0054c4:	2402fffe 	li	v0,-2
9d0054c8:	0282a024 	and	s4,s4,v0
9d0054cc:	26c2fff8 	addiu	v0,s6,-8
9d0054d0:	0274a021 	addu	s4,s3,s4
9d0054d4:	10540089 	beq	v0,s4,9d0056fc <realloc+0x4cc>
9d0054d8:	2626fffc 	addiu	a2,s1,-4
9d0054dc:	2cc20025 	sltiu	v0,a2,37
9d0054e0:	1040004c 	beqz	v0,9d005614 <realloc+0x3e4>
9d0054e4:	2cc20014 	sltiu	v0,a2,20
9d0054e8:	50400034 	beqzl	v0,9d0055bc <realloc+0x38c>
9d0054ec:	8e040000 	lw	a0,0(s0)
9d0054f0:	02c01021 	move	v0,s6
9d0054f4:	02001821 	move	v1,s0
9d0054f8:	8c650000 	lw	a1,0(v1)
9d0054fc:	8c640004 	lw	a0,4(v1)
9d005500:	8c630008 	lw	v1,8(v1)
9d005504:	ac450000 	sw	a1,0(v0)
9d005508:	ac440004 	sw	a0,4(v0)
9d00550c:	ac430008 	sw	v1,8(v0)
9d005510:	0f402418 	jal	9d009060 <free>
9d005514:	02002021 	move	a0,s0
9d005518:	02c01021 	move	v0,s6
9d00551c:	8fbf0034 	lw	ra,52(sp)
9d005520:	8fbe0030 	lw	s8,48(sp)
9d005524:	8fb7002c 	lw	s7,44(sp)
9d005528:	8fb60028 	lw	s6,40(sp)
9d00552c:	8fb50024 	lw	s5,36(sp)
9d005530:	8fb40020 	lw	s4,32(sp)
9d005534:	8fb3001c 	lw	s3,28(sp)
9d005538:	8fb20018 	lw	s2,24(sp)
9d00553c:	8fb10014 	lw	s1,20(sp)
9d005540:	8fb00010 	lw	s0,16(sp)
9d005544:	03e00008 	jr	ra
9d005548:	27bd0038 	addiu	sp,sp,56
9d00554c:	02e3182a 	slt	v1,s7,v1
9d005550:	1460ffd8 	bnez	v1,9d0054b4 <realloc+0x284>
9d005554:	2626fffc 	addiu	a2,s1,-4
9d005558:	8ec2000c 	lw	v0,12(s6)
9d00555c:	8ec30008 	lw	v1,8(s6)
9d005560:	2cc40025 	sltiu	a0,a2,37
9d005564:	ac62000c 	sw	v0,12(v1)
9d005568:	26d40008 	addiu	s4,s6,8
9d00556c:	1480ff74 	bnez	a0,9d005340 <realloc+0x110>
9d005570:	ac430008 	sw	v1,8(v0)
9d005574:	02802021 	move	a0,s4
9d005578:	0f402efe 	jal	9d00bbf8 <memmove>
9d00557c:	02002821 	move	a1,s0
9d005580:	8ed50004 	lw	s5,4(s6)
9d005584:	02e08821 	move	s1,s7
9d005588:	32b50001 	andi	s5,s5,0x1
9d00558c:	0b4014fb 	j	9d0053ec <realloc+0x1bc>
9d005590:	02c09821 	move	s3,s6
9d005594:	8c860004 	lw	a2,4(a0)
9d005598:	26470010 	addiu	a3,s2,16
9d00559c:	2402fffc 	li	v0,-4
9d0055a0:	00c23024 	and	a2,a2,v0
9d0055a4:	00d11021 	addu	v0,a2,s1
9d0055a8:	0047382a 	slt	a3,v0,a3
9d0055ac:	50e0000b 	beqzl	a3,9d0055dc <realloc+0x3ac>
9d0055b0:	00521023 	subu	v0,v0,s2
9d0055b4:	0b4014b6 	j	9d0052d8 <realloc+0xa8>
9d0055b8:	00801021 	move	v0,a0
9d0055bc:	8e030004 	lw	v1,4(s0)
9d0055c0:	2cc2001c 	sltiu	v0,a2,28
9d0055c4:	aec40000 	sw	a0,0(s6)
9d0055c8:	10400042 	beqz	v0,9d0056d4 <realloc+0x4a4>
9d0055cc:	aec30004 	sw	v1,4(s6)
9d0055d0:	26c20008 	addiu	v0,s6,8
9d0055d4:	0b40153e 	j	9d0054f8 <realloc+0x2c8>
9d0055d8:	26030008 	addiu	v1,s0,8
9d0055dc:	02729821 	addu	s3,s3,s2
9d0055e0:	34420001 	ori	v0,v0,0x1
9d0055e4:	aef30008 	sw	s3,8(s7)
9d0055e8:	ae620004 	sw	v0,4(s3)
9d0055ec:	8e03fffc 	lw	v1,-4(s0)
9d0055f0:	02001021 	move	v0,s0
9d0055f4:	30630001 	andi	v1,v1,0x1
9d0055f8:	02439025 	or	s2,s2,v1
9d0055fc:	0b401506 	j	9d005418 <realloc+0x1e8>
9d005600:	ae12fffc 	sw	s2,-4(s0)
9d005604:	0f400d37 	jal	9d0034dc <malloc>
9d005608:	00a02021 	move	a0,a1
9d00560c:	0b401507 	j	9d00541c <realloc+0x1ec>
9d005610:	8fbf0034 	lw	ra,52(sp)
9d005614:	02c02021 	move	a0,s6
9d005618:	0f402efe 	jal	9d00bbf8 <memmove>
9d00561c:	02002821 	move	a1,s0
9d005620:	0b401544 	j	9d005510 <realloc+0x2e0>
9d005624:	00000000 	nop
9d005628:	0b401553 	j	9d00554c <realloc+0x31c>
9d00562c:	00f1b821 	addu	s7,a3,s1
9d005630:	00c7f021 	addu	s8,a2,a3
9d005634:	26420010 	addiu	v0,s2,16
9d005638:	03c2102a 	slt	v0,s8,v0
9d00563c:	5440ffc3 	bnezl	v0,9d00554c <realloc+0x31c>
9d005640:	00e0b821 	move	s7,a3
9d005644:	8ec3000c 	lw	v1,12(s6)
9d005648:	8ec50008 	lw	a1,8(s6)
9d00564c:	2626fffc 	addiu	a2,s1,-4
9d005650:	2cc20025 	sltiu	v0,a2,37
9d005654:	aca3000c 	sw	v1,12(a1)
9d005658:	26c70008 	addiu	a3,s6,8
9d00565c:	10400043 	beqz	v0,9d00576c <realloc+0x53c>
9d005660:	ac650008 	sw	a1,8(v1)
9d005664:	2cc20014 	sltiu	v0,a2,20
9d005668:	14400009 	bnez	v0,9d005690 <realloc+0x460>
9d00566c:	00e01821 	move	v1,a3
9d005670:	8e030000 	lw	v1,0(s0)
9d005674:	2cc2001c 	sltiu	v0,a2,28
9d005678:	aec30008 	sw	v1,8(s6)
9d00567c:	8e030004 	lw	v1,4(s0)
9d005680:	10400041 	beqz	v0,9d005788 <realloc+0x558>
9d005684:	aec3000c 	sw	v1,12(s6)
9d005688:	26c30010 	addiu	v1,s6,16
9d00568c:	26100008 	addiu	s0,s0,8
9d005690:	8e020000 	lw	v0,0(s0)
9d005694:	ac620000 	sw	v0,0(v1)
9d005698:	8e020004 	lw	v0,4(s0)
9d00569c:	ac620004 	sw	v0,4(v1)
9d0056a0:	8e020008 	lw	v0,8(s0)
9d0056a4:	ac620008 	sw	v0,8(v1)
9d0056a8:	03d21023 	subu	v0,s8,s2
9d0056ac:	02d21821 	addu	v1,s6,s2
9d0056b0:	34420001 	ori	v0,v0,0x1
9d0056b4:	aee30008 	sw	v1,8(s7)
9d0056b8:	ac620004 	sw	v0,4(v1)
9d0056bc:	8ec30004 	lw	v1,4(s6)
9d0056c0:	00e01021 	move	v0,a3
9d0056c4:	30630001 	andi	v1,v1,0x1
9d0056c8:	02439025 	or	s2,s2,v1
9d0056cc:	0b401506 	j	9d005418 <realloc+0x1e8>
9d0056d0:	aed20004 	sw	s2,4(s6)
9d0056d4:	8e030008 	lw	v1,8(s0)
9d0056d8:	8e02000c 	lw	v0,12(s0)
9d0056dc:	aec30008 	sw	v1,8(s6)
9d0056e0:	aec2000c 	sw	v0,12(s6)
9d0056e4:	24020024 	li	v0,36
9d0056e8:	50c20014 	beql	a2,v0,9d00573c <realloc+0x50c>
9d0056ec:	8e030010 	lw	v1,16(s0)
9d0056f0:	26c20010 	addiu	v0,s6,16
9d0056f4:	0b40153e 	j	9d0054f8 <realloc+0x2c8>
9d0056f8:	26030010 	addiu	v1,s0,16
9d0056fc:	8ec3fffc 	lw	v1,-4(s6)
9d005700:	0200a021 	move	s4,s0
9d005704:	2402fffc 	li	v0,-4
9d005708:	00621024 	and	v0,v1,v0
9d00570c:	0b4014fb 	j	9d0053ec <realloc+0x1bc>
9d005710:	02228821 	addu	s1,s1,v0
9d005714:	8e020008 	lw	v0,8(s0)
9d005718:	aec20010 	sw	v0,16(s6)
9d00571c:	8e02000c 	lw	v0,12(s0)
9d005720:	aec20014 	sw	v0,20(s6)
9d005724:	24020024 	li	v0,36
9d005728:	50c2000a 	beql	a2,v0,9d005754 <realloc+0x524>
9d00572c:	8e020010 	lw	v0,16(s0)
9d005730:	26c30018 	addiu	v1,s6,24
9d005734:	0b4014db 	j	9d00536c <realloc+0x13c>
9d005738:	26100010 	addiu	s0,s0,16
9d00573c:	8e040014 	lw	a0,20(s0)
9d005740:	26c20018 	addiu	v0,s6,24
9d005744:	aec30010 	sw	v1,16(s6)
9d005748:	26030018 	addiu	v1,s0,24
9d00574c:	0b40153e 	j	9d0054f8 <realloc+0x2c8>
9d005750:	aec40014 	sw	a0,20(s6)
9d005754:	26c30020 	addiu	v1,s6,32
9d005758:	aec20018 	sw	v0,24(s6)
9d00575c:	8e020014 	lw	v0,20(s0)
9d005760:	26100018 	addiu	s0,s0,24
9d005764:	0b4014db 	j	9d00536c <realloc+0x13c>
9d005768:	aec2001c 	sw	v0,28(s6)
9d00576c:	00e02021 	move	a0,a3
9d005770:	0f402efe 	jal	9d00bbf8 <memmove>
9d005774:	02002821 	move	a1,s0
9d005778:	0b4015aa 	j	9d0056a8 <realloc+0x478>
9d00577c:	00403821 	move	a3,v0
9d005780:	0b401506 	j	9d005418 <realloc+0x1e8>
9d005784:	00001021 	move	v0,zero
9d005788:	8e020008 	lw	v0,8(s0)
9d00578c:	aec20010 	sw	v0,16(s6)
9d005790:	8e02000c 	lw	v0,12(s0)
9d005794:	aec20014 	sw	v0,20(s6)
9d005798:	24020024 	li	v0,36
9d00579c:	50c20004 	beql	a2,v0,9d0057b0 <realloc+0x580>
9d0057a0:	8e020010 	lw	v0,16(s0)
9d0057a4:	26c30018 	addiu	v1,s6,24
9d0057a8:	0b4015a4 	j	9d005690 <realloc+0x460>
9d0057ac:	26100010 	addiu	s0,s0,16
9d0057b0:	26c30020 	addiu	v1,s6,32
9d0057b4:	aec20018 	sw	v0,24(s6)
9d0057b8:	8e020014 	lw	v0,20(s0)
9d0057bc:	26100018 	addiu	s0,s0,24
9d0057c0:	0b4015a4 	j	9d005690 <realloc+0x460>
9d0057c4:	aec2001c 	sw	v0,28(s6)

Disassembly of section .text._fconvert:

9d0057c8 <_fconvert>:
9d0057c8:	27bdfda8 	addiu	sp,sp,-600
9d0057cc:	afbf0254 	sw	ra,596(sp)
9d0057d0:	afbe0250 	sw	s8,592(sp)
9d0057d4:	afb7024c 	sw	s7,588(sp)
9d0057d8:	afb60248 	sw	s6,584(sp)
9d0057dc:	afb50244 	sw	s5,580(sp)
9d0057e0:	afb40240 	sw	s4,576(sp)
9d0057e4:	afb3023c 	sw	s3,572(sp)
9d0057e8:	afb20238 	sw	s2,568(sp)
9d0057ec:	afb10234 	sw	s1,564(sp)
9d0057f0:	afb00230 	sw	s0,560(sp)
9d0057f4:	8fb50268 	lw	s5,616(sp)
9d0057f8:	afa40258 	sw	a0,600(sp)
9d0057fc:	00a02021 	move	a0,a1
9d005800:	afa60260 	sw	a2,608(sp)
9d005804:	00e0b821 	move	s7,a3
9d005808:	97a3026c 	lhu	v1,620(sp)
9d00580c:	2402ffff 	li	v0,-1
9d005810:	12a2010c 	beq	s5,v0,9d005c44 <_fconvert+0x47c>
9d005814:	afa30220 	sw	v1,544(sp)
9d005818:	2aa20028 	slti	v0,s5,40
9d00581c:	104000a3 	beqz	v0,9d005aac <_fconvert+0x2e4>
9d005820:	afa00224 	sw	zero,548(sp)
9d005824:	a3a00011 	sb	zero,17(sp)
9d005828:	04810005 	bgez	a0,9d005840 <_fconvert+0x78>
9d00582c:	afa00228 	sw	zero,552(sp)
9d005830:	3c028000 	lui	v0,0x8000
9d005834:	00442026 	xor	a0,v0,a0
9d005838:	2403002d 	li	v1,45
9d00583c:	afa30228 	sw	v1,552(sp)
9d005840:	0f402c41 	jal	9d00b104 <.LFE0>
9d005844:	27a5021c 	addiu	a1,sp,540
9d005848:	0040b021 	move	s6,v0
9d00584c:	8fbe021c 	lw	s8,540(sp)
9d005850:	00002821 	move	a1,zero
9d005854:	0f402d50 	jal	9d00b540 <__eqsf2>
9d005858:	03c02021 	move	a0,s8
9d00585c:	10400119 	beqz	v0,9d005cc4 <_fconvert+0x4fc>
9d005860:	3c029d01 	lui	v0,0x9d01
9d005864:	3c109d01 	lui	s0,0x9d01
9d005868:	8e12be8c 	lw	s2,-16756(s0)
9d00586c:	8c54be90 	lw	s4,-16752(v0)
9d005870:	00008821 	move	s1,zero
9d005874:	27b00210 	addiu	s0,sp,528
9d005878:	02409821 	move	s3,s2
9d00587c:	03c02021 	move	a0,s8
9d005880:	0f402696 	jal	9d009a58 <__divsf3>
9d005884:	02402821 	move	a1,s2
9d005888:	00402021 	move	a0,v0
9d00588c:	0f402c41 	jal	9d00b104 <.LFE0>
9d005890:	27a5021c 	addiu	a1,sp,540
9d005894:	00402021 	move	a0,v0
9d005898:	02802821 	move	a1,s4
9d00589c:	0f4025fa 	jal	9d0097e8 <__addsf3>
9d0058a0:	afa20218 	sw	v0,536(sp)
9d0058a4:	00402021 	move	a0,v0
9d0058a8:	0f402793 	jal	9d009e4c <.LFE4>
9d0058ac:	02602821 	move	a1,s3
9d0058b0:	0f402e10 	jal	9d00b840 <__fixsfsi>
9d0058b4:	00402021 	move	a0,v0
9d0058b8:	8fbe021c 	lw	s8,540(sp)
9d0058bc:	2610ffff 	addiu	s0,s0,-1
9d0058c0:	24420030 	addiu	v0,v0,48
9d0058c4:	03c02021 	move	a0,s8
9d0058c8:	00002821 	move	a1,zero
9d0058cc:	a2020001 	sb	v0,1(s0)
9d0058d0:	0f402d50 	jal	9d00b540 <__eqsf2>
9d0058d4:	26310001 	addiu	s1,s1,1
9d0058d8:	1440ffe9 	bnez	v0,9d005880 <_fconvert+0xb8>
9d0058dc:	03c02021 	move	a0,s8
9d0058e0:	24020066 	li	v0,102
9d0058e4:	8fa30260 	lw	v1,608(sp)
9d0058e8:	14620038 	bne	v1,v0,9d0059cc <_fconvert+0x204>
9d0058ec:	00009821 	move	s3,zero
9d0058f0:	12200077 	beqz	s1,9d005ad0 <_fconvert+0x308>
9d0058f4:	24020030 	li	v0,48
9d0058f8:	26020001 	addiu	v0,s0,1
9d0058fc:	27a50211 	addiu	a1,sp,529
9d005900:	0045182b 	sltu	v1,v0,a1
9d005904:	106000fd 	beqz	v1,9d005cfc <_fconvert+0x534>
9d005908:	27b20012 	addiu	s2,sp,18
9d00590c:	02401821 	move	v1,s2
9d005910:	80440000 	lb	a0,0(v0)
9d005914:	24630001 	addiu	v1,v1,1
9d005918:	24420001 	addiu	v0,v0,1
9d00591c:	1445fffc 	bne	v0,a1,9d005910 <_fconvert+0x148>
9d005920:	a064ffff 	sb	a0,-1(v1)
9d005924:	03b08023 	subu	s0,sp,s0
9d005928:	26100210 	addiu	s0,s0,528
9d00592c:	02508021 	addu	s0,s2,s0
9d005930:	12a0006c 	beqz	s5,9d005ae4 <_fconvert+0x31c>
9d005934:	8fa30220 	lw	v1,544(sp)
9d005938:	02c02021 	move	a0,s6
9d00593c:	00002821 	move	a1,zero
9d005940:	26130001 	addiu	s3,s0,1
9d005944:	2402002e 	li	v0,46
9d005948:	0f402d50 	jal	9d00b540 <__eqsf2>
9d00594c:	a2020000 	sb	v0,0(s0)
9d005950:	104000b4 	beqz	v0,9d005c24 <_fconvert+0x45c>
9d005954:	26a3ffff 	addiu	v1,s5,-1
9d005958:	3c109d01 	lui	s0,0x9d01
9d00595c:	0b40165d 	j	9d005974 <_fconvert+0x1ac>
9d005960:	8e11be8c 	lw	s1,-16756(s0)
9d005964:	0f402d50 	jal	9d00b540 <__eqsf2>
9d005968:	00000000 	nop
9d00596c:	104000ad 	beqz	v0,9d005c24 <_fconvert+0x45c>
9d005970:	26a3ffff 	addiu	v1,s5,-1
9d005974:	02c02021 	move	a0,s6
9d005978:	0f402793 	jal	9d009e4c <.LFE4>
9d00597c:	02202821 	move	a1,s1
9d005980:	00402021 	move	a0,v0
9d005984:	0f402c41 	jal	9d00b104 <.LFE0>
9d005988:	27a50218 	addiu	a1,sp,536
9d00598c:	0040b021 	move	s6,v0
9d005990:	8fa40218 	lw	a0,536(sp)
9d005994:	26730001 	addiu	s3,s3,1
9d005998:	0f402e10 	jal	9d00b840 <__fixsfsi>
9d00599c:	26b5ffff 	addiu	s5,s5,-1
9d0059a0:	02c02021 	move	a0,s6
9d0059a4:	00002821 	move	a1,zero
9d0059a8:	24420030 	addiu	v0,v0,48
9d0059ac:	16a0ffed 	bnez	s5,9d005964 <_fconvert+0x19c>
9d0059b0:	a262ffff 	sb	v0,-1(s3)
9d0059b4:	02c02021 	move	a0,s6
9d0059b8:	0f402d50 	jal	9d00b540 <__eqsf2>
9d0059bc:	00002821 	move	a1,zero
9d0059c0:	54400051 	bnezl	v0,9d005b08 <_fconvert+0x340>
9d0059c4:	8e05be8c 	lw	a1,-16756(s0)
9d0059c8:	02729823 	subu	s3,s3,s2
9d0059cc:	83a40011 	lb	a0,17(sp)
9d0059d0:	27a20011 	addiu	v0,sp,17
9d0059d4:	27a30012 	addiu	v1,sp,18
9d0059d8:	0064100a 	movz	v0,v1,a0
9d0059dc:	8fa30228 	lw	v1,552(sp)
9d0059e0:	1060002a 	beqz	v1,9d005a8c <_fconvert+0x2c4>
9d0059e4:	8fa40220 	lw	a0,544(sp)
9d0059e8:	2452ffff 	addiu	s2,v0,-1
9d0059ec:	a043ffff 	sb	v1,-1(v0)
9d0059f0:	26730001 	addiu	s3,s3,1
9d0059f4:	8fa30220 	lw	v1,544(sp)
9d0059f8:	30710008 	andi	s1,v1,0x8
9d0059fc:	3231ffff 	andi	s1,s1,0xffff
9d005a00:	8fa30224 	lw	v1,548(sp)
9d005a04:	16200004 	bnez	s1,9d005a18 <_fconvert+0x250>
9d005a08:	02638021 	addu	s0,s3,v1
9d005a0c:	0217102a 	slt	v0,s0,s7
9d005a10:	1440005a 	bnez	v0,9d005b7c <_fconvert+0x3b4>
9d005a14:	8fa30220 	lw	v1,544(sp)
9d005a18:	02402021 	move	a0,s2
9d005a1c:	02602821 	move	a1,s3
9d005a20:	0f402ee4 	jal	9d00bb90 <__sputn>
9d005a24:	8fa60258 	lw	a2,600(sp)
9d005a28:	2412ffff 	li	s2,-1
9d005a2c:	10520008 	beq	v0,s2,9d005a50 <_fconvert+0x288>
9d005a30:	8fa30224 	lw	v1,548(sp)
9d005a34:	14600071 	bnez	v1,9d005bfc <_fconvert+0x434>
9d005a38:	8fa40258 	lw	a0,600(sp)
9d005a3c:	12200005 	beqz	s1,9d005a54 <_fconvert+0x28c>
9d005a40:	0217102a 	slt	v0,s0,s7
9d005a44:	0217102a 	slt	v0,s0,s7
9d005a48:	14400081 	bnez	v0,9d005c50 <_fconvert+0x488>
9d005a4c:	8fa40258 	lw	a0,600(sp)
9d005a50:	0217102a 	slt	v0,s0,s7
9d005a54:	0202b80a 	movz	s7,s0,v0
9d005a58:	02e01021 	move	v0,s7
9d005a5c:	8fbf0254 	lw	ra,596(sp)
9d005a60:	8fbe0250 	lw	s8,592(sp)
9d005a64:	8fb7024c 	lw	s7,588(sp)
9d005a68:	8fb60248 	lw	s6,584(sp)
9d005a6c:	8fb50244 	lw	s5,580(sp)
9d005a70:	8fb40240 	lw	s4,576(sp)
9d005a74:	8fb3023c 	lw	s3,572(sp)
9d005a78:	8fb20238 	lw	s2,568(sp)
9d005a7c:	8fb10234 	lw	s1,564(sp)
9d005a80:	8fb00230 	lw	s0,560(sp)
9d005a84:	03e00008 	jr	ra
9d005a88:	27bd0258 	addiu	sp,sp,600
9d005a8c:	30830002 	andi	v1,a0,0x2
9d005a90:	10600052 	beqz	v1,9d005bdc <_fconvert+0x414>
9d005a94:	8fa40220 	lw	a0,544(sp)
9d005a98:	2452ffff 	addiu	s2,v0,-1
9d005a9c:	2403002b 	li	v1,43
9d005aa0:	a043ffff 	sb	v1,-1(v0)
9d005aa4:	0b40167d 	j	9d0059f4 <_fconvert+0x22c>
9d005aa8:	26730001 	addiu	s3,s3,1
9d005aac:	2403ffdf 	li	v1,-33
9d005ab0:	00c31824 	and	v1,a2,v1
9d005ab4:	24020047 	li	v0,71
9d005ab8:	1062007d 	beq	v1,v0,9d005cb0 <_fconvert+0x4e8>
9d005abc:	8fa30220 	lw	v1,544(sp)
9d005ac0:	26b5ffd9 	addiu	s5,s5,-39
9d005ac4:	afb50224 	sw	s5,548(sp)
9d005ac8:	0b401609 	j	9d005824 <_fconvert+0x5c>
9d005acc:	24150027 	li	s5,39
9d005ad0:	a3a20012 	sb	v0,18(sp)
9d005ad4:	27b00013 	addiu	s0,sp,19
9d005ad8:	16a0ff97 	bnez	s5,9d005938 <_fconvert+0x170>
9d005adc:	27b20012 	addiu	s2,sp,18
9d005ae0:	8fa30220 	lw	v1,544(sp)
9d005ae4:	30620800 	andi	v0,v1,0x800
9d005ae8:	14400079 	bnez	v0,9d005cd0 <_fconvert+0x508>
9d005aec:	02c02021 	move	a0,s6
9d005af0:	0f402d50 	jal	9d00b540 <__eqsf2>
9d005af4:	00002821 	move	a1,zero
9d005af8:	1040ffb3 	beqz	v0,9d0059c8 <_fconvert+0x200>
9d005afc:	02009821 	move	s3,s0
9d005b00:	3c109d01 	lui	s0,0x9d01
9d005b04:	8e05be8c 	lw	a1,-16756(s0)
9d005b08:	02c02021 	move	a0,s6
9d005b0c:	0f402793 	jal	9d009e4c <.LFE4>
9d005b10:	2670ffff 	addiu	s0,s3,-1
9d005b14:	00402021 	move	a0,v0
9d005b18:	0f402c41 	jal	9d00b104 <.LFE0>
9d005b1c:	27a50214 	addiu	a1,sp,532
9d005b20:	3c029d01 	lui	v0,0x9d01
9d005b24:	8c44be94 	lw	a0,-16748(v0)
9d005b28:	0f402d50 	jal	9d00b540 <__eqsf2>
9d005b2c:	8fa50214 	lw	a1,532(sp)
9d005b30:	2404002e 	li	a0,46
9d005b34:	0440000b 	bltz	v0,9d005b64 <_fconvert+0x39c>
9d005b38:	24050030 	li	a1,48
9d005b3c:	0b401673 	j	9d0059cc <_fconvert+0x204>
9d005b40:	02729823 	subu	s3,s3,s2
9d005b44:	24420001 	addiu	v0,v0,1
9d005b48:	7c021420 	seb	v0,v0
9d005b4c:	2843003a 	slti	v1,v0,58
9d005b50:	54600068 	bnezl	v1,9d005cf4 <_fconvert+0x52c>
9d005b54:	a2020000 	sb	v0,0(s0)
9d005b58:	1212006a 	beq	s0,s2,9d005d04 <_fconvert+0x53c>
9d005b5c:	a2050000 	sb	a1,0(s0)
9d005b60:	2610ffff 	addiu	s0,s0,-1
9d005b64:	82020000 	lb	v0,0(s0)
9d005b68:	5444fff7 	bnel	v0,a0,9d005b48 <_fconvert+0x380>
9d005b6c:	24420001 	addiu	v0,v0,1
9d005b70:	8202ffff 	lb	v0,-1(s0)
9d005b74:	0b4016d1 	j	9d005b44 <_fconvert+0x37c>
9d005b78:	2610ffff 	addiu	s0,s0,-1
9d005b7c:	30620004 	andi	v0,v1,0x4
9d005b80:	8fa40258 	lw	a0,600(sp)
9d005b84:	14400045 	bnez	v0,9d005c9c <_fconvert+0x4d4>
9d005b88:	02f02823 	subu	a1,s7,s0
9d005b8c:	3c069d01 	lui	a2,0x9d01
9d005b90:	0f402d77 	jal	9d00b5dc <repl>
9d005b94:	24c6be6c 	addiu	a2,a2,-16788
9d005b98:	2403ffff 	li	v1,-1
9d005b9c:	1443ff9e 	bne	v0,v1,9d005a18 <_fconvert+0x250>
9d005ba0:	0217102a 	slt	v0,s0,s7
9d005ba4:	0202b80a 	movz	s7,s0,v0
9d005ba8:	02e01021 	move	v0,s7
9d005bac:	8fbf0254 	lw	ra,596(sp)
9d005bb0:	8fbe0250 	lw	s8,592(sp)
9d005bb4:	8fb7024c 	lw	s7,588(sp)
9d005bb8:	8fb60248 	lw	s6,584(sp)
9d005bbc:	8fb50244 	lw	s5,580(sp)
9d005bc0:	8fb40240 	lw	s4,576(sp)
9d005bc4:	8fb3023c 	lw	s3,572(sp)
9d005bc8:	8fb20238 	lw	s2,568(sp)
9d005bcc:	8fb10234 	lw	s1,564(sp)
9d005bd0:	8fb00230 	lw	s0,560(sp)
9d005bd4:	03e00008 	jr	ra
9d005bd8:	27bd0258 	addiu	sp,sp,600
9d005bdc:	30830001 	andi	v1,a0,0x1
9d005be0:	1060ff84 	beqz	v1,9d0059f4 <_fconvert+0x22c>
9d005be4:	00409021 	move	s2,v0
9d005be8:	2452ffff 	addiu	s2,v0,-1
9d005bec:	24030020 	li	v1,32
9d005bf0:	a043ffff 	sb	v1,-1(v0)
9d005bf4:	0b40167d 	j	9d0059f4 <_fconvert+0x22c>
9d005bf8:	26730001 	addiu	s3,s3,1
9d005bfc:	8fa50224 	lw	a1,548(sp)
9d005c00:	3c069d01 	lui	a2,0x9d01
9d005c04:	0f402d77 	jal	9d00b5dc <repl>
9d005c08:	24c6be4c 	addiu	a2,a2,-16820
9d005c0c:	1052ff91 	beq	v0,s2,9d005a54 <_fconvert+0x28c>
9d005c10:	0217102a 	slt	v0,s0,s7
9d005c14:	5620ff8c 	bnezl	s1,9d005a48 <_fconvert+0x280>
9d005c18:	0217102a 	slt	v0,s0,s7
9d005c1c:	0b401696 	j	9d005a58 <_fconvert+0x290>
9d005c20:	0202b80a 	movz	s7,s0,v0
9d005c24:	24630001 	addiu	v1,v1,1
9d005c28:	02631821 	addu	v1,s3,v1
9d005c2c:	24020030 	li	v0,48
9d005c30:	26730001 	addiu	s3,s3,1
9d005c34:	1663fffe 	bne	s3,v1,9d005c30 <_fconvert+0x468>
9d005c38:	a262ffff 	sb	v0,-1(s3)
9d005c3c:	0b401673 	j	9d0059cc <_fconvert+0x204>
9d005c40:	02729823 	subu	s3,s3,s2
9d005c44:	afa00224 	sw	zero,548(sp)
9d005c48:	0b401609 	j	9d005824 <_fconvert+0x5c>
9d005c4c:	24150006 	li	s5,6
9d005c50:	02f02823 	subu	a1,s7,s0
9d005c54:	3c069d01 	lui	a2,0x9d01
9d005c58:	0f402d77 	jal	9d00b5dc <repl>
9d005c5c:	24c6be6c 	addiu	a2,a2,-16788
9d005c60:	0217102a 	slt	v0,s0,s7
9d005c64:	0202b80a 	movz	s7,s0,v0
9d005c68:	02e01021 	move	v0,s7
9d005c6c:	8fbf0254 	lw	ra,596(sp)
9d005c70:	8fbe0250 	lw	s8,592(sp)
9d005c74:	8fb7024c 	lw	s7,588(sp)
9d005c78:	8fb60248 	lw	s6,584(sp)
9d005c7c:	8fb50244 	lw	s5,580(sp)
9d005c80:	8fb40240 	lw	s4,576(sp)
9d005c84:	8fb3023c 	lw	s3,572(sp)
9d005c88:	8fb20238 	lw	s2,568(sp)
9d005c8c:	8fb10234 	lw	s1,564(sp)
9d005c90:	8fb00230 	lw	s0,560(sp)
9d005c94:	03e00008 	jr	ra
9d005c98:	27bd0258 	addiu	sp,sp,600
9d005c9c:	3c069d01 	lui	a2,0x9d01
9d005ca0:	0f402d77 	jal	9d00b5dc <repl>
9d005ca4:	24c6be4c 	addiu	a2,a2,-16820
9d005ca8:	0b4016e7 	j	9d005b9c <_fconvert+0x3d4>
9d005cac:	2403ffff 	li	v1,-1
9d005cb0:	30620800 	andi	v0,v1,0x800
9d005cb4:	5440ff83 	bnezl	v0,9d005ac4 <_fconvert+0x2fc>
9d005cb8:	26b5ffd9 	addiu	s5,s5,-39
9d005cbc:	0b401609 	j	9d005824 <_fconvert+0x5c>
9d005cc0:	24150027 	li	s5,39
9d005cc4:	00008821 	move	s1,zero
9d005cc8:	0b401638 	j	9d0058e0 <_fconvert+0x118>
9d005ccc:	27b00210 	addiu	s0,sp,528
9d005cd0:	00002821 	move	a1,zero
9d005cd4:	26130001 	addiu	s3,s0,1
9d005cd8:	2402002e 	li	v0,46
9d005cdc:	0f402d50 	jal	9d00b540 <__eqsf2>
9d005ce0:	a2020000 	sb	v0,0(s0)
9d005ce4:	5440ff87 	bnezl	v0,9d005b04 <_fconvert+0x33c>
9d005ce8:	3c109d01 	lui	s0,0x9d01
9d005cec:	0b401673 	j	9d0059cc <_fconvert+0x204>
9d005cf0:	02729823 	subu	s3,s3,s2
9d005cf4:	0b401673 	j	9d0059cc <_fconvert+0x204>
9d005cf8:	02729823 	subu	s3,s3,s2
9d005cfc:	0b40164c 	j	9d005930 <_fconvert+0x168>
9d005d00:	02408021 	move	s0,s2
9d005d04:	24020031 	li	v0,49
9d005d08:	a3a20011 	sb	v0,17(sp)
9d005d0c:	27b20011 	addiu	s2,sp,17
9d005d10:	0b401673 	j	9d0059cc <_fconvert+0x204>
9d005d14:	02729823 	subu	s3,s3,s2

Disassembly of section .text:

9d005d18 <positioncontrol_init>:
static volatile float desired_trajectory[TRAJECTORY_SIZE];
static volatile float actual_trajectory[TRAJECTORY_SIZE];

void positioncontrol_init() {
  /* Initialize Timer 4 Interrupt */
  PR4 = 49999;          // 200 Hz interrupt
9d005d18:	3403c34f 	li	v1,0xc34f
9d005d1c:	3c02bf80 	lui	v0,0xbf80
9d005d20:	ac430c20 	sw	v1,3104(v0)
  TMR4 = 0;
9d005d24:	3c02bf80 	lui	v0,0xbf80
9d005d28:	ac400c10 	sw	zero,3088(v0)
  T4CONbits.TGATE = 0;  // not gated input (default)
9d005d2c:	3c02bf80 	lui	v0,0xbf80
9d005d30:	94430c00 	lhu	v1,3072(v0)
9d005d34:	7c0339c4 	ins	v1,zero,0x7,0x1
9d005d38:	a4430c00 	sh	v1,3072(v0)
  T4CONbits.T32 = 0;    // 16-bit timer
9d005d3c:	94430c00 	lhu	v1,3072(v0)
9d005d40:	7c0318c4 	ins	v1,zero,0x3,0x1
9d005d44:	a4430c00 	sh	v1,3072(v0)
  T4CONbits.TCKPS = 0b011;
9d005d48:	94430c00 	lhu	v1,3072(v0)
9d005d4c:	24040003 	li	a0,3
9d005d50:	7c833104 	ins	v1,a0,0x4,0x3
9d005d54:	a4430c00 	sh	v1,3072(v0)
  T4CONbits.ON = 1;     // turn on Timer 4
9d005d58:	94430c00 	lhu	v1,3072(v0)
9d005d5c:	24040001 	li	a0,1
9d005d60:	7c837bc4 	ins	v1,a0,0xf,0x1
9d005d64:	a4430c00 	sh	v1,3072(v0)
  IPC4bits.T4IP = 5;    // set interrupt priority
9d005d68:	3c02bf88 	lui	v0,0xbf88
9d005d6c:	8c4310d0 	lw	v1,4304(v0)
9d005d70:	24050005 	li	a1,5
9d005d74:	7ca32084 	ins	v1,a1,0x2,0x3
9d005d78:	ac4310d0 	sw	v1,4304(v0)
  IPC4bits.T4IS = 0;    // set interrupt subpriority
9d005d7c:	8c4310d0 	lw	v1,4304(v0)
9d005d80:	7c030804 	ins	v1,zero,0x0,0x2
9d005d84:	ac4310d0 	sw	v1,4304(v0)
  IFS0bits.T4IF = 0;    // clear interrupt flag
9d005d88:	3c02bf88 	lui	v0,0xbf88
9d005d8c:	8c431030 	lw	v1,4144(v0)
9d005d90:	7c038404 	ins	v1,zero,0x10,0x1
9d005d94:	ac431030 	sw	v1,4144(v0)
  IEC0bits.T4IE = 1;    // enable interrupt
9d005d98:	3c02bf88 	lui	v0,0xbf88
9d005d9c:	8c431060 	lw	v1,4192(v0)
9d005da0:	7c838404 	ins	v1,a0,0x10,0x1
9d005da4:	ac431060 	sw	v1,4192(v0)
9d005da8:	03e00008 	jr	ra
9d005dac:	00000000 	nop

9d005db0 <set_position_gains>:
}

void set_position_gains(float kp, float ki, float kd) {
9d005db0:	27bdfff8 	addiu	sp,sp,-8
9d005db4:	afbf0004 	sw	ra,4(sp)
  __builtin_disable_interrupts();
9d005db8:	41626000 	di	v0
9d005dbc:	000000c0 	ehb
  Kp = kp;
9d005dc0:	af848060 	sw	a0,-32672(gp)
  Ki = ki;
9d005dc4:	af85805c 	sw	a1,-32676(gp)
  Kd = kd;
9d005dc8:	af868058 	sw	a2,-32680(gp)
  __builtin_enable_interrupts();
9d005dcc:	41626020 	ei	v0
}
9d005dd0:	8fbf0004 	lw	ra,4(sp)
9d005dd4:	03e00008 	jr	ra
9d005dd8:	27bd0008 	addiu	sp,sp,8

9d005ddc <get_position_gains>:

void get_position_gains(float *kp, float *ki, float *kd) {
  *kp = Kp;
9d005ddc:	8f828060 	lw	v0,-32672(gp)
9d005de0:	ac820000 	sw	v0,0(a0)
  *ki = Ki;
9d005de4:	8f82805c 	lw	v0,-32676(gp)
9d005de8:	aca20000 	sw	v0,0(a1)
  *kd = Kd;
9d005dec:	8f828058 	lw	v0,-32680(gp)
9d005df0:	03e00008 	jr	ra
9d005df4:	acc20000 	sw	v0,0(a2)

9d005df8 <set_desired_angle>:
}

void set_desired_angle(float angle) {
  desired_angle = angle;
9d005df8:	af84804c 	sw	a0,-32692(gp)
9d005dfc:	03e00008 	jr	ra
9d005e00:	00000000 	nop

9d005e04 <get_desired_angle>:
}

float get_desired_angle() {
  return desired_angle;
9d005e04:	8f82804c 	lw	v0,-32692(gp)
}
9d005e08:	03e00008 	jr	ra
9d005e0c:	00000000 	nop

9d005e10 <PID_controller>:

void PID_controller(int sensor_val, float reference_val) {
9d005e10:	27bdffd0 	addiu	sp,sp,-48
9d005e14:	afbf002c 	sw	ra,44(sp)
9d005e18:	afb50028 	sw	s5,40(sp)
9d005e1c:	afb40024 	sw	s4,36(sp)
9d005e20:	afb30020 	sw	s3,32(sp)
9d005e24:	afb2001c 	sw	s2,28(sp)
9d005e28:	afb10018 	sw	s1,24(sp)
9d005e2c:	afb00014 	sw	s0,20(sp)
  float e = reference_val - sensor_val;
9d005e30:	0f402f64 	jal	9d00bd90 <__floatsisf>
9d005e34:	00a08021 	move	s0,a1
9d005e38:	02002021 	move	a0,s0
9d005e3c:	0f4025f8 	jal	9d0097e0 <__subsf3>
9d005e40:	00402821 	move	a1,v0
9d005e44:	00408021 	move	s0,v0
  eint = eint + e;
9d005e48:	8f848054 	lw	a0,-32684(gp)
9d005e4c:	0f4025fa 	jal	9d0097e8 <__addsf3>
9d005e50:	00402821 	move	a1,v0
9d005e54:	af828054 	sw	v0,-32684(gp)
  if (eint > eintmax) {
9d005e58:	8f858054 	lw	a1,-32684(gp)
9d005e5c:	8f848020 	lw	a0,-32736(gp)
9d005e60:	0f402d50 	jal	9d00b540 <__eqsf2>
9d005e64:	00000000 	nop
9d005e68:	04410005 	bgez	v0,9d005e80 <PID_controller+0x70>
9d005e6c:	00000000 	nop
    eint = eintmax;
9d005e70:	8f828020 	lw	v0,-32736(gp)
9d005e74:	af828054 	sw	v0,-32684(gp)
9d005e78:	0b4017ab 	j	9d005eac <PID_controller+0x9c>
9d005e7c:	00000000 	nop
  } else if (eint < -eintmax) {
9d005e80:	8f828020 	lw	v0,-32736(gp)
9d005e84:	8f848054 	lw	a0,-32684(gp)
9d005e88:	3c058000 	lui	a1,0x8000
9d005e8c:	0f402d50 	jal	9d00b540 <__eqsf2>
9d005e90:	00a22826 	xor	a1,a1,v0
9d005e94:	04410005 	bgez	v0,9d005eac <PID_controller+0x9c>
9d005e98:	00000000 	nop
    eint = -eintmax;
9d005e9c:	8f838020 	lw	v1,-32736(gp)
9d005ea0:	3c028000 	lui	v0,0x8000
9d005ea4:	00621026 	xor	v0,v1,v0
9d005ea8:	af828054 	sw	v0,-32684(gp)
  }
  float edot = e - eprev;
9d005eac:	8f938050 	lw	s3,-32688(gp)
  float u = Kp * e + Ki * eint + Kd * edot;
9d005eb0:	8f848060 	lw	a0,-32672(gp)
9d005eb4:	8f95805c 	lw	s5,-32676(gp)
9d005eb8:	8f948054 	lw	s4,-32684(gp)
9d005ebc:	8f928058 	lw	s2,-32680(gp)
9d005ec0:	0f402793 	jal	9d009e4c <.LFE4>
9d005ec4:	02002821 	move	a1,s0
9d005ec8:	00408821 	move	s1,v0
9d005ecc:	02a02021 	move	a0,s5
9d005ed0:	0f402793 	jal	9d009e4c <.LFE4>
9d005ed4:	02802821 	move	a1,s4
9d005ed8:	02202021 	move	a0,s1
9d005edc:	0f4025fa 	jal	9d0097e8 <__addsf3>
9d005ee0:	00402821 	move	a1,v0
9d005ee4:	00408821 	move	s1,v0
  if (eint > eintmax) {
    eint = eintmax;
  } else if (eint < -eintmax) {
    eint = -eintmax;
  }
  float edot = e - eprev;
9d005ee8:	02002021 	move	a0,s0
9d005eec:	0f4025f8 	jal	9d0097e0 <__subsf3>
9d005ef0:	02602821 	move	a1,s3
  float u = Kp * e + Ki * eint + Kd * edot;
9d005ef4:	02402021 	move	a0,s2
9d005ef8:	0f402793 	jal	9d009e4c <.LFE4>
9d005efc:	00402821 	move	a1,v0
9d005f00:	02202021 	move	a0,s1
9d005f04:	0f4025fa 	jal	9d0097e8 <__addsf3>
9d005f08:	00402821 	move	a1,v0
  set_demanded_current(u);
9d005f0c:	0f402e10 	jal	9d00b840 <__fixsfsi>
9d005f10:	00402021 	move	a0,v0
9d005f14:	0f4011d4 	jal	9d004750 <set_demanded_current>
9d005f18:	00402021 	move	a0,v0

9d005f1c <.LVL19>:
  eprev = e;
9d005f1c:	af908050 	sw	s0,-32688(gp)
}
9d005f20:	8fbf002c 	lw	ra,44(sp)
9d005f24:	8fb50028 	lw	s5,40(sp)
9d005f28:	8fb40024 	lw	s4,36(sp)
9d005f2c:	8fb30020 	lw	s3,32(sp)
9d005f30:	8fb2001c 	lw	s2,28(sp)
9d005f34:	8fb10018 	lw	s1,24(sp)
9d005f38:	8fb00014 	lw	s0,20(sp)
9d005f3c:	03e00008 	jr	ra
9d005f40:	27bd0030 	addiu	sp,sp,48

9d005f44 <reset_position_eint>:

void reset_position_eint() {
  eint = 0;
9d005f44:	00001021 	move	v0,zero
9d005f48:	af828054 	sw	v0,-32684(gp)
  eprev = 0;
9d005f4c:	af828050 	sw	v0,-32688(gp)
9d005f50:	03e00008 	jr	ra
9d005f54:	00000000 	nop

9d005f58 <start_trajectory_execution>:
}

void start_trajectory_execution() {
9d005f58:	27bdffe8 	addiu	sp,sp,-24
9d005f5c:	afbf0014 	sw	ra,20(sp)
  finished = 0;
9d005f60:	af808018 	sw	zero,-32744(gp)
  reset_position_eint();
9d005f64:	0f4017d1 	jal	9d005f44 <reset_position_eint>
9d005f68:	00000000 	nop

9d005f6c <.LVL22>:
  counter = 1;
9d005f6c:	24020001 	li	v0,1
9d005f70:	af82801c 	sw	v0,-32740(gp)
}
9d005f74:	8fbf0014 	lw	ra,20(sp)
9d005f78:	03e00008 	jr	ra
9d005f7c:	27bd0018 	addiu	sp,sp,24

9d005f80 <trajectory_finished>:

int trajectory_finished() {
  return finished;
9d005f80:	8f828018 	lw	v0,-32744(gp)
}
9d005f84:	03e00008 	jr	ra
9d005f88:	00000000 	nop

9d005f8c <set_desired_trajectory>:

void set_desired_trajectory(int index, float value) {
  desired_trajectory[index] = value;
9d005f8c:	00042080 	sll	a0,a0,0x2
9d005f90:	3c02a000 	lui	v0,0xa000
9d005f94:	24421f9c 	addiu	v0,v0,8092
9d005f98:	00822021 	addu	a0,a0,v0
9d005f9c:	ac850000 	sw	a1,0(a0)
9d005fa0:	03e00008 	jr	ra
9d005fa4:	00000000 	nop

9d005fa8 <get_desired_trajectory>:
}

float get_desired_trajectory(int index) {
  return desired_trajectory[index];
9d005fa8:	00042080 	sll	a0,a0,0x2
9d005fac:	3c02a000 	lui	v0,0xa000
9d005fb0:	24421f9c 	addiu	v0,v0,8092
9d005fb4:	00822021 	addu	a0,a0,v0
9d005fb8:	8c820000 	lw	v0,0(a0)
}
9d005fbc:	03e00008 	jr	ra
9d005fc0:	00000000 	nop

9d005fc4 <set_actual_trajectory>:
void set_actual_trajectory(int index, float value) {
  actual_trajectory[index] = value;
9d005fc4:	00042080 	sll	a0,a0,0x2
9d005fc8:	3c02a000 	lui	v0,0xa000
9d005fcc:	2442005c 	addiu	v0,v0,92
9d005fd0:	00822021 	addu	a0,a0,v0
9d005fd4:	ac850000 	sw	a1,0(a0)
9d005fd8:	03e00008 	jr	ra
9d005fdc:	00000000 	nop

9d005fe0 <get_actual_trajectory>:
}

float get_actual_trajectory(int index) {
  return actual_trajectory[index];
9d005fe0:	00042080 	sll	a0,a0,0x2
9d005fe4:	3c02a000 	lui	v0,0xa000
9d005fe8:	2442005c 	addiu	v0,v0,92
9d005fec:	00822021 	addu	a0,a0,v0
9d005ff0:	8c820000 	lw	v0,0(a0)
}
9d005ff4:	03e00008 	jr	ra
9d005ff8:	00000000 	nop

9d005ffc <position_control_ISR>:


void __ISR(_TIMER_4_VECTOR, IPL5SOFT) position_control_ISR(void) {
9d005ffc:	415de800 	rdpgpr	sp,sp
9d006000:	401a7000 	mfc0	k0,c0_epc
9d006004:	401b6000 	mfc0	k1,c0_status
9d006008:	27bdff80 	addiu	sp,sp,-128
9d00600c:	afba007c 	sw	k0,124(sp)
9d006010:	401a6002 	mfc0	k0,c0_srsctl
9d006014:	afbb0078 	sw	k1,120(sp)
9d006018:	afba0074 	sw	k0,116(sp)
9d00601c:	7c1b7844 	ins	k1,zero,0x1,0xf
9d006020:	377b1400 	ori	k1,k1,0x1400
9d006024:	409b6000 	mtc0	k1,c0_status
9d006028:	afbf0064 	sw	ra,100(sp)
9d00602c:	afb90060 	sw	t9,96(sp)
9d006030:	afb8005c 	sw	t8,92(sp)
9d006034:	afb30058 	sw	s3,88(sp)
9d006038:	afb20054 	sw	s2,84(sp)
9d00603c:	afb10050 	sw	s1,80(sp)
9d006040:	afb0004c 	sw	s0,76(sp)
9d006044:	afaf0048 	sw	t7,72(sp)
9d006048:	afae0044 	sw	t6,68(sp)
9d00604c:	afad0040 	sw	t5,64(sp)
9d006050:	afac003c 	sw	t4,60(sp)
9d006054:	afab0038 	sw	t3,56(sp)
9d006058:	afaa0034 	sw	t2,52(sp)
9d00605c:	afa90030 	sw	t1,48(sp)
9d006060:	afa8002c 	sw	t0,44(sp)
9d006064:	afa70028 	sw	a3,40(sp)
9d006068:	afa60024 	sw	a2,36(sp)
9d00606c:	afa50020 	sw	a1,32(sp)
9d006070:	afa4001c 	sw	a0,28(sp)
9d006074:	afa30018 	sw	v1,24(sp)
9d006078:	afa20014 	sw	v0,20(sp)
9d00607c:	afa10010 	sw	at,16(sp)
9d006080:	00001012 	mflo	v0
9d006084:	afa2006c 	sw	v0,108(sp)
9d006088:	00001810 	mfhi	v1
9d00608c:	afa30068 	sw	v1,104(sp)
  switch(get_mode()) {
9d006090:	0f40311d 	jal	9d00c474 <get_mode>
9d006094:	00000000 	nop

9d006098 <.LVL31>:
9d006098:	24030003 	li	v1,3
9d00609c:	10430005 	beq	v0,v1,9d0060b4 <.LVL31+0x1c>
9d0060a0:	24030004 	li	v1,4
9d0060a4:	1043000f 	beq	v0,v1,9d0060e4 <.LBB2>
9d0060a8:	3c11a000 	lui	s1,0xa000
    }
    default: {
      break;
    }
  }
  IFS0bits.T4IF = 0;        // clear interrupt flag
9d0060ac:	0b401869 	j	9d0061a4 <.LBE2+0x4>
9d0060b0:	3c02bf88 	lui	v0,0xbf88
    case ITEST: {
      break;
    }
    case HOLD: {
      /* Convert desired angle to 1/10th degrees to match encoder_angle() */
      PID_controller(encoder_angle(), (desired_angle * 10));
9d0060b4:	0f402914 	jal	9d00a450 <encoder_angle>
9d0060b8:	00000000 	nop

9d0060bc <.LVL32>:
9d0060bc:	00408021 	move	s0,v0
9d0060c0:	8f84804c 	lw	a0,-32692(gp)
9d0060c4:	3c029d01 	lui	v0,0x9d01
9d0060c8:	0f402793 	jal	9d009e4c <.LFE4>
9d0060cc:	8c45c628 	lw	a1,-14808(v0)
9d0060d0:	02002021 	move	a0,s0
9d0060d4:	0f401784 	jal	9d005e10 <PID_controller>
9d0060d8:	00402821 	move	a1,v0

9d0060dc <.LVL34>:
      break;
9d0060dc:	0b401869 	j	9d0061a4 <.LBE2+0x4>
9d0060e0:	3c02bf88 	lui	v0,0xbf88

9d0060e4 <.LBB2>:
    }
    case TRACK: {
      int n = (int)desired_trajectory[0];
9d0060e4:	8e321f9c 	lw	s2,8092(s1)
      actual_trajectory[counter] = (float)encoder_angle() / 10;
9d0060e8:	8f93801c 	lw	s3,-32740(gp)
9d0060ec:	0f402914 	jal	9d00a450 <encoder_angle>
9d0060f0:	3c109d01 	lui	s0,0x9d01

9d0060f4 <.LVL36>:
9d0060f4:	0f402f64 	jal	9d00bd90 <__floatsisf>
9d0060f8:	00402021 	move	a0,v0
9d0060fc:	00402021 	move	a0,v0
9d006100:	0f402696 	jal	9d009a58 <__divsf3>
9d006104:	8e05c628 	lw	a1,-14808(s0)
9d006108:	00139880 	sll	s3,s3,0x2
9d00610c:	3c03a000 	lui	v1,0xa000
9d006110:	2463005c 	addiu	v1,v1,92
9d006114:	02639821 	addu	s3,s3,v1
9d006118:	ae620000 	sw	v0,0(s3)
      /* Convert desired angle to 1/10th degrees to match encoder_angle() */
      PID_controller(encoder_angle(), (desired_trajectory[counter] * 10));
9d00611c:	0f402914 	jal	9d00a450 <encoder_angle>
9d006120:	00000000 	nop

9d006124 <.LVL39>:
9d006124:	00409821 	move	s3,v0
9d006128:	8f82801c 	lw	v0,-32740(gp)
9d00612c:	00021080 	sll	v0,v0,0x2
9d006130:	26311f9c 	addiu	s1,s1,8092
9d006134:	00518821 	addu	s1,v0,s1
9d006138:	8e240000 	lw	a0,0(s1)
9d00613c:	0f402793 	jal	9d009e4c <.LFE4>
9d006140:	8e05c628 	lw	a1,-14808(s0)
9d006144:	02602021 	move	a0,s3
9d006148:	0f401784 	jal	9d005e10 <PID_controller>
9d00614c:	00402821 	move	a1,v0

9d006150 <.LVL41>:
      //desired_angle = desired_trajectory[counter];
      counter++;
9d006150:	8f82801c 	lw	v0,-32740(gp)
9d006154:	24420001 	addiu	v0,v0,1
9d006158:	af82801c 	sw	v0,-32740(gp)
      if (counter == n) { // all values read
9d00615c:	8f90801c 	lw	s0,-32740(gp)
      /* Convert desired angle to 1/10th degrees to match encoder_angle() */
      PID_controller(encoder_angle(), (desired_angle * 10));
      break;
    }
    case TRACK: {
      int n = (int)desired_trajectory[0];
9d006160:	0f402e10 	jal	9d00b840 <__fixsfsi>
9d006164:	02402021 	move	a0,s2
      actual_trajectory[counter] = (float)encoder_angle() / 10;
      /* Convert desired angle to 1/10th degrees to match encoder_angle() */
      PID_controller(encoder_angle(), (desired_trajectory[counter] * 10));
      //desired_angle = desired_trajectory[counter];
      counter++;
      if (counter == n) { // all values read
9d006168:	1602000e 	bne	s0,v0,9d0061a4 <.LBE2+0x4>
9d00616c:	3c02bf88 	lui	v0,0xbf88
        desired_angle = desired_trajectory[counter];
9d006170:	8f83801c 	lw	v1,-32740(gp)
9d006174:	00031880 	sll	v1,v1,0x2
9d006178:	3c02a000 	lui	v0,0xa000
9d00617c:	24421f9c 	addiu	v0,v0,8092
9d006180:	00621021 	addu	v0,v1,v0
9d006184:	8c420000 	lw	v0,0(v0)
9d006188:	af82804c 	sw	v0,-32692(gp)
        set_mode(IDLE);
9d00618c:	0f403120 	jal	9d00c480 <set_mode>
9d006190:	00002021 	move	a0,zero

9d006194 <.LVL43>:
        counter = 0;
9d006194:	af80801c 	sw	zero,-32740(gp)
        finished = 1;
9d006198:	24020001 	li	v0,1
9d00619c:	af828018 	sw	v0,-32744(gp)

9d0061a0 <.LBE2>:
    }
    default: {
      break;
    }
  }
  IFS0bits.T4IF = 0;        // clear interrupt flag
9d0061a0:	3c02bf88 	lui	v0,0xbf88
9d0061a4:	8c431030 	lw	v1,4144(v0)
9d0061a8:	7c038404 	ins	v1,zero,0x10,0x1
9d0061ac:	ac431030 	sw	v1,4144(v0)
}
9d0061b0:	8fa2006c 	lw	v0,108(sp)
9d0061b4:	00400013 	mtlo	v0
9d0061b8:	8fa30068 	lw	v1,104(sp)
9d0061bc:	00600011 	mthi	v1
9d0061c0:	8fbf0064 	lw	ra,100(sp)
9d0061c4:	8fb90060 	lw	t9,96(sp)
9d0061c8:	8fb8005c 	lw	t8,92(sp)
9d0061cc:	8fb30058 	lw	s3,88(sp)
9d0061d0:	8fb20054 	lw	s2,84(sp)
9d0061d4:	8fb10050 	lw	s1,80(sp)
9d0061d8:	8fb0004c 	lw	s0,76(sp)
9d0061dc:	8faf0048 	lw	t7,72(sp)
9d0061e0:	8fae0044 	lw	t6,68(sp)
9d0061e4:	8fad0040 	lw	t5,64(sp)
9d0061e8:	8fac003c 	lw	t4,60(sp)
9d0061ec:	8fab0038 	lw	t3,56(sp)
9d0061f0:	8faa0034 	lw	t2,52(sp)
9d0061f4:	8fa90030 	lw	t1,48(sp)
9d0061f8:	8fa8002c 	lw	t0,44(sp)
9d0061fc:	8fa70028 	lw	a3,40(sp)
9d006200:	8fa60024 	lw	a2,36(sp)
9d006204:	8fa50020 	lw	a1,32(sp)
9d006208:	8fa4001c 	lw	a0,28(sp)
9d00620c:	8fa30018 	lw	v1,24(sp)
9d006210:	8fa20014 	lw	v0,20(sp)
9d006214:	8fa10010 	lw	at,16(sp)
9d006218:	41606000 	di
9d00621c:	000000c0 	ehb
9d006220:	8fba007c 	lw	k0,124(sp)
9d006224:	8fbb0078 	lw	k1,120(sp)
9d006228:	409a7000 	mtc0	k0,c0_epc
9d00622c:	8fba0074 	lw	k0,116(sp)
9d006230:	27bd0080 	addiu	sp,sp,128
9d006234:	409a6002 	mtc0	k0,c0_srsctl
9d006238:	41dde800 	wrpgpr	sp,sp
9d00623c:	409b6000 	mtc0	k1,c0_status
9d006240:	42000018 	eret

Disassembly of section .text.dp32mul:

9d006244 <__divdf3>:
9d006244:	00055040 000a5542 00054ac0 00047d42     @P..BU...J..B}..
9d006254:	012f4825 000442c0 3c0e8000 012e4825     %H/..B.....<%H..
9d006264:	00076840 000d6d42 000762c0 00067d42     @h..Bm...b..B}..
9d006274:	018f6025 00065ac0 018e6025 00a72826     %`...Z..%`..&(..
9d006284:	00ae2824 254fffff 2de107fe 102000cb     $(....O%...-.. .
9d006294:	00000000                                ....

9d006298 <Dlab1>:
9d006298:	25afffff 	addiu	t7,t5,-1
9d00629c:	2de107fe 	sltiu	at,t7,2046
9d0062a0:	102000f4 	beqz	at,9d006674 <DspecB>
9d0062a4:	00000000 	nop

9d0062a8 <Dlab2>:
9d0062a8:	014d5023 	subu	t2,t2,t5
9d0062ac:	254a03ff 	addiu	t2,t2,1023
9d0062b0:	00084042 	srl	t0,t0,0x1
9d0062b4:	00097fc0 	sll	t7,t1,0x1f
9d0062b8:	010f4025 	or	t0,t0,t7
9d0062bc:	00094842 	srl	t1,t1,0x1
9d0062c0:	000c3c02 	srl	a3,t4,0x10
9d0062c4:	00e001f4 	teq	a3,zero,0x7
9d0062c8:	0127001b 	divu	zero,t1,a3
9d0062cc:	00007012 	mflo	t6
9d0062d0:	00004810 	mfhi	t1
9d0062d4:	3186ffff 	andi	a2,t4,0xffff
9d0062d8:	00ce0019 	multu	a2,t6
9d0062dc:	00002012 	mflo	a0
9d0062e0:	00094c00 	sll	t1,t1,0x10
9d0062e4:	00087c02 	srl	t7,t0,0x10
9d0062e8:	012f4825 	or	t1,t1,t7
9d0062ec:	0124782b 	sltu	t7,t1,a0
9d0062f0:	11e00006 	beqz	t7,9d00630c <i20>
9d0062f4:	01244823 	subu	t1,t1,a0

9d0062f8 <b21>:
9d0062f8:	25ceffff 	addiu	t6,t6,-1
9d0062fc:	012c4821 	addu	t1,t1,t4
9d006300:	012c082b 	sltu	at,t1,t4
9d006304:	1020fffc 	beqz	at,9d0062f8 <b21>
9d006308:	00000000 	nop

9d00630c <i20>:
9d00630c:	00e001f4 	teq	a3,zero,0x7
9d006310:	0127001b 	divu	zero,t1,a3
9d006314:	00003812 	mflo	a3
9d006318:	00004810 	mfhi	t1
9d00631c:	00c70019 	multu	a2,a3
9d006320:	00002012 	mflo	a0
9d006324:	00094c00 	sll	t1,t1,0x10
9d006328:	310fffff 	andi	t7,t0,0xffff
9d00632c:	012f4825 	or	t1,t1,t7
9d006330:	0124782b 	sltu	t7,t1,a0
9d006334:	11e00006 	beqz	t7,9d006350 <i22>
9d006338:	01244823 	subu	t1,t1,a0

9d00633c <b23>:
9d00633c:	24e7ffff 	addiu	a3,a3,-1
9d006340:	012c4821 	addu	t1,t1,t4
9d006344:	012c082b 	sltu	at,t1,t4
9d006348:	1020fffc 	beqz	at,9d00633c <b23>
9d00634c:	00000000 	nop

9d006350 <i22>:
9d006350:	000e7400 	sll	t6,t6,0x10
9d006354:	01c77021 	addu	t6,t6,a3
9d006358:	01cb0019 	multu	t6,t3
9d00635c:	00003812 	mflo	a3
9d006360:	00002010 	mfhi	a0
9d006364:	24080000 	li	t0,0
9d006368:	0107782b 	sltu	t7,t0,a3
9d00636c:	01074023 	subu	t0,t0,a3
9d006370:	012f102b 	sltu	v0,t1,t7
9d006374:	012f4823 	subu	t1,t1,t7
9d006378:	0124782b 	sltu	t7,t1,a0
9d00637c:	01e27825 	or	t7,t7,v0
9d006380:	11e0000b 	beqz	t7,9d0063b0 <i24>
9d006384:	01244823 	subu	t1,t1,a0

9d006388 <Dlab3>:
9d006388:	25ceffff 	addiu	t6,t6,-1
9d00638c:	010b4021 	addu	t0,t0,t3
9d006390:	010b782b 	sltu	t7,t0,t3
9d006394:	012c4821 	addu	t1,t1,t4
9d006398:	012f4821 	addu	t1,t1,t7
9d00639c:	112c0002 	beq	t1,t4,9d0063a8 <L31>
9d0063a0:	00000000 	nop
9d0063a4:	012c782b 	sltu	t7,t1,t4

9d0063a8 <L31>:
9d0063a8:	11e0fff7 	beqz	t7,9d006388 <Dlab3>
9d0063ac:	00000000 	nop

9d0063b0 <i24>:
9d0063b0:	152c0006 	bne	t1,t4,9d0063cc <i25>
9d0063b4:	00000000 	nop
9d0063b8:	000b2025 	or	a0,zero,t3
9d0063bc:	00084825 	or	t1,zero,t0
9d0063c0:	240d0000 	li	t5,0
9d0063c4:	1000002a 	b	9d006470 <e25>
9d0063c8:	000d3825 	or	a3,zero,t5

9d0063cc <i25>:
9d0063cc:	000c3c02 	srl	a3,t4,0x10
9d0063d0:	00e001f4 	teq	a3,zero,0x7
9d0063d4:	0127001b 	divu	zero,t1,a3
9d0063d8:	00006812 	mflo	t5
9d0063dc:	00004810 	mfhi	t1
9d0063e0:	3186ffff 	andi	a2,t4,0xffff
9d0063e4:	00cd0019 	multu	a2,t5
9d0063e8:	00002012 	mflo	a0
9d0063ec:	00094c00 	sll	t1,t1,0x10
9d0063f0:	00087c02 	srl	t7,t0,0x10
9d0063f4:	012f4825 	or	t1,t1,t7
9d0063f8:	0124782b 	sltu	t7,t1,a0
9d0063fc:	11e00006 	beqz	t7,9d006418 <i26>
9d006400:	01244823 	subu	t1,t1,a0

9d006404 <b27>:
9d006404:	25adffff 	addiu	t5,t5,-1
9d006408:	012c4821 	addu	t1,t1,t4
9d00640c:	012c082b 	sltu	at,t1,t4
9d006410:	1020fffc 	beqz	at,9d006404 <b27>
9d006414:	00000000 	nop

9d006418 <i26>:
9d006418:	00e001f4 	teq	a3,zero,0x7
9d00641c:	0127001b 	divu	zero,t1,a3
9d006420:	00003812 	mflo	a3
9d006424:	00004810 	mfhi	t1
9d006428:	00c70019 	multu	a2,a3
9d00642c:	00002012 	mflo	a0
9d006430:	00094c00 	sll	t1,t1,0x10
9d006434:	310fffff 	andi	t7,t0,0xffff
9d006438:	012f4825 	or	t1,t1,t7
9d00643c:	0124782b 	sltu	t7,t1,a0
9d006440:	11e00006 	beqz	t7,9d00645c <i28>
9d006444:	01244823 	subu	t1,t1,a0

9d006448 <b29>:
9d006448:	24e7ffff 	addiu	a3,a3,-1
9d00644c:	012c4821 	addu	t1,t1,t4
9d006450:	012c082b 	sltu	at,t1,t4
9d006454:	1020fffc 	beqz	at,9d006448 <b29>
9d006458:	00000000 	nop

9d00645c <i28>:
9d00645c:	000d6c00 	sll	t5,t5,0x10
9d006460:	01a76821 	addu	t5,t5,a3
9d006464:	01ab0019 	multu	t5,t3
9d006468:	00003812 	mflo	a3
9d00646c:	00002010 	mfhi	a0

9d006470 <e25>:
9d006470:	24080000 	li	t0,0
9d006474:	0107782b 	sltu	t7,t0,a3
9d006478:	01074023 	subu	t0,t0,a3
9d00647c:	012f102b 	sltu	v0,t1,t7
9d006480:	012f4823 	subu	t1,t1,t7
9d006484:	0124782b 	sltu	t7,t1,a0
9d006488:	01e27825 	or	t7,t7,v0
9d00648c:	11e0000b 	beqz	t7,9d0064bc <i30>
9d006490:	01244823 	subu	t1,t1,a0

9d006494 <Dlab4>:
9d006494:	25adffff 	addiu	t5,t5,-1
9d006498:	010b4021 	addu	t0,t0,t3
9d00649c:	010b782b 	sltu	t7,t0,t3
9d0064a0:	012c4821 	addu	t1,t1,t4
9d0064a4:	012f4821 	addu	t1,t1,t7
9d0064a8:	112c0002 	beq	t1,t4,9d0064b4 <L32>
9d0064ac:	00000000 	nop
9d0064b0:	012c782b 	sltu	t7,t1,t4

9d0064b4 <L32>:
9d0064b4:	11e0fff7 	beqz	t7,9d006494 <Dlab4>
9d0064b8:	00000000 	nop

9d0064bc <i30>:
9d0064bc:	05c00006 	bltz	t6,9d0064d8 <i31>
9d0064c0:	00000000 	nop
9d0064c4:	01a0782a 	slt	t7,t5,zero
9d0064c8:	01ad6821 	addu	t5,t5,t5
9d0064cc:	01ce7021 	addu	t6,t6,t6
9d0064d0:	01cf7021 	addu	t6,t6,t7
9d0064d4:	254affff 	addiu	t2,t2,-1

9d0064d8 <i31>:
9d0064d8:	01287825 	or	t7,t1,t0
9d0064dc:	11e00002 	beqz	t7,9d0064e8 <i32>
9d0064e0:	00000000 	nop
9d0064e4:	35ad0001 	ori	t5,t5,0x1

9d0064e8 <i32>:
9d0064e8:	000e4825 	or	t1,zero,t6
9d0064ec:	000d4025 	or	t0,zero,t5
9d0064f0:	254fffff 	addiu	t7,t2,-1
9d0064f4:	2de107fe 	sltiu	at,t7,2046
9d0064f8:	10200015 	beqz	at,9d006550 <Doveund>
9d0064fc:	00000000 	nop
9d006500:	25080400 	addiu	t0,t0,1024
9d006504:	2d0f0400 	sltiu	t7,t0,1024
9d006508:	012f4821 	addu	t1,t1,t7
9d00650c:	012f782b 	sltu	t7,t1,t7
9d006510:	014f5021 	addu	t2,t2,t7

9d006514 <Dlab8>:
9d006514:	00087ac2 	srl	t7,t0,0xb
9d006518:	31ef0001 	andi	t7,t7,0x1
9d00651c:	010f4023 	subu	t0,t0,t7
9d006520:	000822c2 	srl	a0,t0,0xb
9d006524:	00097d40 	sll	t7,t1,0x15
9d006528:	008f2025 	or	a0,a0,t7
9d00652c:	00097840 	sll	t7,t1,0x1
9d006530:	000f7b02 	srl	t7,t7,0xc
9d006534:	00af2825 	or	a1,a1,t7
9d006538:	000a7d00 	sll	t7,t2,0x14
9d00653c:	00af2825 	or	a1,a1,t7

9d006540 <Dret>:
9d006540:	00041025 	or	v0,zero,a0
9d006544:	00051825 	or	v1,zero,a1

9d006548 <D999>:
9d006548:	03e00008 	jr	ra
9d00654c:	00000000 	nop

9d006550 <Doveund>:
9d006550:	1d400044 	bgtz	t2,9d006664 <Dinf>
9d006554:	00000000 	nop
9d006558:	240e0001 	li	t6,1
9d00655c:	01ca7023 	subu	t6,t6,t2

9d006560 <L33>:
9d006560:	2dc10020 	sltiu	at,t6,32
9d006564:	14200007 	bnez	at,9d006584 <L34>
9d006568:	00000000 	nop
9d00656c:	21ceffe0 	addi	t6,t6,-32
9d006570:	0008202b 	sltu	a0,zero,t0
9d006574:	1009000d 	beq	zero,t1,9d0065ac <L35>
9d006578:	01244025 	or	t0,t1,a0
9d00657c:	1000fff8 	b	9d006560 <L33>
9d006580:	34090000 	li	t1,0x0

9d006584 <L34>:
9d006584:	11c00009 	beqz	t6,9d0065ac <L35>
9d006588:	00000000 	nop
9d00658c:	000e3022 	neg	a2,t6
9d006590:	00c82004 	sllv	a0,t0,a2
9d006594:	00c93004 	sllv	a2,t1,a2
9d006598:	01c84006 	srlv	t0,t0,t6
9d00659c:	01c94806 	srlv	t1,t1,t6
9d0065a0:	10800002 	beqz	a0,9d0065ac <L35>
9d0065a4:	00c84025 	or	t0,a2,t0
9d0065a8:	35080002 	ori	t0,t0,0x2

9d0065ac <L35>:
9d0065ac:	25080400 	addiu	t0,t0,1024
9d0065b0:	2d0f0400 	sltiu	t7,t0,1024
9d0065b4:	012f4821 	addu	t1,t1,t7
9d0065b8:	1000ffd6 	b	9d006514 <Dlab8>
9d0065bc:	000957c2 	srl	t2,t1,0x1f

9d0065c0 <DspecA>:
9d0065c0:	0100782a 	slt	t7,t0,zero
9d0065c4:	01084021 	addu	t0,t0,t0
9d0065c8:	01294821 	addu	t1,t1,t1
9d0065cc:	15400017 	bnez	t2,9d00662c <i33>
9d0065d0:	012f4821 	addu	t1,t1,t7
9d0065d4:	01287825 	or	t7,t1,t0
9d0065d8:	11e00014 	beqz	t7,9d00662c <i33>
9d0065dc:	00000000 	nop
9d0065e0:	15200008 	bnez	t1,9d006604 <L36>
9d0065e4:	00000000 	nop
9d0065e8:	15000003 	bnez	t0,9d0065f8 <L37>
9d0065ec:	00000000 	nop
9d0065f0:	1000ff29 	b	9d006298 <Dlab1>
9d0065f4:	240a0000 	li	t2,0

9d0065f8 <L37>:
9d0065f8:	01004825 	move	t1,t0
9d0065fc:	24080000 	li	t0,0
9d006600:	254affe0 	addiu	t2,t2,-32

9d006604 <L36>:
9d006604:	712e7020 	clz	t6,t1
9d006608:	11c0ff23 	beqz	t6,9d006298 <Dlab1>
9d00660c:	00000000 	nop
9d006610:	014e5023 	subu	t2,t2,t6
9d006614:	000e3022 	neg	a2,t6
9d006618:	00c83006 	srlv	a2,t0,a2
9d00661c:	01c84004 	sllv	t0,t0,t6
9d006620:	01c94804 	sllv	t1,t1,t6
9d006624:	1000ff1c 	b	9d006298 <Dlab1>
9d006628:	01264825 	or	t1,t1,a2

9d00662c <i33>:
9d00662c:	154d0005 	bne	t2,t5,9d006644 <i35>
9d006630:	00000000 	nop
9d006634:	000c7840 	sll	t7,t4,0x1
9d006638:	01eb7825 	or	t7,t7,t3
9d00663c:	11e0002b 	beqz	t7,9d0066ec <Dnan>
9d006640:	00000000 	nop

9d006644 <i35>:
9d006644:	240107ff 	li	at,2047
9d006648:	11a1000a 	beq	t5,at,9d006674 <DspecB>
9d00664c:	00000000 	nop
9d006650:	1140ffbb 	beqz	t2,9d006540 <Dret>
9d006654:	00000000 	nop
9d006658:	01287825 	or	t7,t1,t0
9d00665c:	15e00023 	bnez	t7,9d0066ec <Dnan>
9d006660:	00000000 	nop

9d006664 <Dinf>:
9d006664:	3c017ff0 	lui	at,0x7ff0
9d006668:	00a12825 	or	a1,a1,at
9d00666c:	1000ffb4 	b	9d006540 <Dret>
9d006670:	24040000 	li	a0,0

9d006674 <DspecB>:
9d006674:	0160782a 	slt	t7,t3,zero
9d006678:	016b5821 	addu	t3,t3,t3
9d00667c:	018c6021 	addu	t4,t4,t4
9d006680:	15a00017 	bnez	t5,9d0066e0 <i36>
9d006684:	018f6021 	addu	t4,t4,t7
9d006688:	018b7825 	or	t7,t4,t3
9d00668c:	11e0fff5 	beqz	t7,9d006664 <Dinf>
9d006690:	00000000 	nop
9d006694:	15800008 	bnez	t4,9d0066b8 <L39>
9d006698:	00000000 	nop
9d00669c:	15600003 	bnez	t3,9d0066ac <L40>
9d0066a0:	00000000 	nop
9d0066a4:	1000ff00 	b	9d0062a8 <Dlab2>
9d0066a8:	240d0000 	li	t5,0

9d0066ac <L40>:
9d0066ac:	01606025 	move	t4,t3
9d0066b0:	240b0000 	li	t3,0
9d0066b4:	25adffe0 	addiu	t5,t5,-32

9d0066b8 <L39>:
9d0066b8:	718e7020 	clz	t6,t4
9d0066bc:	11c0fefa 	beqz	t6,9d0062a8 <Dlab2>
9d0066c0:	00000000 	nop
9d0066c4:	01ae6823 	subu	t5,t5,t6
9d0066c8:	000e3022 	neg	a2,t6
9d0066cc:	00cb3006 	srlv	a2,t3,a2
9d0066d0:	01cb5804 	sllv	t3,t3,t6
9d0066d4:	01cc6004 	sllv	t4,t4,t6
9d0066d8:	1000fef3 	b	9d0062a8 <Dlab2>
9d0066dc:	01866025 	or	t4,t4,a2

9d0066e0 <i36>:
9d0066e0:	018b7825 	or	t7,t4,t3
9d0066e4:	11e00002 	beqz	t7,9d0066f0 <i38>
9d0066e8:	00000000 	nop

9d0066ec <Dnan>:
9d0066ec:	3c05fff8 	lui	a1,0xfff8

9d0066f0 <i38>:
9d0066f0:	1000ff93 	b	9d006540 <Dret>
9d0066f4:	24040000 	li	a0,0
9d0066f8:	00000000 	nop

Disassembly of section .text:

9d0066fc <__divdi3>:
9d0066fc:	04a00052 	bltz	a1,9d006848 <__divdi3+0x14c>
9d006700:	00004821 	move	t1,zero
9d006704:	04e20057 	bltzl	a3,9d006864 <__divdi3+0x168>
9d006708:	00063023 	negu	a2,a2
9d00670c:	00c04021 	move	t0,a2
9d006710:	00805021 	move	t2,a0
9d006714:	14e00046 	bnez	a3,9d006830 <__divdi3+0x134>
9d006718:	00a01821 	move	v1,a1
9d00671c:	00a6102b 	sltu	v0,a1,a2
9d006720:	1040005d 	beqz	v0,9d006898 <__divdi3+0x19c>
9d006724:	70c21020 	clz	v0,a2
9d006728:	50400008 	beqzl	v0,9d00674c <__divdi3+0x50>
9d00672c:	00082c02 	srl	a1,t0,0x10
9d006730:	00022023 	negu	a0,v0
9d006734:	008a2006 	srlv	a0,t2,a0
9d006738:	00451804 	sllv	v1,a1,v0
9d00673c:	00464004 	sllv	t0,a2,v0
9d006740:	00831825 	or	v1,a0,v1
9d006744:	004a5004 	sllv	t2,t2,v0
9d006748:	00082c02 	srl	a1,t0,0x10
9d00674c:	0065001b 	divu	zero,v1,a1
9d006750:	00a001f4 	teq	a1,zero,0x7
9d006754:	00006010 	mfhi	t4
9d006758:	00005812 	mflo	t3
9d00675c:	3107ffff 	andi	a3,t0,0xffff
9d006760:	000a2402 	srl	a0,t2,0x10
9d006764:	00001012 	mflo	v0
9d006768:	71673002 	mul	a2,t3,a3
9d00676c:	000c6400 	sll	t4,t4,0x10
9d006770:	01842025 	or	a0,t4,a0
9d006774:	0086602b 	sltu	t4,a0,a2
9d006778:	0065001b 	divu	zero,v1,a1
9d00677c:	00a001f4 	teq	a1,zero,0x7
9d006780:	1180000b 	beqz	t4,9d0067b0 <__divdi3+0xb4>
9d006784:	00861823 	subu	v1,a0,a2
9d006788:	00882021 	addu	a0,a0,t0
9d00678c:	0088182b 	sltu	v1,a0,t0
9d006790:	14600006 	bnez	v1,9d0067ac <__divdi3+0xb0>
9d006794:	2562ffff 	addiu	v0,t3,-1
9d006798:	0086182b 	sltu	v1,a0,a2
9d00679c:	10600004 	beqz	v1,9d0067b0 <__divdi3+0xb4>
9d0067a0:	00861823 	subu	v1,a0,a2
9d0067a4:	2562fffe 	addiu	v0,t3,-2
9d0067a8:	00882021 	addu	a0,a0,t0
9d0067ac:	00861823 	subu	v1,a0,a2
9d0067b0:	314affff 	andi	t2,t2,0xffff
9d0067b4:	0065001b 	divu	zero,v1,a1
9d0067b8:	00a001f4 	teq	a1,zero,0x7
9d0067bc:	00005810 	mfhi	t3
9d0067c0:	00003012 	mflo	a2
9d0067c4:	00002012 	mflo	a0
9d0067c8:	70c73802 	mul	a3,a2,a3
9d0067cc:	000b5c00 	sll	t3,t3,0x10
9d0067d0:	016a5025 	or	t2,t3,t2
9d0067d4:	0147582b 	sltu	t3,t2,a3
9d0067d8:	0065001b 	divu	zero,v1,a1
9d0067dc:	00a001f4 	teq	a1,zero,0x7
9d0067e0:	51600009 	beqzl	t3,9d006808 <__divdi3+0x10c>
9d0067e4:	00021400 	sll	v0,v0,0x10
9d0067e8:	01485021 	addu	t2,t2,t0
9d0067ec:	0148402b 	sltu	t0,t2,t0
9d0067f0:	15000004 	bnez	t0,9d006804 <__divdi3+0x108>
9d0067f4:	24c4ffff 	addiu	a0,a2,-1
9d0067f8:	0147382b 	sltu	a3,t2,a3
9d0067fc:	24c6fffe 	addiu	a2,a2,-2
9d006800:	00c7200b 	movn	a0,a2,a3
9d006804:	00021400 	sll	v0,v0,0x10
9d006808:	00821025 	or	v0,a0,v0
9d00680c:	00001821 	move	v1,zero
9d006810:	11200005 	beqz	t1,9d006828 <__divdi3+0x12c>
9d006814:	00000000 	nop
9d006818:	00021023 	negu	v0,v0
9d00681c:	0002202b 	sltu	a0,zero,v0
9d006820:	00031823 	negu	v1,v1
9d006824:	00641823 	subu	v1,v1,a0
9d006828:	03e00008 	jr	ra
9d00682c:	00000000 	nop
9d006830:	00a7102b 	sltu	v0,a1,a3
9d006834:	10400010 	beqz	v0,9d006878 <__divdi3+0x17c>
9d006838:	70e84020 	clz	t0,a3
9d00683c:	00001821 	move	v1,zero
9d006840:	0b401a04 	j	9d006810 <__divdi3+0x114>
9d006844:	00001021 	move	v0,zero
9d006848:	00042023 	negu	a0,a0
9d00684c:	0004102b 	sltu	v0,zero,a0
9d006850:	00052823 	negu	a1,a1
9d006854:	00a22823 	subu	a1,a1,v0
9d006858:	04e1ffac 	bgez	a3,9d00670c <__divdi3+0x10>
9d00685c:	2409ffff 	li	t1,-1
9d006860:	00063023 	negu	a2,a2
9d006864:	0006102b 	sltu	v0,zero,a2
9d006868:	00073823 	negu	a3,a3
9d00686c:	00094827 	nor	t1,zero,t1
9d006870:	0b4019c3 	j	9d00670c <__divdi3+0x10>
9d006874:	00e23823 	subu	a3,a3,v0
9d006878:	1500007e 	bnez	t0,9d006a74 <__divdi3+0x378>
9d00687c:	24020020 	li	v0,32
9d006880:	00e5282b 	sltu	a1,a3,a1
9d006884:	14a000c6 	bnez	a1,9d006ba0 <__divdi3+0x4a4>
9d006888:	00001821 	move	v1,zero
9d00688c:	0086102b 	sltu	v0,a0,a2
9d006890:	0b401a04 	j	9d006810 <__divdi3+0x114>
9d006894:	38420001 	xori	v0,v0,0x1
9d006898:	14c00006 	bnez	a2,9d0068b4 <__divdi3+0x1b8>
9d00689c:	71021020 	clz	v0,t0
9d0068a0:	24080001 	li	t0,1
9d0068a4:	0107001b 	divu	zero,t0,a3
9d0068a8:	00e001f4 	teq	a3,zero,0x7
9d0068ac:	00004012 	mflo	t0
9d0068b0:	71021020 	clz	v0,t0
9d0068b4:	54400033 	bnezl	v0,9d006984 <__divdi3+0x288>
9d0068b8:	00484004 	sllv	t0,t0,v0
9d0068bc:	00a82023 	subu	a0,a1,t0
9d0068c0:	00083c02 	srl	a3,t0,0x10
9d0068c4:	310cffff 	andi	t4,t0,0xffff
9d0068c8:	24030001 	li	v1,1
9d0068cc:	000a3402 	srl	a2,t2,0x10
9d0068d0:	0087001b 	divu	zero,a0,a3
9d0068d4:	00e001f4 	teq	a3,zero,0x7
9d0068d8:	00007010 	mfhi	t6
9d0068dc:	00006812 	mflo	t5
9d0068e0:	00001012 	mflo	v0
9d0068e4:	71ac5802 	mul	t3,t5,t4
9d0068e8:	000e7400 	sll	t6,t6,0x10
9d0068ec:	01c63025 	or	a2,t6,a2
9d0068f0:	00cb702b 	sltu	t6,a2,t3
9d0068f4:	0087001b 	divu	zero,a0,a3
9d0068f8:	00e001f4 	teq	a3,zero,0x7
9d0068fc:	11c00009 	beqz	t6,9d006924 <__divdi3+0x228>
9d006900:	00cb2823 	subu	a1,a2,t3
9d006904:	00c83021 	addu	a2,a2,t0
9d006908:	00c8202b 	sltu	a0,a2,t0
9d00690c:	14800004 	bnez	a0,9d006920 <__divdi3+0x224>
9d006910:	25a2ffff 	addiu	v0,t5,-1
9d006914:	00cb202b 	sltu	a0,a2,t3
9d006918:	548000a3 	bnezl	a0,9d006ba8 <__divdi3+0x4ac>
9d00691c:	25a2fffe 	addiu	v0,t5,-2
9d006920:	00cb2823 	subu	a1,a2,t3
9d006924:	314affff 	andi	t2,t2,0xffff
9d006928:	00a7001b 	divu	zero,a1,a3
9d00692c:	00e001f4 	teq	a3,zero,0x7
9d006930:	00005810 	mfhi	t3
9d006934:	00003012 	mflo	a2
9d006938:	00002012 	mflo	a0
9d00693c:	70cc6002 	mul	t4,a2,t4
9d006940:	000b5c00 	sll	t3,t3,0x10
9d006944:	016a5025 	or	t2,t3,t2
9d006948:	014c582b 	sltu	t3,t2,t4
9d00694c:	00a7001b 	divu	zero,a1,a3
9d006950:	00e001f4 	teq	a3,zero,0x7
9d006954:	51600009 	beqzl	t3,9d00697c <__divdi3+0x280>
9d006958:	00021400 	sll	v0,v0,0x10
9d00695c:	01485021 	addu	t2,t2,t0
9d006960:	0148402b 	sltu	t0,t2,t0
9d006964:	15000004 	bnez	t0,9d006978 <__divdi3+0x27c>
9d006968:	24c4ffff 	addiu	a0,a2,-1
9d00696c:	014c502b 	sltu	t2,t2,t4
9d006970:	24c6fffe 	addiu	a2,a2,-2
9d006974:	00ca200b 	movn	a0,a2,t2
9d006978:	00021400 	sll	v0,v0,0x10
9d00697c:	0b401a04 	j	9d006810 <__divdi3+0x114>
9d006980:	00821025 	or	v0,a0,v0
9d006984:	24030020 	li	v1,32
9d006988:	00621823 	subu	v1,v1,v0
9d00698c:	00653006 	srlv	a2,a1,v1
9d006990:	00083c02 	srl	a3,t0,0x10
9d006994:	00c7001b 	divu	zero,a2,a3
9d006998:	00e001f4 	teq	a3,zero,0x7
9d00699c:	00007810 	mfhi	t7
9d0069a0:	00006812 	mflo	t5
9d0069a4:	310cffff 	andi	t4,t0,0xffff
9d0069a8:	00452804 	sllv	a1,a1,v0
9d0069ac:	00641806 	srlv	v1,a0,v1
9d0069b0:	00652825 	or	a1,v1,a1
9d0069b4:	00057402 	srl	t6,a1,0x10
9d0069b8:	00445004 	sllv	t2,a0,v0
9d0069bc:	00001812 	mflo	v1
9d0069c0:	71ac5802 	mul	t3,t5,t4
9d0069c4:	000f1400 	sll	v0,t7,0x10
9d0069c8:	01c21025 	or	v0,t6,v0
9d0069cc:	004b202b 	sltu	a0,v0,t3
9d0069d0:	00c7001b 	divu	zero,a2,a3
9d0069d4:	00e001f4 	teq	a3,zero,0x7
9d0069d8:	5080000b 	beqzl	a0,9d006a08 <__divdi3+0x30c>
9d0069dc:	004b1023 	subu	v0,v0,t3
9d0069e0:	00481021 	addu	v0,v0,t0
9d0069e4:	0048202b 	sltu	a0,v0,t0
9d0069e8:	14800006 	bnez	a0,9d006a04 <__divdi3+0x308>
9d0069ec:	25a3ffff 	addiu	v1,t5,-1
9d0069f0:	004b202b 	sltu	a0,v0,t3
9d0069f4:	50800004 	beqzl	a0,9d006a08 <__divdi3+0x30c>
9d0069f8:	004b1023 	subu	v0,v0,t3
9d0069fc:	25a3fffe 	addiu	v1,t5,-2
9d006a00:	00481021 	addu	v0,v0,t0
9d006a04:	004b1023 	subu	v0,v0,t3
9d006a08:	30adffff 	andi	t5,a1,0xffff
9d006a0c:	0047001b 	divu	zero,v0,a3
9d006a10:	00e001f4 	teq	a3,zero,0x7
9d006a14:	00002010 	mfhi	a0
9d006a18:	00005812 	mflo	t3
9d006a1c:	00003012 	mflo	a2
9d006a20:	716c2802 	mul	a1,t3,t4
9d006a24:	00042400 	sll	a0,a0,0x10
9d006a28:	008d2025 	or	a0,a0,t5
9d006a2c:	0085682b 	sltu	t5,a0,a1
9d006a30:	0047001b 	divu	zero,v0,a3
9d006a34:	00e001f4 	teq	a3,zero,0x7
9d006a38:	51a0000b 	beqzl	t5,9d006a68 <__divdi3+0x36c>
9d006a3c:	00031c00 	sll	v1,v1,0x10
9d006a40:	00882021 	addu	a0,a0,t0
9d006a44:	0088102b 	sltu	v0,a0,t0
9d006a48:	14400006 	bnez	v0,9d006a64 <__divdi3+0x368>
9d006a4c:	2566ffff 	addiu	a2,t3,-1
9d006a50:	0085102b 	sltu	v0,a0,a1
9d006a54:	50400004 	beqzl	v0,9d006a68 <__divdi3+0x36c>
9d006a58:	00031c00 	sll	v1,v1,0x10
9d006a5c:	2566fffe 	addiu	a2,t3,-2
9d006a60:	00882021 	addu	a0,a0,t0
9d006a64:	00031c00 	sll	v1,v1,0x10
9d006a68:	00852023 	subu	a0,a0,a1
9d006a6c:	0b401a33 	j	9d0068cc <__divdi3+0x1d0>
9d006a70:	00c31825 	or	v1,a2,v1
9d006a74:	00481023 	subu	v0,v0,t0
9d006a78:	01073804 	sllv	a3,a3,t0
9d006a7c:	00461806 	srlv	v1,a2,v0
9d006a80:	00673825 	or	a3,v1,a3
9d006a84:	00455806 	srlv	t3,a1,v0
9d006a88:	00071c02 	srl	v1,a3,0x10
9d006a8c:	0163001b 	divu	zero,t3,v1
9d006a90:	006001f4 	teq	v1,zero,0x7
9d006a94:	00005010 	mfhi	t2
9d006a98:	00007012 	mflo	t6
9d006a9c:	30ecffff 	andi	t4,a3,0xffff
9d006aa0:	01052804 	sllv	a1,a1,t0
9d006aa4:	00441006 	srlv	v0,a0,v0
9d006aa8:	00452825 	or	a1,v0,a1
9d006aac:	00057c02 	srl	t7,a1,0x10
9d006ab0:	00001012 	mflo	v0
9d006ab4:	71cc6802 	mul	t5,t6,t4
9d006ab8:	000a5400 	sll	t2,t2,0x10
9d006abc:	014f5025 	or	t2,t2,t7
9d006ac0:	014d782b 	sltu	t7,t2,t5
9d006ac4:	0163001b 	divu	zero,t3,v1
9d006ac8:	006001f4 	teq	v1,zero,0x7
9d006acc:	11e0000a 	beqz	t7,9d006af8 <__divdi3+0x3fc>
9d006ad0:	01063004 	sllv	a2,a2,t0
9d006ad4:	01475021 	addu	t2,t2,a3
9d006ad8:	0147582b 	sltu	t3,t2,a3
9d006adc:	15600006 	bnez	t3,9d006af8 <__divdi3+0x3fc>
9d006ae0:	25c2ffff 	addiu	v0,t6,-1
9d006ae4:	014d582b 	sltu	t3,t2,t5
9d006ae8:	51600004 	beqzl	t3,9d006afc <__divdi3+0x400>
9d006aec:	014d5023 	subu	t2,t2,t5
9d006af0:	25c2fffe 	addiu	v0,t6,-2
9d006af4:	01475021 	addu	t2,t2,a3
9d006af8:	014d5023 	subu	t2,t2,t5
9d006afc:	30a5ffff 	andi	a1,a1,0xffff
9d006b00:	0143001b 	divu	zero,t2,v1
9d006b04:	006001f4 	teq	v1,zero,0x7
9d006b08:	00007010 	mfhi	t6
9d006b0c:	00006812 	mflo	t5
9d006b10:	00005812 	mflo	t3
9d006b14:	71ac6002 	mul	t4,t5,t4
9d006b18:	000e7400 	sll	t6,t6,0x10
9d006b1c:	01c52825 	or	a1,t6,a1
9d006b20:	00ac702b 	sltu	t6,a1,t4
9d006b24:	0143001b 	divu	zero,t2,v1
9d006b28:	006001f4 	teq	v1,zero,0x7
9d006b2c:	51c0000b 	beqzl	t6,9d006b5c <__divdi3+0x460>
9d006b30:	00021400 	sll	v0,v0,0x10
9d006b34:	00a72821 	addu	a1,a1,a3
9d006b38:	00a7182b 	sltu	v1,a1,a3
9d006b3c:	14600006 	bnez	v1,9d006b58 <__divdi3+0x45c>
9d006b40:	25abffff 	addiu	t3,t5,-1
9d006b44:	00ac182b 	sltu	v1,a1,t4
9d006b48:	50600004 	beqzl	v1,9d006b5c <__divdi3+0x460>
9d006b4c:	00021400 	sll	v0,v0,0x10
9d006b50:	25abfffe 	addiu	t3,t5,-2
9d006b54:	00a72821 	addu	a1,a1,a3
9d006b58:	00021400 	sll	v0,v0,0x10
9d006b5c:	01621025 	or	v0,t3,v0
9d006b60:	00ac2823 	subu	a1,a1,t4
9d006b64:	00460019 	multu	v0,a2
9d006b68:	00003810 	mfhi	a3
9d006b6c:	00a7182b 	sltu	v1,a1,a3
9d006b70:	14600008 	bnez	v1,9d006b94 <__divdi3+0x498>
9d006b74:	00003012 	mflo	a2
9d006b78:	50a70003 	beql	a1,a3,9d006b88 <__divdi3+0x48c>
9d006b7c:	01042004 	sllv	a0,a0,t0
9d006b80:	0b401a04 	j	9d006810 <__divdi3+0x114>
9d006b84:	00001821 	move	v1,zero
9d006b88:	0086302b 	sltu	a2,a0,a2
9d006b8c:	50c0ff20 	beqzl	a2,9d006810 <__divdi3+0x114>
9d006b90:	00001821 	move	v1,zero
9d006b94:	2442ffff 	addiu	v0,v0,-1
9d006b98:	0b401a04 	j	9d006810 <__divdi3+0x114>
9d006b9c:	00001821 	move	v1,zero
9d006ba0:	0b401a04 	j	9d006810 <__divdi3+0x114>
9d006ba4:	24020001 	li	v0,1
9d006ba8:	0b401a48 	j	9d006920 <__divdi3+0x224>
9d006bac:	00c83021 	addu	a2,a2,t0

9d006bb0 <__umoddi3>:
9d006bb0:	00c04021 	move	t0,a2
9d006bb4:	00804821 	move	t1,a0
9d006bb8:	14e0003b 	bnez	a3,9d006ca8 <__umoddi3+0xf8>
9d006bbc:	00a01821 	move	v1,a1
9d006bc0:	00a6102b 	sltu	v0,a1,a2
9d006bc4:	10400048 	beqz	v0,9d006ce8 <__umoddi3+0x138>
9d006bc8:	70c21020 	clz	v0,a2
9d006bcc:	50400008 	beqzl	v0,9d006bf0 <__umoddi3+0x40>
9d006bd0:	00083402 	srl	a2,t0,0x10
9d006bd4:	00021823 	negu	v1,v0
9d006bd8:	00452804 	sllv	a1,a1,v0
9d006bdc:	00641806 	srlv	v1,a0,v1
9d006be0:	00464004 	sllv	t0,a2,v0
9d006be4:	00651825 	or	v1,v1,a1
9d006be8:	00444804 	sllv	t1,a0,v0
9d006bec:	00083402 	srl	a2,t0,0x10
9d006bf0:	0066001b 	divu	zero,v1,a2
9d006bf4:	00c001f4 	teq	a2,zero,0x7
9d006bf8:	00002010 	mfhi	a0
9d006bfc:	00005812 	mflo	t3
9d006c00:	310cffff 	andi	t4,t0,0xffff
9d006c04:	00095402 	srl	t2,t1,0x10
9d006c08:	716c5802 	mul	t3,t3,t4
9d006c0c:	00042400 	sll	a0,a0,0x10
9d006c10:	008a5025 	or	t2,a0,t2
9d006c14:	014b682b 	sltu	t5,t2,t3
9d006c18:	0066001b 	divu	zero,v1,a2
9d006c1c:	00c001f4 	teq	a2,zero,0x7
9d006c20:	51a00009 	beqzl	t5,9d006c48 <__umoddi3+0x98>
9d006c24:	014b5023 	subu	t2,t2,t3
9d006c28:	01485021 	addu	t2,t2,t0
9d006c2c:	0148182b 	sltu	v1,t2,t0
9d006c30:	54600005 	bnezl	v1,9d006c48 <__umoddi3+0x98>
9d006c34:	014b5023 	subu	t2,t2,t3
9d006c38:	014b202b 	sltu	a0,t2,t3
9d006c3c:	01481821 	addu	v1,t2,t0
9d006c40:	0064500b 	movn	t2,v1,a0
9d006c44:	014b5023 	subu	t2,t2,t3
9d006c48:	3123ffff 	andi	v1,t1,0xffff
9d006c4c:	0146001b 	divu	zero,t2,a2
9d006c50:	00c001f4 	teq	a2,zero,0x7
9d006c54:	00004810 	mfhi	t1
9d006c58:	00002012 	mflo	a0
9d006c5c:	708c2002 	mul	a0,a0,t4
9d006c60:	00094c00 	sll	t1,t1,0x10
9d006c64:	01234825 	or	t1,t1,v1
9d006c68:	0124182b 	sltu	v1,t1,a0
9d006c6c:	0146001b 	divu	zero,t2,a2
9d006c70:	00c001f4 	teq	a2,zero,0x7
9d006c74:	50600009 	beqzl	v1,9d006c9c <__umoddi3+0xec>
9d006c78:	01244823 	subu	t1,t1,a0
9d006c7c:	01284821 	addu	t1,t1,t0
9d006c80:	0128182b 	sltu	v1,t1,t0
9d006c84:	54600005 	bnezl	v1,9d006c9c <__umoddi3+0xec>
9d006c88:	01244823 	subu	t1,t1,a0
9d006c8c:	0124182b 	sltu	v1,t1,a0
9d006c90:	01284021 	addu	t0,t1,t0
9d006c94:	0103480b 	movn	t1,t0,v1
9d006c98:	01244823 	subu	t1,t1,a0
9d006c9c:	00491006 	srlv	v0,t1,v0
9d006ca0:	03e00008 	jr	ra
9d006ca4:	00001821 	move	v1,zero
9d006ca8:	00a7102b 	sltu	v0,a1,a3
9d006cac:	14400047 	bnez	v0,9d006dcc <__umoddi3+0x21c>
9d006cb0:	70ea5020 	clz	t2,a3
9d006cb4:	15400048 	bnez	t2,9d006dd8 <__umoddi3+0x228>
9d006cb8:	240b0020 	li	t3,32
9d006cbc:	00e5102b 	sltu	v0,a3,a1
9d006cc0:	14400005 	bnez	v0,9d006cd8 <__umoddi3+0x128>
9d006cc4:	00861023 	subu	v0,a0,a2
9d006cc8:	0086402b 	sltu	t0,a0,a2
9d006ccc:	15000089 	bnez	t0,9d006ef4 <__umoddi3+0x344>
9d006cd0:	00801021 	move	v0,a0
9d006cd4:	00861023 	subu	v0,a0,a2
9d006cd8:	00a72823 	subu	a1,a1,a3
9d006cdc:	0082202b 	sltu	a0,a0,v0
9d006ce0:	03e00008 	jr	ra
9d006ce4:	00a41823 	subu	v1,a1,a0
9d006ce8:	14c00006 	bnez	a2,9d006d04 <__umoddi3+0x154>
9d006cec:	71021020 	clz	v0,t0
9d006cf0:	24020001 	li	v0,1
9d006cf4:	0046001b 	divu	zero,v0,a2
9d006cf8:	00c001f4 	teq	a2,zero,0x7
9d006cfc:	00004012 	mflo	t0
9d006d00:	71021020 	clz	v0,t0
9d006d04:	5440007d 	bnezl	v0,9d006efc <__umoddi3+0x34c>
9d006d08:	00484004 	sllv	t0,t0,v0
9d006d0c:	00a82823 	subu	a1,a1,t0
9d006d10:	00081c02 	srl	v1,t0,0x10
9d006d14:	3107ffff 	andi	a3,t0,0xffff
9d006d18:	00092402 	srl	a0,t1,0x10
9d006d1c:	00a3001b 	divu	zero,a1,v1
9d006d20:	006001f4 	teq	v1,zero,0x7
9d006d24:	00005010 	mfhi	t2
9d006d28:	00003012 	mflo	a2
9d006d2c:	70c73002 	mul	a2,a2,a3
9d006d30:	000a5400 	sll	t2,t2,0x10
9d006d34:	01442025 	or	a0,t2,a0
9d006d38:	0086502b 	sltu	t2,a0,a2
9d006d3c:	00a3001b 	divu	zero,a1,v1
9d006d40:	006001f4 	teq	v1,zero,0x7
9d006d44:	51400009 	beqzl	t2,9d006d6c <__umoddi3+0x1bc>
9d006d48:	00862023 	subu	a0,a0,a2
9d006d4c:	00882021 	addu	a0,a0,t0
9d006d50:	0088282b 	sltu	a1,a0,t0
9d006d54:	54a00005 	bnezl	a1,9d006d6c <__umoddi3+0x1bc>
9d006d58:	00862023 	subu	a0,a0,a2
9d006d5c:	0086502b 	sltu	t2,a0,a2
9d006d60:	00882821 	addu	a1,a0,t0
9d006d64:	00aa200b 	movn	a0,a1,t2
9d006d68:	00862023 	subu	a0,a0,a2
9d006d6c:	3126ffff 	andi	a2,t1,0xffff
9d006d70:	0083001b 	divu	zero,a0,v1
9d006d74:	006001f4 	teq	v1,zero,0x7
9d006d78:	00004810 	mfhi	t1
9d006d7c:	00002812 	mflo	a1
9d006d80:	70a72802 	mul	a1,a1,a3
9d006d84:	00094c00 	sll	t1,t1,0x10
9d006d88:	01264825 	or	t1,t1,a2
9d006d8c:	0125302b 	sltu	a2,t1,a1
9d006d90:	0083001b 	divu	zero,a0,v1
9d006d94:	006001f4 	teq	v1,zero,0x7
9d006d98:	50c00009 	beqzl	a2,9d006dc0 <__umoddi3+0x210>
9d006d9c:	01254823 	subu	t1,t1,a1
9d006da0:	01284821 	addu	t1,t1,t0
9d006da4:	0128182b 	sltu	v1,t1,t0
9d006da8:	54600005 	bnezl	v1,9d006dc0 <__umoddi3+0x210>
9d006dac:	01254823 	subu	t1,t1,a1
9d006db0:	0125182b 	sltu	v1,t1,a1
9d006db4:	01284021 	addu	t0,t1,t0
9d006db8:	0103480b 	movn	t1,t0,v1
9d006dbc:	01254823 	subu	t1,t1,a1
9d006dc0:	00491006 	srlv	v0,t1,v0
9d006dc4:	03e00008 	jr	ra
9d006dc8:	00001821 	move	v1,zero
9d006dcc:	00801021 	move	v0,a0
9d006dd0:	03e00008 	jr	ra
9d006dd4:	00a01821 	move	v1,a1
9d006dd8:	016a5823 	subu	t3,t3,t2
9d006ddc:	01473804 	sllv	a3,a3,t2
9d006de0:	01661006 	srlv	v0,a2,t3
9d006de4:	00473825 	or	a3,v0,a3
9d006de8:	01656806 	srlv	t5,a1,t3
9d006dec:	00074c02 	srl	t1,a3,0x10
9d006df0:	01a9001b 	divu	zero,t5,t1
9d006df4:	012001f4 	teq	t1,zero,0x7
9d006df8:	00006010 	mfhi	t4
9d006dfc:	00001812 	mflo	v1
9d006e00:	30eeffff 	andi	t6,a3,0xffff
9d006e04:	01452804 	sllv	a1,a1,t2
9d006e08:	01641006 	srlv	v0,a0,t3
9d006e0c:	00451025 	or	v0,v0,a1
9d006e10:	00022c02 	srl	a1,v0,0x10
9d006e14:	01463004 	sllv	a2,a2,t2
9d006e18:	00004012 	mflo	t0
9d006e1c:	706e7802 	mul	t7,v1,t6
9d006e20:	000c6400 	sll	t4,t4,0x10
9d006e24:	01856025 	or	t4,t4,a1
9d006e28:	018f282b 	sltu	a1,t4,t7
9d006e2c:	01a9001b 	divu	zero,t5,t1
9d006e30:	012001f4 	teq	t1,zero,0x7
9d006e34:	10a0000a 	beqz	a1,9d006e60 <__umoddi3+0x2b0>
9d006e38:	01442004 	sllv	a0,a0,t2
9d006e3c:	01876021 	addu	t4,t4,a3
9d006e40:	0187282b 	sltu	a1,t4,a3
9d006e44:	14a00006 	bnez	a1,9d006e60 <__umoddi3+0x2b0>
9d006e48:	2468ffff 	addiu	t0,v1,-1
9d006e4c:	018f282b 	sltu	a1,t4,t7
9d006e50:	50a00004 	beqzl	a1,9d006e64 <__umoddi3+0x2b4>
9d006e54:	018f6023 	subu	t4,t4,t7
9d006e58:	2468fffe 	addiu	t0,v1,-2
9d006e5c:	01876021 	addu	t4,t4,a3
9d006e60:	018f6023 	subu	t4,t4,t7
9d006e64:	3042ffff 	andi	v0,v0,0xffff
9d006e68:	0189001b 	divu	zero,t4,t1
9d006e6c:	012001f4 	teq	t1,zero,0x7
9d006e70:	00002810 	mfhi	a1
9d006e74:	00001812 	mflo	v1
9d006e78:	00006812 	mflo	t5
9d006e7c:	706e7002 	mul	t6,v1,t6
9d006e80:	00052c00 	sll	a1,a1,0x10
9d006e84:	00a21025 	or	v0,a1,v0
9d006e88:	004e282b 	sltu	a1,v0,t6
9d006e8c:	0189001b 	divu	zero,t4,t1
9d006e90:	012001f4 	teq	t1,zero,0x7
9d006e94:	50a00006 	beqzl	a1,9d006eb0 <__umoddi3+0x300>
9d006e98:	00084400 	sll	t0,t0,0x10
9d006e9c:	00471021 	addu	v0,v0,a3
9d006ea0:	0047282b 	sltu	a1,v0,a3
9d006ea4:	10a0004c 	beqz	a1,9d006fd8 <__umoddi3+0x428>
9d006ea8:	246dffff 	addiu	t5,v1,-1
9d006eac:	00084400 	sll	t0,t0,0x10
9d006eb0:	01a84025 	or	t0,t5,t0
9d006eb4:	004e1023 	subu	v0,v0,t6
9d006eb8:	01060019 	multu	t0,a2
9d006ebc:	00004810 	mfhi	t1
9d006ec0:	0049182b 	sltu	v1,v0,t1
9d006ec4:	1460003e 	bnez	v1,9d006fc0 <__umoddi3+0x410>
9d006ec8:	00004012 	mflo	t0
9d006ecc:	1049004b 	beq	v0,t1,9d006ffc <__umoddi3+0x44c>
9d006ed0:	00491823 	subu	v1,v0,t1
9d006ed4:	00003012 	mflo	a2
9d006ed8:	00863023 	subu	a2,a0,a2
9d006edc:	0086202b 	sltu	a0,a0,a2
9d006ee0:	00641823 	subu	v1,v1,a0
9d006ee4:	01631004 	sllv	v0,v1,t3
9d006ee8:	01463006 	srlv	a2,a2,t2
9d006eec:	00461025 	or	v0,v0,a2
9d006ef0:	01431806 	srlv	v1,v1,t2
9d006ef4:	03e00008 	jr	ra
9d006ef8:	00000000 	nop
9d006efc:	24090020 	li	t1,32
9d006f00:	01224823 	subu	t1,t1,v0
9d006f04:	01255006 	srlv	t2,a1,t1
9d006f08:	00081c02 	srl	v1,t0,0x10
9d006f0c:	0143001b 	divu	zero,t2,v1
9d006f10:	006001f4 	teq	v1,zero,0x7
9d006f14:	00003010 	mfhi	a2
9d006f18:	00005812 	mflo	t3
9d006f1c:	3107ffff 	andi	a3,t0,0xffff
9d006f20:	00452804 	sllv	a1,a1,v0
9d006f24:	01244806 	srlv	t1,a0,t1
9d006f28:	01252825 	or	a1,t1,a1
9d006f2c:	00056402 	srl	t4,a1,0x10
9d006f30:	00444804 	sllv	t1,a0,v0
9d006f34:	71675802 	mul	t3,t3,a3
9d006f38:	00063400 	sll	a2,a2,0x10
9d006f3c:	01863025 	or	a2,t4,a2
9d006f40:	00cb202b 	sltu	a0,a2,t3
9d006f44:	0143001b 	divu	zero,t2,v1
9d006f48:	006001f4 	teq	v1,zero,0x7
9d006f4c:	50800006 	beqzl	a0,9d006f68 <__umoddi3+0x3b8>
9d006f50:	00cb3023 	subu	a2,a2,t3
9d006f54:	00c83021 	addu	a2,a2,t0
9d006f58:	00c8202b 	sltu	a0,a2,t0
9d006f5c:	10800024 	beqz	a0,9d006ff0 <__umoddi3+0x440>
9d006f60:	00cb502b 	sltu	t2,a2,t3
9d006f64:	00cb3023 	subu	a2,a2,t3
9d006f68:	30aaffff 	andi	t2,a1,0xffff
9d006f6c:	00c3001b 	divu	zero,a2,v1
9d006f70:	006001f4 	teq	v1,zero,0x7
9d006f74:	00002010 	mfhi	a0
9d006f78:	00002812 	mflo	a1
9d006f7c:	70a72802 	mul	a1,a1,a3
9d006f80:	00042400 	sll	a0,a0,0x10
9d006f84:	008a2025 	or	a0,a0,t2
9d006f88:	0085502b 	sltu	t2,a0,a1
9d006f8c:	00c3001b 	divu	zero,a2,v1
9d006f90:	006001f4 	teq	v1,zero,0x7
9d006f94:	5140ff60 	beqzl	t2,9d006d18 <__umoddi3+0x168>
9d006f98:	00852823 	subu	a1,a0,a1
9d006f9c:	00882021 	addu	a0,a0,t0
9d006fa0:	0088302b 	sltu	a2,a0,t0
9d006fa4:	54c0ff5c 	bnezl	a2,9d006d18 <__umoddi3+0x168>
9d006fa8:	00852823 	subu	a1,a0,a1
9d006fac:	0085502b 	sltu	t2,a0,a1
9d006fb0:	00883021 	addu	a2,a0,t0
9d006fb4:	00ca200b 	movn	a0,a2,t2
9d006fb8:	0b401b46 	j	9d006d18 <__umoddi3+0x168>
9d006fbc:	00852823 	subu	a1,a0,a1
9d006fc0:	01063023 	subu	a2,t0,a2
9d006fc4:	01271823 	subu	v1,t1,a3
9d006fc8:	0106402b 	sltu	t0,t0,a2
9d006fcc:	00681823 	subu	v1,v1,t0
9d006fd0:	0b401bb6 	j	9d006ed8 <__umoddi3+0x328>
9d006fd4:	00431823 	subu	v1,v0,v1
9d006fd8:	004e282b 	sltu	a1,v0,t6
9d006fdc:	50a0ffb4 	beqzl	a1,9d006eb0 <__umoddi3+0x300>
9d006fe0:	00084400 	sll	t0,t0,0x10
9d006fe4:	246dfffe 	addiu	t5,v1,-2
9d006fe8:	0b401bab 	j	9d006eac <__umoddi3+0x2fc>
9d006fec:	00471021 	addu	v0,v0,a3
9d006ff0:	00c82021 	addu	a0,a2,t0
9d006ff4:	0b401bd9 	j	9d006f64 <__umoddi3+0x3b4>
9d006ff8:	008a300b 	movn	a2,a0,t2
9d006ffc:	0088182b 	sltu	v1,a0,t0
9d007000:	5460fff0 	bnezl	v1,9d006fc4 <__umoddi3+0x414>
9d007004:	01063023 	subu	a2,t0,a2
9d007008:	00003012 	mflo	a2
9d00700c:	0b401bb6 	j	9d006ed8 <__umoddi3+0x328>
9d007010:	00001821 	move	v1,zero

// wait for the peripheral master port (PMP) to be ready
// should be called before every read and write operation
static void waitPMP(void)
{
  while(PMMODEbits.BUSY) { ; }
9d007014:	3c03bf80 	lui	v1,0xbf80
9d007018:	8c627010 	lw	v0,28688(v1)
9d00701c:	30428000 	andi	v0,v0,0x8000
9d007020:	1440fffd 	bnez	v0,9d007018 <__umoddi3+0x468>
9d007024:	00000000 	nop
}
9d007028:	03e00008 	jr	ra
9d00702c:	00000000 	nop

9d007030 <LCD_Read>:
  PMDIN = data;        // send the data
}

// read data from the LCD.  
// rs : the value of the RS signal 0 for instructions status, 1 for data
unsigned char LCD_Read(int rs) {
9d007030:	27bdffe0 	addiu	sp,sp,-32
9d007034:	afbf001c 	sw	ra,28(sp)
9d007038:	afb00018 	sw	s0,24(sp)
  volatile unsigned char val = 0; // volatile so 1st read doesn't get optimized away
9d00703c:	a3a00010 	sb	zero,16(sp)
  if(rs) { // 1 to read data
9d007040:	10800005 	beqz	a0,9d007058 <LCD_Read+0x28>
9d007044:	24030400 	li	v1,1024
    PMADDRSET = 1 << PMABIT;
9d007048:	3c02bf80 	lui	v0,0xbf80
9d00704c:	ac437028 	sw	v1,28712(v0)
9d007050:	0b401c18 	j	9d007060 <LCD_Read+0x30>
9d007054:	00000000 	nop
  } else { // 0 to read command status
    PMADDRCLR = 1 << PMABIT;
9d007058:	3c02bf80 	lui	v0,0xbf80
9d00705c:	ac437024 	sw	v1,28708(v0)
  }
  // from the PIC32 reference manual, you must read twice to actually get the data
  waitPMP();                  // wait for the PMP to be ready
9d007060:	0f401c05 	jal	9d007014 <__umoddi3+0x464>
9d007064:	3c10bf80 	lui	s0,0xbf80
  val = PMDIN;
9d007068:	8e027040 	lw	v0,28736(s0)
9d00706c:	304200ff 	andi	v0,v0,0xff
9d007070:	a3a20010 	sb	v0,16(sp)
  waitPMP();
9d007074:	0f401c05 	jal	9d007014 <__umoddi3+0x464>
9d007078:	00000000 	nop
  val = PMDIN;
9d00707c:	8e027040 	lw	v0,28736(s0)
9d007080:	304200ff 	andi	v0,v0,0xff
9d007084:	a3a20010 	sb	v0,16(sp)
  return val;
9d007088:	93a20010 	lbu	v0,16(sp)
}
9d00708c:	304200ff 	andi	v0,v0,0xff
9d007090:	8fbf001c 	lw	ra,28(sp)
9d007094:	8fb00018 	lw	s0,24(sp)
9d007098:	03e00008 	jr	ra
9d00709c:	27bd0020 	addiu	sp,sp,32

9d0070a0 <LCD_Write>:
}

// Write data to the LCD and wait for it to finish by checking the busy flag. 
// rs : the value of the RS signal, 0 for an instruction 1 for data
// data : the byte to send
void LCD_Write(int rs, unsigned char data) {
9d0070a0:	27bdffd8 	addiu	sp,sp,-40
9d0070a4:	afbf0024 	sw	ra,36(sp)
9d0070a8:	afb10020 	sw	s1,32(sp)
9d0070ac:	afb0001c 	sw	s0,28(sp)
9d0070b0:	00808021 	move	s0,a0
9d0070b4:	30b100ff 	andi	s1,a1,0xff
}

// wait for the LCD to finish its command.
// We check this by reading from the LCD
static void waitLCD() {
  volatile unsigned char val = 0x80;
9d0070b8:	2402ff80 	li	v0,-128
9d0070bc:	a3a20010 	sb	v0,16(sp)
  
  // Read from the LCD until the Busy flag (BF, 7th bit) is 0
  while (val & 0x80) {
9d0070c0:	93a20010 	lbu	v0,16(sp)
9d0070c4:	7c021420 	seb	v0,v0
9d0070c8:	04410008 	bgez	v0,9d0070ec <LCD_Write+0x4c>
9d0070cc:	24020032 	li	v0,50
    val = LCD_Read(0);
9d0070d0:	0f401c0c 	jal	9d007030 <LCD_Read>
9d0070d4:	00002021 	move	a0,zero
9d0070d8:	a3a20010 	sb	v0,16(sp)
// We check this by reading from the LCD
static void waitLCD() {
  volatile unsigned char val = 0x80;
  
  // Read from the LCD until the Busy flag (BF, 7th bit) is 0
  while (val & 0x80) {
9d0070dc:	93a20010 	lbu	v0,16(sp)
9d0070e0:	7c021420 	seb	v0,v0
9d0070e4:	0440fffa 	bltz	v0,9d0070d0 <LCD_Write+0x30>
9d0070e8:	24020032 	li	v0,50
    val = LCD_Read(0);
  }
  int i = 0;
  for(i = 0; i < 50; ++i) { // slight delay
    _nop();
9d0070ec:	00000040 	ssnop
9d0070f0:	2442ffff 	addiu	v0,v0,-1
  // Read from the LCD until the Busy flag (BF, 7th bit) is 0
  while (val & 0x80) {
    val = LCD_Read(0);
  }
  int i = 0;
  for(i = 0; i < 50; ++i) { // slight delay
9d0070f4:	1440fffd 	bnez	v0,9d0070ec <LCD_Write+0x4c>
9d0070f8:	00000000 	nop
// Write data to the LCD and wait for it to finish by checking the busy flag. 
// rs : the value of the RS signal, 0 for an instruction 1 for data
// data : the byte to send
void LCD_Write(int rs, unsigned char data) {
  waitLCD();           // wait for the LCD to be ready
  if(rs) { // 1 for data
9d0070fc:	12000004 	beqz	s0,9d007110 <LCD_Write+0x70>
9d007100:	24030400 	li	v1,1024
    PMADDRSET = 1 << PMABIT;
9d007104:	3c02bf80 	lui	v0,0xbf80
9d007108:	0b401c46 	j	9d007118 <LCD_Write+0x78>
9d00710c:	ac437028 	sw	v1,28712(v0)
  } else { // 0 for command
    PMADDRCLR = 1 << PMABIT; 
9d007110:	3c02bf80 	lui	v0,0xbf80
9d007114:	ac437024 	sw	v1,28708(v0)
  }
  waitPMP();           // Wait for the PMP to be ready
9d007118:	0f401c05 	jal	9d007014 <__umoddi3+0x464>
9d00711c:	00000000 	nop
  PMDIN = data;        // send the data
9d007120:	3c02bf80 	lui	v0,0xbf80
9d007124:	ac517040 	sw	s1,28736(v0)
}
9d007128:	0b401c4c 	j	9d007130 <LCD_Write+0x90>
9d00712c:	8fbf0024 	lw	ra,36(sp)
9d007130:	8fb10020 	lw	s1,32(sp)
9d007134:	8fb0001c 	lw	s0,28(sp)
9d007138:	03e00008 	jr	ra
9d00713c:	27bd0028 	addiu	sp,sp,40

9d007140 <LCD_Clear>:
    __builtin_enable_interrupts();
  }
}

// Clears the display and returns to the home position (0,0)
void LCD_Clear(void) {
9d007140:	27bdffe8 	addiu	sp,sp,-24
9d007144:	afbf0014 	sw	ra,20(sp)
  LCD_Write(0,0x01); //clear the whole screen
9d007148:	00002021 	move	a0,zero
9d00714c:	0f401c28 	jal	9d0070a0 <LCD_Write>
9d007150:	24050001 	li	a1,1
}
9d007154:	8fbf0014 	lw	ra,20(sp)
9d007158:	03e00008 	jr	ra
9d00715c:	27bd0018 	addiu	sp,sp,24

9d007160 <LCD_Home>:

// Return the cursor and display to the home position (0,0)
void LCD_Home(void) {
9d007160:	27bdffe8 	addiu	sp,sp,-24
9d007164:	afbf0014 	sw	ra,20(sp)
  LCD_Write(0,0x02);
9d007168:	00002021 	move	a0,zero
9d00716c:	0f401c28 	jal	9d0070a0 <LCD_Write>
9d007170:	24050002 	li	a1,2
}
9d007174:	8fbf0014 	lw	ra,20(sp)
9d007178:	03e00008 	jr	ra
9d00717c:	27bd0018 	addiu	sp,sp,24

9d007180 <LCD_Entry>:

// Issue the LCD entry mode set command
// This tells the LCD what to do after writing a character
// id : 1 increment cursor, 0 decrement cursor
// s : 1 shift display right, 0 don't shift display
void LCD_Entry(int id, int s) {
9d007180:	27bdffe8 	addiu	sp,sp,-24
9d007184:	afbf0014 	sw	ra,20(sp)
  LCD_Write(0, 0x04 | (id << 1) | s);
9d007188:	34a50004 	ori	a1,a1,0x4
9d00718c:	00042040 	sll	a0,a0,0x1
9d007190:	00a42825 	or	a1,a1,a0
9d007194:	00002021 	move	a0,zero
9d007198:	0f401c28 	jal	9d0070a0 <LCD_Write>
9d00719c:	30a500ff 	andi	a1,a1,0xff
}
9d0071a0:	8fbf0014 	lw	ra,20(sp)
9d0071a4:	03e00008 	jr	ra
9d0071a8:	27bd0018 	addiu	sp,sp,24

9d0071ac <LCD_Display>:
// Issue the LCD Display command
// Changes display settings
// d : 1 display on, 0 display off
// c : 1 cursor on, 0 cursor off
// b : 1 cursor blinks, 0 cursor doesn't blink
void LCD_Display(int d, int c, int b) {
9d0071ac:	27bdffe8 	addiu	sp,sp,-24
9d0071b0:	afbf0014 	sw	ra,20(sp)
  LCD_Write(0, 0x08 | (d << 2) | (c << 1) | b);
9d0071b4:	34c60008 	ori	a2,a2,0x8
9d0071b8:	00052840 	sll	a1,a1,0x1
9d0071bc:	00c53025 	or	a2,a2,a1
9d0071c0:	00042080 	sll	a0,a0,0x2
9d0071c4:	00c42825 	or	a1,a2,a0
9d0071c8:	00002021 	move	a0,zero
9d0071cc:	0f401c28 	jal	9d0070a0 <LCD_Write>
9d0071d0:	30a500ff 	andi	a1,a1,0xff
}
9d0071d4:	8fbf0014 	lw	ra,20(sp)
9d0071d8:	03e00008 	jr	ra
9d0071dc:	27bd0018 	addiu	sp,sp,24

9d0071e0 <LCD_Shift>:

// Issue the LCD display shift command
// Move the cursor or the display right or left
// sc : 0 shift cursor, 1 shift display
// rl : 0 to the left, 1 to the right
void LCD_Shift(int sc, int rl) {
9d0071e0:	27bdffe8 	addiu	sp,sp,-24
9d0071e4:	afbf0014 	sw	ra,20(sp)
  LCD_Write(0,0x1 | (sc << 3) | (rl << 2));
9d0071e8:	00052880 	sll	a1,a1,0x2
9d0071ec:	34a50001 	ori	a1,a1,0x1
9d0071f0:	000420c0 	sll	a0,a0,0x3
9d0071f4:	00a42825 	or	a1,a1,a0
9d0071f8:	00002021 	move	a0,zero
9d0071fc:	0f401c28 	jal	9d0070a0 <LCD_Write>
9d007200:	30a500fd 	andi	a1,a1,0xfd
}
9d007204:	8fbf0014 	lw	ra,20(sp)
9d007208:	03e00008 	jr	ra
9d00720c:	27bd0018 	addiu	sp,sp,24

9d007210 <LCD_Function>:
// Issue the LCD Functions set command
// This controls some LCD settings
// You may want to clear the screen after calling this
// n : 0 one line, 1 two lines
// f : 0 small font, 1 large font (only if n == 0)
void LCD_Function(int n, int f) {
9d007210:	27bdffe8 	addiu	sp,sp,-24
9d007214:	afbf0014 	sw	ra,20(sp)
  LCD_Write(0, 0x30 | (n << 3) | (f << 2));
9d007218:	00052880 	sll	a1,a1,0x2
9d00721c:	34a50030 	ori	a1,a1,0x30
9d007220:	000420c0 	sll	a0,a0,0x3
9d007224:	00a42825 	or	a1,a1,a0
9d007228:	00002021 	move	a0,zero
9d00722c:	0f401c28 	jal	9d0070a0 <LCD_Write>
9d007230:	30a500fc 	andi	a1,a1,0xfc
}
9d007234:	8fbf0014 	lw	ra,20(sp)
9d007238:	03e00008 	jr	ra
9d00723c:	27bd0018 	addiu	sp,sp,24

9d007240 <LCD_Move>:

// Move the cursor to the desired line and column
// Does this by issuing a DDRAM Move instruction
// line : line 0 or line 1
// col  : the desired column
void LCD_Move(int line, int col) {
9d007240:	27bdffe8 	addiu	sp,sp,-24
9d007244:	afbf0014 	sw	ra,20(sp)
  LCD_Write(0, 0x80 | (line << 6) | col);
9d007248:	2402ff80 	li	v0,-128
9d00724c:	00a22825 	or	a1,a1,v0
9d007250:	00042180 	sll	a0,a0,0x6
9d007254:	00a42825 	or	a1,a1,a0
9d007258:	00002021 	move	a0,zero
9d00725c:	0f401c28 	jal	9d0070a0 <LCD_Write>
9d007260:	30a500ff 	andi	a1,a1,0xff
}
9d007264:	8fbf0014 	lw	ra,20(sp)
9d007268:	03e00008 	jr	ra
9d00726c:	27bd0018 	addiu	sp,sp,24

9d007270 <LCD_CMove>:

// Sets the CGRAM address, used for creating custom
// characters
// addr address in the CGRAM to make current
void LCD_CMove(unsigned char addr) {
9d007270:	27bdffe8 	addiu	sp,sp,-24
9d007274:	afbf0014 	sw	ra,20(sp)
9d007278:	308500ff 	andi	a1,a0,0xff
  LCD_Write(0, 0x40 | addr);
9d00727c:	00002021 	move	a0,zero
9d007280:	0f401c28 	jal	9d0070a0 <LCD_Write>
9d007284:	34a50040 	ori	a1,a1,0x40
}
9d007288:	8fbf0014 	lw	ra,20(sp)
9d00728c:	03e00008 	jr	ra
9d007290:	27bd0018 	addiu	sp,sp,24

9d007294 <LCD_WriteChar>:

// Writes the character to the LCD at the current position
void LCD_WriteChar(char c) {         
9d007294:	27bdffe8 	addiu	sp,sp,-24
9d007298:	afbf0014 	sw	ra,20(sp)
  LCD_Write(1, c); 
9d00729c:	308500ff 	andi	a1,a0,0xff
9d0072a0:	0f401c28 	jal	9d0070a0 <LCD_Write>
9d0072a4:	24040001 	li	a0,1
}
9d0072a8:	8fbf0014 	lw	ra,20(sp)
9d0072ac:	03e00008 	jr	ra
9d0072b0:	27bd0018 	addiu	sp,sp,24

9d0072b4 <LCD_WriteString>:

// Write a string to the LCD starting at the current cursor
void LCD_WriteString(const char *str) {
9d0072b4:	27bdffe8 	addiu	sp,sp,-24
9d0072b8:	afbf0014 	sw	ra,20(sp)
9d0072bc:	afb00010 	sw	s0,16(sp)
9d0072c0:	00808021 	move	s0,a0
  while(*str) {
9d0072c4:	80840000 	lb	a0,0(a0)
9d0072c8:	10800006 	beqz	a0,9d0072e4 <LCD_WriteString+0x30>
9d0072cc:	8fbf0014 	lw	ra,20(sp)
    LCD_WriteChar(*str); // increment string pointer after char sent
9d0072d0:	0f401ca5 	jal	9d007294 <LCD_WriteChar>
9d0072d4:	26100001 	addiu	s0,s0,1
  LCD_Write(1, c); 
}

// Write a string to the LCD starting at the current cursor
void LCD_WriteString(const char *str) {
  while(*str) {
9d0072d8:	82040000 	lb	a0,0(s0)
9d0072dc:	1480fffc 	bnez	a0,9d0072d0 <LCD_WriteString+0x1c>
9d0072e0:	8fbf0014 	lw	ra,20(sp)
    LCD_WriteChar(*str); // increment string pointer after char sent
    ++str;
  }
}
9d0072e4:	8fb00010 	lw	s0,16(sp)
9d0072e8:	03e00008 	jr	ra
9d0072ec:	27bd0018 	addiu	sp,sp,24

9d0072f0 <LCD_CustomChar>:
// Make val a custom character.  This only implements 
// The small font version
// val : between 0 and 7
// data : 7 character array.  The first 5 bits of each character
//        determine whether that pixel is on or off
void LCD_CustomChar(unsigned char val, const char * data) {
9d0072f0:	27bdffd8 	addiu	sp,sp,-40
9d0072f4:	afbf0024 	sw	ra,36(sp)
9d0072f8:	afb30020 	sw	s3,32(sp)
9d0072fc:	afb2001c 	sw	s2,28(sp)
9d007300:	afb10018 	sw	s1,24(sp)
9d007304:	afb00014 	sw	s0,20(sp)
9d007308:	00a09821 	move	s3,a1
  int i = 0;
  for(i = 0; i < 7; ++i) {
    LCD_CMove(((val & 7) << 2) | i);
9d00730c:	30840007 	andi	a0,a0,0x7
9d007310:	00049080 	sll	s2,a0,0x2
// val : between 0 and 7
// data : 7 character array.  The first 5 bits of each character
//        determine whether that pixel is on or off
void LCD_CustomChar(unsigned char val, const char * data) {
  int i = 0;
  for(i = 0; i < 7; ++i) {
9d007314:	00008021 	move	s0,zero
9d007318:	24110007 	li	s1,7
    LCD_CMove(((val & 7) << 2) | i);
9d00731c:	02502025 	or	a0,s2,s0
9d007320:	0f401c9c 	jal	9d007270 <LCD_CMove>
9d007324:	308400ff 	andi	a0,a0,0xff
9d007328:	02701021 	addu	v0,s3,s0
    LCD_Write(1, data[i]);
9d00732c:	24040001 	li	a0,1
9d007330:	0f401c28 	jal	9d0070a0 <LCD_Write>
9d007334:	90450000 	lbu	a1,0(v0)
// val : between 0 and 7
// data : 7 character array.  The first 5 bits of each character
//        determine whether that pixel is on or off
void LCD_CustomChar(unsigned char val, const char * data) {
  int i = 0;
  for(i = 0; i < 7; ++i) {
9d007338:	26100001 	addiu	s0,s0,1
9d00733c:	1611fff8 	bne	s0,s1,9d007320 <LCD_CustomChar+0x30>
9d007340:	02502025 	or	a0,s2,s0
    LCD_CMove(((val & 7) << 2) | i);
    LCD_Write(1, data[i]);
  }
}
9d007344:	8fbf0024 	lw	ra,36(sp)
9d007348:	8fb30020 	lw	s3,32(sp)
9d00734c:	8fb2001c 	lw	s2,28(sp)
9d007350:	8fb10018 	lw	s1,24(sp)
9d007354:	8fb00014 	lw	s0,20(sp)
9d007358:	03e00008 	jr	ra
9d00735c:	27bd0028 	addiu	sp,sp,40

9d007360 <LCD_Setup>:
// pins RE0 - RE7 (PMD0 - PMD7) connect to LCD pins D0 - D7
// pin RD4 (PMENB) connects to LCD pin E
// pin RD5 (PMRD/PMWR) Connects to LCD pin R/W
// pin RB13 (PMA10) Connects to RS.
// interrupts will be disabled while this function executes
void LCD_Setup() {
9d007360:	27bdffe8 	addiu	sp,sp,-24
9d007364:	afbf0014 	sw	ra,20(sp)
9d007368:	afb00010 	sw	s0,16(sp)
  int en = __builtin_disable_interrupts();  // disable interrupts, remember initial state
9d00736c:	41706000 	di	s0
9d007370:	000000c0 	ehb
  
  IEC1bits.PMPIE = 0;    // disable PMP interrupts
9d007374:	3c02bf88 	lui	v0,0xbf88
9d007378:	8c431070 	lw	v1,4208(v0)
9d00737c:	7c031084 	ins	v1,zero,0x2,0x1
9d007380:	ac431070 	sw	v1,4208(v0)
  PMCON = 0;             // clear PMCON, like it is on reset
9d007384:	3c02bf80 	lui	v0,0xbf80
9d007388:	ac407000 	sw	zero,28672(v0)
  PMCONbits.PTWREN = 1;  // PMENB strobe enabled
9d00738c:	3c02bf80 	lui	v0,0xbf80
9d007390:	94437000 	lhu	v1,28672(v0)
9d007394:	24040001 	li	a0,1
9d007398:	7c834a44 	ins	v1,a0,0x9,0x1
9d00739c:	a4437000 	sh	v1,28672(v0)
  PMCONbits.PTRDEN = 1;  // PMRD/PMWR enabled
9d0073a0:	94437000 	lhu	v1,28672(v0)
9d0073a4:	7c834204 	ins	v1,a0,0x8,0x1
9d0073a8:	a4437000 	sh	v1,28672(v0)
  PMCONbits.WRSP = 1;    // Read/write strobe is active high
9d0073ac:	94437000 	lhu	v1,28672(v0)
9d0073b0:	7c830844 	ins	v1,a0,0x1,0x1
9d0073b4:	a4437000 	sh	v1,28672(v0)
  PMCONbits.RDSP = 1;    // Read/write strobe is active high
9d0073b8:	94437000 	lhu	v1,28672(v0)
9d0073bc:	7c830004 	ins	v1,a0,0x0,0x1
9d0073c0:	a4437000 	sh	v1,28672(v0)

  PMMODE = 0;            // clear PMMODE like it is on reset
9d0073c4:	3c03bf80 	lui	v1,0xbf80
9d0073c8:	ac607010 	sw	zero,28688(v1)
  PMMODEbits.MODE = 0x3; // set master mode 1, which uses a single strobe
9d0073cc:	3c03bf80 	lui	v1,0xbf80
9d0073d0:	94657010 	lhu	a1,28688(v1)
9d0073d4:	24060003 	li	a2,3
9d0073d8:	7cc54a04 	ins	a1,a2,0x8,0x2
9d0073dc:	a4657010 	sh	a1,28688(v1)
  // The cycle is started when reading from or writing to the PMDIN SFR.
  // Note that the wait states for writes start with minimum of 1 (except WAITE)
  // We add some extra wait states to make sure we meet the time and
  // account for variations in timing amongst different HD44780 compatible parts.
  // The timing we use here is for the KS066U which is faster than the HD44780.
  PMMODEbits.WAITB = 0x3;  // Tas in the LCD datasheet is 60 ns 
9d0073e0:	94657010 	lhu	a1,28688(v1)
9d0073e4:	7cc53984 	ins	a1,a2,0x6,0x2
9d0073e8:	a4657010 	sh	a1,28688(v1)
  PMMODEbits.WAITM = 0xF;  // PWeh in the data sheet is 230 ns (we don't quite meet this)
9d0073ec:	94657010 	lhu	a1,28688(v1)
9d0073f0:	2406000f 	li	a2,15
9d0073f4:	7cc52884 	ins	a1,a2,0x2,0x4
9d0073f8:	a4657010 	sh	a1,28688(v1)
                           // If not working for your LCD you may need to reduce PBCLK
  PMMODEbits.WAITE = 0x1;  // after E is low wait Tah (10ns)
9d0073fc:	94657010 	lhu	a1,28688(v1)
9d007400:	7c850804 	ins	a1,a0,0x0,0x2
9d007404:	a4657010 	sh	a1,28688(v1)

  PMAEN |= 1 << PMABIT;   // PMA is an address line
9d007408:	3c03bf80 	lui	v1,0xbf80
9d00740c:	8c657050 	lw	a1,28752(v1)
9d007410:	34a50400 	ori	a1,a1,0x400
9d007414:	ac657050 	sw	a1,28752(v1)
  
  PMCONbits.ON = 1;        // enable the PMP peripheral
9d007418:	94437000 	lhu	v1,28672(v0)
9d00741c:	7c837bc4 	ins	v1,a0,0xf,0x1
9d007420:	a4437000 	sh	v1,28672(v0)
// This controls some LCD settings
// You may want to clear the screen after calling this
// n : 0 one line, 1 two lines
// f : 0 small font, 1 large font (only if n == 0)
void LCD_Function(int n, int f) {
  LCD_Write(0, 0x30 | (n << 3) | (f << 2));
9d007424:	00002021 	move	a0,zero
9d007428:	0f401c28 	jal	9d0070a0 <LCD_Write>
9d00742c:	24050038 	li	a1,56
// Changes display settings
// d : 1 display on, 0 display off
// c : 1 cursor on, 0 cursor off
// b : 1 cursor blinks, 0 cursor doesn't blink
void LCD_Display(int d, int c, int b) {
  LCD_Write(0, 0x08 | (d << 2) | (c << 1) | b);
9d007430:	00002021 	move	a0,zero
9d007434:	0f401c28 	jal	9d0070a0 <LCD_Write>
9d007438:	2405000c 	li	a1,12
  
  PMCONbits.ON = 1;        // enable the PMP peripheral
  // perform the initialization sequence
  LCD_Function(1,0);       // 2 line mode, small font
  LCD_Display(1, 0, 0);    // Display control: display on, cursor off, blinking cursor off
  LCD_Clear();             // clear the LCD 
9d00743c:	0f401c50 	jal	9d007140 <LCD_Clear>
9d007440:	32100001 	andi	s0,s0,0x1
// Issue the LCD entry mode set command
// This tells the LCD what to do after writing a character
// id : 1 increment cursor, 0 decrement cursor
// s : 1 shift display right, 0 don't shift display
void LCD_Entry(int id, int s) {
  LCD_Write(0, 0x04 | (id << 1) | s);
9d007444:	00002021 	move	a0,zero
9d007448:	0f401c28 	jal	9d0070a0 <LCD_Write>
9d00744c:	24050006 	li	a1,6
  LCD_Function(1,0);       // 2 line mode, small font
  LCD_Display(1, 0, 0);    // Display control: display on, cursor off, blinking cursor off
  LCD_Clear();             // clear the LCD 
  LCD_Entry(1, 0);         // Cursor moves left to right. do not shift the display
  
  if(en & 0x1)             // if interrupts were enabled before, re-enable them
9d007450:	12000003 	beqz	s0,9d007460 <LCD_Setup+0x100>
9d007454:	8fbf0014 	lw	ra,20(sp)
  {
    __builtin_enable_interrupts();
9d007458:	41626020 	ei	v0
  }
}
9d00745c:	8fbf0014 	lw	ra,20(sp)
9d007460:	8fb00010 	lw	s0,16(sp)
9d007464:	03e00008 	jr	ra
9d007468:	27bd0018 	addiu	sp,sp,24

9d00746c <__udivdi3>:
9d00746c:	00c04021 	move	t0,a2
9d007470:	00801021 	move	v0,a0
9d007474:	14e0003f 	bnez	a3,9d007574 <__udivdi3+0x108>
9d007478:	00a04821 	move	t1,a1
9d00747c:	00a6182b 	sltu	v1,a1,a2
9d007480:	10600047 	beqz	v1,9d0075a0 <__udivdi3+0x134>
9d007484:	70c31820 	clz	v1,a2
9d007488:	50600008 	beqzl	v1,9d0074ac <__udivdi3+0x40>
9d00748c:	00081c02 	srl	v1,t0,0x10
9d007490:	00034823 	negu	t1,v1
9d007494:	00652804 	sllv	a1,a1,v1
9d007498:	01244806 	srlv	t1,a0,t1
9d00749c:	00664004 	sllv	t0,a2,v1
9d0074a0:	01254825 	or	t1,t1,a1
9d0074a4:	00641004 	sllv	v0,a0,v1
9d0074a8:	00081c02 	srl	v1,t0,0x10
9d0074ac:	0123001b 	divu	zero,t1,v1
9d0074b0:	006001f4 	teq	v1,zero,0x7
9d0074b4:	00006010 	mfhi	t4
9d0074b8:	00005812 	mflo	t3
9d0074bc:	310affff 	andi	t2,t0,0xffff
9d0074c0:	00022402 	srl	a0,v0,0x10
9d0074c4:	00003012 	mflo	a2
9d0074c8:	716a3802 	mul	a3,t3,t2
9d0074cc:	000c6400 	sll	t4,t4,0x10
9d0074d0:	01842025 	or	a0,t4,a0
9d0074d4:	0087602b 	sltu	t4,a0,a3
9d0074d8:	0123001b 	divu	zero,t1,v1
9d0074dc:	006001f4 	teq	v1,zero,0x7
9d0074e0:	1180000b 	beqz	t4,9d007510 <__udivdi3+0xa4>
9d0074e4:	00872823 	subu	a1,a0,a3
9d0074e8:	00882021 	addu	a0,a0,t0
9d0074ec:	0088282b 	sltu	a1,a0,t0
9d0074f0:	14a00006 	bnez	a1,9d00750c <__udivdi3+0xa0>
9d0074f4:	2566ffff 	addiu	a2,t3,-1
9d0074f8:	0087282b 	sltu	a1,a0,a3
9d0074fc:	10a00004 	beqz	a1,9d007510 <__udivdi3+0xa4>
9d007500:	00872823 	subu	a1,a0,a3
9d007504:	2566fffe 	addiu	a2,t3,-2
9d007508:	00882021 	addu	a0,a0,t0
9d00750c:	00872823 	subu	a1,a0,a3
9d007510:	3042ffff 	andi	v0,v0,0xffff
9d007514:	00a3001b 	divu	zero,a1,v1
9d007518:	006001f4 	teq	v1,zero,0x7
9d00751c:	00004810 	mfhi	t1
9d007520:	00003812 	mflo	a3
9d007524:	00002012 	mflo	a0
9d007528:	70ea5002 	mul	t2,a3,t2
9d00752c:	00094c00 	sll	t1,t1,0x10
9d007530:	01221025 	or	v0,t1,v0
9d007534:	004a482b 	sltu	t1,v0,t2
9d007538:	00a3001b 	divu	zero,a1,v1
9d00753c:	006001f4 	teq	v1,zero,0x7
9d007540:	51200009 	beqzl	t1,9d007568 <__udivdi3+0xfc>
9d007544:	00061400 	sll	v0,a2,0x10
9d007548:	00481021 	addu	v0,v0,t0
9d00754c:	0048402b 	sltu	t0,v0,t0
9d007550:	15000004 	bnez	t0,9d007564 <__udivdi3+0xf8>
9d007554:	24e4ffff 	addiu	a0,a3,-1
9d007558:	004a502b 	sltu	t2,v0,t2
9d00755c:	24e7fffe 	addiu	a3,a3,-2
9d007560:	00ea200b 	movn	a0,a3,t2
9d007564:	00061400 	sll	v0,a2,0x10
9d007568:	00821025 	or	v0,a0,v0
9d00756c:	03e00008 	jr	ra
9d007570:	00001821 	move	v1,zero
9d007574:	00a7102b 	sltu	v0,a1,a3
9d007578:	14400044 	bnez	v0,9d00768c <__udivdi3+0x220>
9d00757c:	70e84020 	clz	t0,a3
9d007580:	55000045 	bnezl	t0,9d007698 <__udivdi3+0x22c>
9d007584:	24020020 	li	v0,32
9d007588:	00e5282b 	sltu	a1,a3,a1
9d00758c:	14a000c8 	bnez	a1,9d0078b0 <__udivdi3+0x444>
9d007590:	0086302b 	sltu	a2,a0,a2
9d007594:	38c20001 	xori	v0,a2,0x1
9d007598:	03e00008 	jr	ra
9d00759c:	00001821 	move	v1,zero
9d0075a0:	14c00006 	bnez	a2,9d0075bc <__udivdi3+0x150>
9d0075a4:	71031820 	clz	v1,t0
9d0075a8:	24030001 	li	v1,1
9d0075ac:	0066001b 	divu	zero,v1,a2
9d0075b0:	00c001f4 	teq	a2,zero,0x7
9d0075b4:	00004012 	mflo	t0
9d0075b8:	71031820 	clz	v1,t0
9d0075bc:	5460007b 	bnezl	v1,9d0077ac <__udivdi3+0x340>
9d0075c0:	00684004 	sllv	t0,t0,v1
9d0075c4:	00a82023 	subu	a0,a1,t0
9d0075c8:	00083c02 	srl	a3,t0,0x10
9d0075cc:	310bffff 	andi	t3,t0,0xffff
9d0075d0:	24030001 	li	v1,1
9d0075d4:	00023402 	srl	a2,v0,0x10
9d0075d8:	0087001b 	divu	zero,a0,a3
9d0075dc:	00e001f4 	teq	a3,zero,0x7
9d0075e0:	00006810 	mfhi	t5
9d0075e4:	00006012 	mflo	t4
9d0075e8:	00004812 	mflo	t1
9d0075ec:	718b5002 	mul	t2,t4,t3
9d0075f0:	000d6c00 	sll	t5,t5,0x10
9d0075f4:	01a63025 	or	a2,t5,a2
9d0075f8:	00ca682b 	sltu	t5,a2,t2
9d0075fc:	0087001b 	divu	zero,a0,a3
9d007600:	00e001f4 	teq	a3,zero,0x7
9d007604:	11a00009 	beqz	t5,9d00762c <__udivdi3+0x1c0>
9d007608:	00ca2823 	subu	a1,a2,t2
9d00760c:	00c83021 	addu	a2,a2,t0
9d007610:	00c8202b 	sltu	a0,a2,t0
9d007614:	14800004 	bnez	a0,9d007628 <__udivdi3+0x1bc>
9d007618:	2589ffff 	addiu	t1,t4,-1
9d00761c:	00ca202b 	sltu	a0,a2,t2
9d007620:	548000a6 	bnezl	a0,9d0078bc <__udivdi3+0x450>
9d007624:	2589fffe 	addiu	t1,t4,-2
9d007628:	00ca2823 	subu	a1,a2,t2
9d00762c:	3042ffff 	andi	v0,v0,0xffff
9d007630:	00a7001b 	divu	zero,a1,a3
9d007634:	00e001f4 	teq	a3,zero,0x7
9d007638:	00005010 	mfhi	t2
9d00763c:	00003012 	mflo	a2
9d007640:	00002012 	mflo	a0
9d007644:	70cb5802 	mul	t3,a2,t3
9d007648:	000a5400 	sll	t2,t2,0x10
9d00764c:	01421025 	or	v0,t2,v0
9d007650:	004b502b 	sltu	t2,v0,t3
9d007654:	00a7001b 	divu	zero,a1,a3
9d007658:	00e001f4 	teq	a3,zero,0x7
9d00765c:	51400009 	beqzl	t2,9d007684 <__udivdi3+0x218>
9d007660:	00091400 	sll	v0,t1,0x10
9d007664:	00481021 	addu	v0,v0,t0
9d007668:	0048402b 	sltu	t0,v0,t0
9d00766c:	15000004 	bnez	t0,9d007680 <__udivdi3+0x214>
9d007670:	24c4ffff 	addiu	a0,a2,-1
9d007674:	004b582b 	sltu	t3,v0,t3
9d007678:	24c6fffe 	addiu	a2,a2,-2
9d00767c:	00cb200b 	movn	a0,a2,t3
9d007680:	00091400 	sll	v0,t1,0x10
9d007684:	03e00008 	jr	ra
9d007688:	00821025 	or	v0,a0,v0
9d00768c:	00001821 	move	v1,zero
9d007690:	03e00008 	jr	ra
9d007694:	00001021 	move	v0,zero
9d007698:	00481023 	subu	v0,v0,t0
9d00769c:	01073804 	sllv	a3,a3,t0
9d0076a0:	00461806 	srlv	v1,a2,v0
9d0076a4:	00673825 	or	a3,v1,a3
9d0076a8:	00455006 	srlv	t2,a1,v0
9d0076ac:	00071c02 	srl	v1,a3,0x10
9d0076b0:	0143001b 	divu	zero,t2,v1
9d0076b4:	006001f4 	teq	v1,zero,0x7
9d0076b8:	00004810 	mfhi	t1
9d0076bc:	00006812 	mflo	t5
9d0076c0:	30ebffff 	andi	t3,a3,0xffff
9d0076c4:	01052804 	sllv	a1,a1,t0
9d0076c8:	00441006 	srlv	v0,a0,v0
9d0076cc:	00452825 	or	a1,v0,a1
9d0076d0:	00057402 	srl	t6,a1,0x10
9d0076d4:	00001012 	mflo	v0
9d0076d8:	71ab6002 	mul	t4,t5,t3
9d0076dc:	00094c00 	sll	t1,t1,0x10
9d0076e0:	012e4825 	or	t1,t1,t6
9d0076e4:	012c702b 	sltu	t6,t1,t4
9d0076e8:	0143001b 	divu	zero,t2,v1
9d0076ec:	006001f4 	teq	v1,zero,0x7
9d0076f0:	11c0000a 	beqz	t6,9d00771c <__udivdi3+0x2b0>
9d0076f4:	01063004 	sllv	a2,a2,t0
9d0076f8:	01274821 	addu	t1,t1,a3
9d0076fc:	0127502b 	sltu	t2,t1,a3
9d007700:	15400006 	bnez	t2,9d00771c <__udivdi3+0x2b0>
9d007704:	25a2ffff 	addiu	v0,t5,-1
9d007708:	012c502b 	sltu	t2,t1,t4
9d00770c:	51400004 	beqzl	t2,9d007720 <__udivdi3+0x2b4>
9d007710:	012c4823 	subu	t1,t1,t4
9d007714:	25a2fffe 	addiu	v0,t5,-2
9d007718:	01274821 	addu	t1,t1,a3
9d00771c:	012c4823 	subu	t1,t1,t4
9d007720:	30a5ffff 	andi	a1,a1,0xffff
9d007724:	0123001b 	divu	zero,t1,v1
9d007728:	006001f4 	teq	v1,zero,0x7
9d00772c:	00006810 	mfhi	t5
9d007730:	00006012 	mflo	t4
9d007734:	00005012 	mflo	t2
9d007738:	718b5802 	mul	t3,t4,t3
9d00773c:	000d6c00 	sll	t5,t5,0x10
9d007740:	01a52825 	or	a1,t5,a1
9d007744:	00ab682b 	sltu	t5,a1,t3
9d007748:	0123001b 	divu	zero,t1,v1
9d00774c:	006001f4 	teq	v1,zero,0x7
9d007750:	51a0000b 	beqzl	t5,9d007780 <__udivdi3+0x314>
9d007754:	00021400 	sll	v0,v0,0x10
9d007758:	00a72821 	addu	a1,a1,a3
9d00775c:	00a7182b 	sltu	v1,a1,a3
9d007760:	14600006 	bnez	v1,9d00777c <__udivdi3+0x310>
9d007764:	258affff 	addiu	t2,t4,-1
9d007768:	00ab182b 	sltu	v1,a1,t3
9d00776c:	50600004 	beqzl	v1,9d007780 <__udivdi3+0x314>
9d007770:	00021400 	sll	v0,v0,0x10
9d007774:	258afffe 	addiu	t2,t4,-2
9d007778:	00a72821 	addu	a1,a1,a3
9d00777c:	00021400 	sll	v0,v0,0x10
9d007780:	01421025 	or	v0,t2,v0
9d007784:	00ab2823 	subu	a1,a1,t3
9d007788:	00460019 	multu	v0,a2
9d00778c:	00003810 	mfhi	a3
9d007790:	00a7182b 	sltu	v1,a1,a3
9d007794:	14600044 	bnez	v1,9d0078a8 <__udivdi3+0x43c>
9d007798:	00003012 	mflo	a2
9d00779c:	10a7003f 	beq	a1,a3,9d00789c <__udivdi3+0x430>
9d0077a0:	01042004 	sllv	a0,a0,t0
9d0077a4:	03e00008 	jr	ra
9d0077a8:	00001821 	move	v1,zero
9d0077ac:	24020020 	li	v0,32
9d0077b0:	00431023 	subu	v0,v0,v1
9d0077b4:	00454806 	srlv	t1,a1,v0
9d0077b8:	00083c02 	srl	a3,t0,0x10
9d0077bc:	0127001b 	divu	zero,t1,a3
9d0077c0:	00e001f4 	teq	a3,zero,0x7
9d0077c4:	00003010 	mfhi	a2
9d0077c8:	00006012 	mflo	t4
9d0077cc:	310bffff 	andi	t3,t0,0xffff
9d0077d0:	00652804 	sllv	a1,a1,v1
9d0077d4:	00441006 	srlv	v0,a0,v0
9d0077d8:	00452825 	or	a1,v0,a1
9d0077dc:	00056c02 	srl	t5,a1,0x10
9d0077e0:	00641004 	sllv	v0,a0,v1
9d0077e4:	00001812 	mflo	v1
9d0077e8:	718b5002 	mul	t2,t4,t3
9d0077ec:	00063400 	sll	a2,a2,0x10
9d0077f0:	01a63025 	or	a2,t5,a2
9d0077f4:	00ca202b 	sltu	a0,a2,t2
9d0077f8:	0127001b 	divu	zero,t1,a3
9d0077fc:	00e001f4 	teq	a3,zero,0x7
9d007800:	5080000b 	beqzl	a0,9d007830 <__udivdi3+0x3c4>
9d007804:	00ca3023 	subu	a2,a2,t2
9d007808:	00c83021 	addu	a2,a2,t0
9d00780c:	00c8202b 	sltu	a0,a2,t0
9d007810:	14800006 	bnez	a0,9d00782c <__udivdi3+0x3c0>
9d007814:	2583ffff 	addiu	v1,t4,-1
9d007818:	00ca202b 	sltu	a0,a2,t2
9d00781c:	50800004 	beqzl	a0,9d007830 <__udivdi3+0x3c4>
9d007820:	00ca3023 	subu	a2,a2,t2
9d007824:	2583fffe 	addiu	v1,t4,-2
9d007828:	00c83021 	addu	a2,a2,t0
9d00782c:	00ca3023 	subu	a2,a2,t2
9d007830:	30acffff 	andi	t4,a1,0xffff
9d007834:	00c7001b 	divu	zero,a2,a3
9d007838:	00e001f4 	teq	a3,zero,0x7
9d00783c:	00002010 	mfhi	a0
9d007840:	00005012 	mflo	t2
9d007844:	00004812 	mflo	t1
9d007848:	714b2802 	mul	a1,t2,t3
9d00784c:	00042400 	sll	a0,a0,0x10
9d007850:	008c2025 	or	a0,a0,t4
9d007854:	0085602b 	sltu	t4,a0,a1
9d007858:	00c7001b 	divu	zero,a2,a3
9d00785c:	00e001f4 	teq	a3,zero,0x7
9d007860:	5180000b 	beqzl	t4,9d007890 <__udivdi3+0x424>
9d007864:	00031c00 	sll	v1,v1,0x10
9d007868:	00882021 	addu	a0,a0,t0
9d00786c:	0088302b 	sltu	a2,a0,t0
9d007870:	14c00006 	bnez	a2,9d00788c <__udivdi3+0x420>
9d007874:	2549ffff 	addiu	t1,t2,-1
9d007878:	0085302b 	sltu	a2,a0,a1
9d00787c:	50c00004 	beqzl	a2,9d007890 <__udivdi3+0x424>
9d007880:	00031c00 	sll	v1,v1,0x10
9d007884:	2549fffe 	addiu	t1,t2,-2
9d007888:	00882021 	addu	a0,a0,t0
9d00788c:	00031c00 	sll	v1,v1,0x10
9d007890:	00852023 	subu	a0,a0,a1
9d007894:	0b401d75 	j	9d0075d4 <__udivdi3+0x168>
9d007898:	01231825 	or	v1,t1,v1
9d00789c:	0086302b 	sltu	a2,a0,a2
9d0078a0:	10c0ffc0 	beqz	a2,9d0077a4 <__udivdi3+0x338>
9d0078a4:	00000000 	nop
9d0078a8:	0b401de9 	j	9d0077a4 <__udivdi3+0x338>
9d0078ac:	2442ffff 	addiu	v0,v0,-1
9d0078b0:	00001821 	move	v1,zero
9d0078b4:	03e00008 	jr	ra
9d0078b8:	24020001 	li	v0,1
9d0078bc:	0b401d8a 	j	9d007628 <__udivdi3+0x1bc>
9d0078c0:	00c83021 	addu	a2,a2,t0

Disassembly of section .text.dp32subadd:

9d0078c4 <__subdf3>:
9d0078c4:	3c018000 00e13826                       ...<&8..

9d0078cc <__adddf3>:
9d0078cc:	00055840 000b5d42 000552c0 00047d42     @X..B]...R..B}..
9d0078dc:	014f5025 00044ac0 3c088000 01485025     %PO..J.....<%PH.
9d0078ec:	00077040 000e7542 00076ac0 00067d42     @p..Bu...j..B}..
9d0078fc:	01af6825 000662c0 01a86825 256fffff     %h...b..%h....o%
9d00790c:	2de107fe 1020008d 00000000              ...-.. .....

9d007918 <Blab1>:
9d007918:	25cfffff 	addiu	t7,t6,-1
9d00791c:	2de107fe 	sltiu	at,t7,2046
9d007920:	102000bb 	beqz	at,9d007c10 <BspecB>
9d007924:	00000000 	nop

9d007928 <Blab2>:
9d007928:	3c018000 	lui	at,0x8000
9d00792c:	00a12824 	and	a1,a1,at
9d007930:	016e4023 	subu	t0,t3,t6
9d007934:	1100002c 	beqz	t0,9d0079e8 <Badd3>
9d007938:	00000000 	nop
9d00793c:	19000015 	blez	t0,9d007994 <i1>
9d007940:	00000000 	nop

9d007944 <L1>:
9d007944:	2d010020 	sltiu	at,t0,32
9d007948:	14200007 	bnez	at,9d007968 <L2>
9d00794c:	00000000 	nop
9d007950:	2108ffe0 	addi	t0,t0,-32
9d007954:	000c302b 	sltu	a2,zero,t4
9d007958:	100d0023 	beq	zero,t5,9d0079e8 <Badd3>
9d00795c:	01a66025 	or	t4,t5,a2
9d007960:	1000fff8 	b	9d007944 <L1>
9d007964:	340d0000 	li	t5,0x0

9d007968 <L2>:
9d007968:	1100001f 	beqz	t0,9d0079e8 <Badd3>
9d00796c:	00000000 	nop
9d007970:	00082022 	neg	a0,t0
9d007974:	008c3004 	sllv	a2,t4,a0
9d007978:	008d2004 	sllv	a0,t5,a0
9d00797c:	010c6006 	srlv	t4,t4,t0
9d007980:	010d6806 	srlv	t5,t5,t0
9d007984:	10c00018 	beqz	a2,9d0079e8 <Badd3>
9d007988:	008c6025 	or	t4,a0,t4
9d00798c:	10000016 	b	9d0079e8 <Badd3>
9d007990:	358c0002 	ori	t4,t4,0x2

9d007994 <i1>:
9d007994:	000e5825 	or	t3,zero,t6
9d007998:	00084023 	negu	t0,t0

9d00799c <L4>:
9d00799c:	2d010020 	sltiu	at,t0,32
9d0079a0:	14200007 	bnez	at,9d0079c0 <L5>
9d0079a4:	00000000 	nop
9d0079a8:	2108ffe0 	addi	t0,t0,-32
9d0079ac:	0009302b 	sltu	a2,zero,t1
9d0079b0:	100a000d 	beq	zero,t2,9d0079e8 <Badd3>
9d0079b4:	01464825 	or	t1,t2,a2
9d0079b8:	1000fff8 	b	9d00799c <L4>
9d0079bc:	340a0000 	li	t2,0x0

9d0079c0 <L5>:
9d0079c0:	11000009 	beqz	t0,9d0079e8 <Badd3>
9d0079c4:	00000000 	nop
9d0079c8:	00082022 	neg	a0,t0
9d0079cc:	00893004 	sllv	a2,t1,a0
9d0079d0:	008a2004 	sllv	a0,t2,a0
9d0079d4:	01094806 	srlv	t1,t1,t0
9d0079d8:	010a5006 	srlv	t2,t2,t0
9d0079dc:	10c00002 	beqz	a2,9d0079e8 <Badd3>
9d0079e0:	00894825 	or	t1,a0,t1
9d0079e4:	35290002 	ori	t1,t1,0x2

9d0079e8 <Badd3>:
9d0079e8:	00a77826 	xor	t7,a1,a3
9d0079ec:	05e0001c 	bltz	t7,9d007a60 <Bsub1>
9d0079f0:	00000000 	nop
9d0079f4:	012c4821 	addu	t1,t1,t4
9d0079f8:	012c782b 	sltu	t7,t1,t4
9d0079fc:	014d5021 	addu	t2,t2,t5
9d007a00:	014f5021 	addu	t2,t2,t7
9d007a04:	114d0002 	beq	t2,t5,9d007a10 <L7>
9d007a08:	00000000 	nop
9d007a0c:	014d782b 	sltu	t7,t2,t5

9d007a10 <L7>:
9d007a10:	11e00037 	beqz	t7,9d007af0 <Bres>
9d007a14:	00000000 	nop
9d007a18:	312f0001 	andi	t7,t1,0x1
9d007a1c:	11e00002 	beqz	t7,9d007a28 <i3>
9d007a20:	00000000 	nop
9d007a24:	35290002 	ori	t1,t1,0x2

9d007a28 <i3>:
9d007a28:	00094842 	srl	t1,t1,0x1
9d007a2c:	000a7fc0 	sll	t7,t2,0x1f
9d007a30:	012f4825 	or	t1,t1,t7
9d007a34:	000a5042 	srl	t2,t2,0x1
9d007a38:	3c018000 	lui	at,0x8000
9d007a3c:	01415025 	or	t2,t2,at
9d007a40:	256b0001 	addiu	t3,t3,1
9d007a44:	240107ff 	li	at,2047
9d007a48:	15610029 	bne	t3,at,9d007af0 <Bres>
9d007a4c:	00000000 	nop
9d007a50:	3c017ff0 	lui	at,0x7ff0
9d007a54:	00a12825 	or	a1,a1,at
9d007a58:	10000037 	b	9d007b38 <BretA>
9d007a5c:	24040000 	li	a0,0

9d007a60 <Bsub1>:
9d007a60:	012c782b 	sltu	t7,t1,t4
9d007a64:	012c4823 	subu	t1,t1,t4
9d007a68:	014f102b 	sltu	v0,t2,t7
9d007a6c:	014f5023 	subu	t2,t2,t7
9d007a70:	014d782b 	sltu	t7,t2,t5
9d007a74:	01e27825 	or	t7,t7,v0
9d007a78:	11e00007 	beqz	t7,9d007a98 <i5>
9d007a7c:	014d5023 	subu	t2,t2,t5
9d007a80:	3c018000 	lui	at,0x8000
9d007a84:	00a12826 	xor	a1,a1,at
9d007a88:	0009782b 	sltu	t7,zero,t1
9d007a8c:	00094823 	negu	t1,t1
9d007a90:	000a5023 	negu	t2,t2
9d007a94:	014f5023 	subu	t2,t2,t7

9d007a98 <i5>:
9d007a98:	15400008 	bnez	t2,9d007abc <L8>
9d007a9c:	00000000 	nop
9d007aa0:	15200003 	bnez	t1,9d007ab0 <L9>
9d007aa4:	00000000 	nop
9d007aa8:	1000000d 	b	9d007ae0 <L10>
9d007aac:	240b0000 	li	t3,0

9d007ab0 <L9>:
9d007ab0:	01205025 	move	t2,t1
9d007ab4:	24090000 	li	t1,0
9d007ab8:	256bffe0 	addiu	t3,t3,-32

9d007abc <L8>:
9d007abc:	71484020 	clz	t0,t2
9d007ac0:	11000007 	beqz	t0,9d007ae0 <L10>
9d007ac4:	00000000 	nop
9d007ac8:	01685823 	subu	t3,t3,t0
9d007acc:	00082022 	neg	a0,t0
9d007ad0:	00892006 	srlv	a0,t1,a0
9d007ad4:	01094804 	sllv	t1,t1,t0
9d007ad8:	010a5004 	sllv	t2,t2,t0
9d007adc:	01445025 	or	t2,t2,a0

9d007ae0 <L10>:
9d007ae0:	01497825 	or	t7,t2,t1
9d007ae4:	15e00002 	bnez	t7,9d007af0 <Bres>
9d007ae8:	00000000 	nop
9d007aec:	24050000 	li	a1,0

9d007af0 <Bres>:
9d007af0:	19600068 	blez	t3,9d007c94 <Bund>
9d007af4:	00000000 	nop

9d007af8 <Blab8>:
9d007af8:	25290400 	addiu	t1,t1,1024
9d007afc:	2d2f0400 	sltiu	t7,t1,1024
9d007b00:	014f5021 	addu	t2,t2,t7
9d007b04:	014f782b 	sltu	t7,t2,t7
9d007b08:	016f5821 	addu	t3,t3,t7
9d007b0c:	00097ac2 	srl	t7,t1,0xb
9d007b10:	31ef0001 	andi	t7,t7,0x1
9d007b14:	012f4823 	subu	t1,t1,t7
9d007b18:	000922c2 	srl	a0,t1,0xb
9d007b1c:	000a7d40 	sll	t7,t2,0x15
9d007b20:	008f2025 	or	a0,a0,t7
9d007b24:	000a7840 	sll	t7,t2,0x1
9d007b28:	000f7b02 	srl	t7,t7,0xc
9d007b2c:	00af2825 	or	a1,a1,t7
9d007b30:	000b7d00 	sll	t7,t3,0x14
9d007b34:	00af2825 	or	a1,a1,t7

9d007b38 <BretA>:
9d007b38:	00041025 	or	v0,zero,a0
9d007b3c:	00051825 	or	v1,zero,a1

9d007b40 <B999>:
9d007b40:	03e00008 	jr	ra
9d007b44:	00000000 	nop

9d007b48 <BspecA>:
9d007b48:	0120782a 	slt	t7,t1,zero
9d007b4c:	01294821 	addu	t1,t1,t1
9d007b50:	014a5021 	addu	t2,t2,t2
9d007b54:	15600023 	bnez	t3,9d007be4 <i7>
9d007b58:	014f5021 	addu	t2,t2,t7
9d007b5c:	01497825 	or	t7,t2,t1
9d007b60:	11e00014 	beqz	t7,9d007bb4 <i8>
9d007b64:	00000000 	nop
9d007b68:	15400008 	bnez	t2,9d007b8c <L11>
9d007b6c:	00000000 	nop
9d007b70:	15200003 	bnez	t1,9d007b80 <L12>
9d007b74:	00000000 	nop
9d007b78:	1000ff67 	b	9d007918 <Blab1>
9d007b7c:	240b0000 	li	t3,0

9d007b80 <L12>:
9d007b80:	01205025 	move	t2,t1
9d007b84:	24090000 	li	t1,0
9d007b88:	256bffe0 	addiu	t3,t3,-32

9d007b8c <L11>:
9d007b8c:	71484020 	clz	t0,t2
9d007b90:	1100ff61 	beqz	t0,9d007918 <Blab1>
9d007b94:	00000000 	nop
9d007b98:	01685823 	subu	t3,t3,t0
9d007b9c:	00082022 	neg	a0,t0
9d007ba0:	00892006 	srlv	a0,t1,a0
9d007ba4:	01094804 	sllv	t1,t1,t0
9d007ba8:	010a5004 	sllv	t2,t2,t0
9d007bac:	1000ff5a 	b	9d007918 <Blab1>
9d007bb0:	01445025 	or	t2,t2,a0

9d007bb4 <i8>:
9d007bb4:	240107ff 	li	at,2047
9d007bb8:	11c10015 	beq	t6,at,9d007c10 <BspecB>
9d007bbc:	00000000 	nop
9d007bc0:	00e74021 	addu	t0,a3,a3
9d007bc4:	01067825 	or	t7,t0,a2
9d007bc8:	15e00003 	bnez	t7,9d007bd8 <BretB>
9d007bcc:	00000000 	nop
9d007bd0:	04e0ffd9 	bltz	a3,9d007b38 <BretA>
9d007bd4:	00000000 	nop

9d007bd8 <BretB>:
9d007bd8:	00061025 	or	v0,zero,a2
9d007bdc:	1000ffd8 	b	9d007b40 <B999>
9d007be0:	00071825 	or	v1,zero,a3

9d007be4 <i7>:
9d007be4:	01497825 	or	t7,t2,t1
9d007be8:	15e00027 	bnez	t7,9d007c88 <Bnan>
9d007bec:	00000000 	nop
9d007bf0:	240107ff 	li	at,2047
9d007bf4:	15c1ffd0 	bne	t6,at,9d007b38 <BretA>
9d007bf8:	00000000 	nop
9d007bfc:	00a77826 	xor	t7,a1,a3
9d007c00:	05e00021 	bltz	t7,9d007c88 <Bnan>
9d007c04:	00000000 	nop
9d007c08:	1000fff3 	b	9d007bd8 <BretB>
9d007c0c:	00000000 	nop

9d007c10 <BspecB>:
9d007c10:	0180782a 	slt	t7,t4,zero
9d007c14:	018c6021 	addu	t4,t4,t4
9d007c18:	01ad6821 	addu	t5,t5,t5
9d007c1c:	15c00017 	bnez	t6,9d007c7c <i11>
9d007c20:	01af6821 	addu	t5,t5,t7
9d007c24:	01ac7825 	or	t7,t5,t4
9d007c28:	11e0ffc3 	beqz	t7,9d007b38 <BretA>
9d007c2c:	00000000 	nop
9d007c30:	15a00008 	bnez	t5,9d007c54 <L14>
9d007c34:	00000000 	nop
9d007c38:	15800003 	bnez	t4,9d007c48 <L15>
9d007c3c:	00000000 	nop
9d007c40:	1000ff39 	b	9d007928 <Blab2>
9d007c44:	240e0000 	li	t6,0

9d007c48 <L15>:
9d007c48:	01806825 	move	t5,t4
9d007c4c:	240c0000 	li	t4,0
9d007c50:	25ceffe0 	addiu	t6,t6,-32

9d007c54 <L14>:
9d007c54:	71a84020 	clz	t0,t5
9d007c58:	1100ff33 	beqz	t0,9d007928 <Blab2>
9d007c5c:	00000000 	nop
9d007c60:	01c87023 	subu	t6,t6,t0
9d007c64:	00082022 	neg	a0,t0
9d007c68:	008c2006 	srlv	a0,t4,a0
9d007c6c:	010c6004 	sllv	t4,t4,t0
9d007c70:	010d6804 	sllv	t5,t5,t0
9d007c74:	1000ff2c 	b	9d007928 <Blab2>
9d007c78:	01a46825 	or	t5,t5,a0

9d007c7c <i11>:
9d007c7c:	01ac7825 	or	t7,t5,t4
9d007c80:	11e0ffd5 	beqz	t7,9d007bd8 <BretB>
9d007c84:	00000000 	nop

9d007c88 <Bnan>:
9d007c88:	3c05fff8 	lui	a1,0xfff8
9d007c8c:	1000ffaa 	b	9d007b38 <BretA>
9d007c90:	24040000 	li	a0,0

9d007c94 <Bund>:
9d007c94:	24080001 	li	t0,1
9d007c98:	010b4023 	subu	t0,t0,t3

9d007c9c <L17>:
9d007c9c:	2d010020 	sltiu	at,t0,32
9d007ca0:	14200007 	bnez	at,9d007cc0 <L18>
9d007ca4:	00000000 	nop
9d007ca8:	2108ffe0 	addi	t0,t0,-32
9d007cac:	0009302b 	sltu	a2,zero,t1
9d007cb0:	100a000d 	beq	zero,t2,9d007ce8 <L19>
9d007cb4:	01464825 	or	t1,t2,a2
9d007cb8:	1000fff8 	b	9d007c9c <L17>
9d007cbc:	340a0000 	li	t2,0x0

9d007cc0 <L18>:
9d007cc0:	11000009 	beqz	t0,9d007ce8 <L19>
9d007cc4:	00000000 	nop
9d007cc8:	00082022 	neg	a0,t0
9d007ccc:	00893004 	sllv	a2,t1,a0
9d007cd0:	008a2004 	sllv	a0,t2,a0
9d007cd4:	01094806 	srlv	t1,t1,t0
9d007cd8:	010a5006 	srlv	t2,t2,t0
9d007cdc:	10c00002 	beqz	a2,9d007ce8 <L19>
9d007ce0:	00894825 	or	t1,a0,t1
9d007ce4:	35290002 	ori	t1,t1,0x2

9d007ce8 <L19>:
9d007ce8:	1000ff83 	b	9d007af8 <Blab8>
9d007cec:	240b0000 	li	t3,0
9d007cf0:	00000000 	nop

Disassembly of section .text.__strtod:

9d007cf4 <__strtod>:
9d007cf4:	27bdffc8 	addiu	sp,sp,-56
9d007cf8:	afbf0034 	sw	ra,52(sp)
9d007cfc:	afbe0030 	sw	s8,48(sp)
9d007d00:	afb7002c 	sw	s7,44(sp)
9d007d04:	afb60028 	sw	s6,40(sp)
9d007d08:	afb50024 	sw	s5,36(sp)
9d007d0c:	afb40020 	sw	s4,32(sp)
9d007d10:	afb3001c 	sw	s3,28(sp)
9d007d14:	afb20018 	sw	s2,24(sp)
9d007d18:	afb10014 	sw	s1,20(sp)
9d007d1c:	afb00010 	sw	s0,16(sp)
9d007d20:	0080b821 	move	s7,a0
9d007d24:	80820000 	lb	v0,0(a0)
9d007d28:	3c1e9d01 	lui	s8,0x9d01
9d007d2c:	27deaa79 	addiu	s8,s8,-21895
9d007d30:	03c21821 	addu	v1,s8,v0
9d007d34:	80630000 	lb	v1,0(v1)
9d007d38:	00a0a821 	move	s5,a1
9d007d3c:	30630088 	andi	v1,v1,0x88
9d007d40:	10600008 	beqz	v1,9d007d64 <__strtod+0x70>
9d007d44:	0080a021 	move	s4,a0
9d007d48:	26940001 	addiu	s4,s4,1
9d007d4c:	82820000 	lb	v0,0(s4)
9d007d50:	03c21821 	addu	v1,s8,v0
9d007d54:	80630000 	lb	v1,0(v1)
9d007d58:	30630088 	andi	v1,v1,0x88
9d007d5c:	5460fffb 	bnezl	v1,9d007d4c <__strtod+0x58>
9d007d60:	26940001 	addiu	s4,s4,1
9d007d64:	2403002d 	li	v1,45
9d007d68:	10430098 	beq	v0,v1,9d007fcc <__strtod+0x2d8>
9d007d6c:	3842002b 	xori	v0,v0,0x2b
9d007d70:	2c420001 	sltiu	v0,v0,1
9d007d74:	00009821 	move	s3,zero
9d007d78:	0282a021 	addu	s4,s4,v0
9d007d7c:	82860000 	lb	a2,0(s4)
9d007d80:	03c61021 	addu	v0,s8,a2
9d007d84:	90420000 	lbu	v0,0(v0)
9d007d88:	30420004 	andi	v0,v0,0x4
9d007d8c:	00008821 	move	s1,zero
9d007d90:	104000bc 	beqz	v0,9d008084 <__strtod+0x390>
9d007d94:	00008021 	move	s0,zero
9d007d98:	00009021 	move	s2,zero
9d007d9c:	24d6ffd0 	addiu	s6,a2,-48
9d007da0:	02002821 	move	a1,s0
9d007da4:	02202021 	move	a0,s1
9d007da8:	00003021 	move	a2,zero
9d007dac:	0f4021e9 	jal	9d0087a4 <.LFE23>
9d007db0:	3c074024 	lui	a3,0x4024
9d007db4:	00408021 	move	s0,v0
9d007db8:	00608821 	move	s1,v1
9d007dbc:	0f402e8e 	jal	9d00ba38 <__floatsidf>
9d007dc0:	02c02021 	move	a0,s6
9d007dc4:	02002021 	move	a0,s0
9d007dc8:	02202821 	move	a1,s1
9d007dcc:	00403021 	move	a2,v0
9d007dd0:	00603821 	move	a3,v1
9d007dd4:	0f401e33 	jal	9d0078cc <__adddf3>
9d007dd8:	26940001 	addiu	s4,s4,1
9d007ddc:	00408821 	move	s1,v0
9d007de0:	00608021 	move	s0,v1
9d007de4:	82860000 	lb	a2,0(s4)
9d007de8:	03c61021 	addu	v0,s8,a2
9d007dec:	90420000 	lbu	v0,0(v0)
9d007df0:	30420004 	andi	v0,v0,0x4
9d007df4:	1440ffe9 	bnez	v0,9d007d9c <__strtod+0xa8>
9d007df8:	02569025 	or	s2,s2,s6
9d007dfc:	24030001 	li	v1,1
9d007e00:	2402002e 	li	v0,46
9d007e04:	50c20048 	beql	a2,v0,9d007f28 <__strtod+0x234>
9d007e08:	82820001 	lb	v0,1(s4)
9d007e0c:	54600072 	bnezl	v1,9d007fd8 <__strtod+0x2e4>
9d007e10:	82820000 	lb	v0,0(s4)
9d007e14:	12a0002a 	beqz	s5,9d007ec0 <__strtod+0x1cc>
9d007e18:	00000000 	nop
9d007e1c:	02e0a021 	move	s4,s7
9d007e20:	0000b821 	move	s7,zero
9d007e24:	aeb40000 	sw	s4,0(s5)
9d007e28:	12e00025 	beqz	s7,9d007ec0 <__strtod+0x1cc>
9d007e2c:	00004021 	move	t0,zero
9d007e30:	001717c3 	sra	v0,s7,0x1f
9d007e34:	0057b026 	xor	s6,v0,s7
9d007e38:	02c2b023 	subu	s6,s6,v0
9d007e3c:	3c159d01 	lui	s5,0x9d01
9d007e40:	26b5c0e0 	addiu	s5,s5,-16160
9d007e44:	3c093ff0 	lui	t1,0x3ff0
9d007e48:	0b401f96 	j	9d007e58 <__strtod+0x164>
9d007e4c:	24140009 	li	s4,9
9d007e50:	1280000e 	beqz	s4,9d007e8c <__strtod+0x198>
9d007e54:	26b5fff8 	addiu	s5,s5,-8
9d007e58:	2694ffff 	addiu	s4,s4,-1
9d007e5c:	02961007 	srav	v0,s6,s4
9d007e60:	30420001 	andi	v0,v0,0x1
9d007e64:	1040fffa 	beqz	v0,9d007e50 <__strtod+0x15c>
9d007e68:	01002021 	move	a0,t0
9d007e6c:	8ea60000 	lw	a2,0(s5)
9d007e70:	8ea70004 	lw	a3,4(s5)
9d007e74:	0f4021e9 	jal	9d0087a4 <.LFE23>
9d007e78:	01202821 	move	a1,t1
9d007e7c:	00404021 	move	t0,v0
9d007e80:	00604821 	move	t1,v1
9d007e84:	1680fff4 	bnez	s4,9d007e58 <__strtod+0x164>
9d007e88:	26b5fff8 	addiu	s5,s5,-8
9d007e8c:	02202021 	move	a0,s1
9d007e90:	02002821 	move	a1,s0
9d007e94:	01003021 	move	a2,t0
9d007e98:	06e00075 	bltz	s7,9d008070 <__strtod+0x37c>
9d007e9c:	01203821 	move	a3,t1
9d007ea0:	0f4021e9 	jal	9d0087a4 <.LFE23>
9d007ea4:	00000000 	nop
9d007ea8:	00402021 	move	a0,v0
9d007eac:	00602821 	move	a1,v1
9d007eb0:	0f402802 	jal	9d00a008 <__ldexp>
9d007eb4:	02e03021 	move	a2,s7
9d007eb8:	00408821 	move	s1,v0
9d007ebc:	00608021 	move	s0,v1
9d007ec0:	1220007b 	beqz	s1,9d0080b0 <__strtod+0x3bc>
9d007ec4:	7e02f000 	ext	v0,s0,0x0,0x1f
9d007ec8:	02301025 	or	v0,s1,s0
9d007ecc:	10400073 	beqz	v0,9d00809c <__strtod+0x3a8>
9d007ed0:	00000000 	nop
9d007ed4:	12600007 	beqz	s3,9d007ef4 <__strtod+0x200>
9d007ed8:	02201021 	move	v0,s1
9d007edc:	02202021 	move	a0,s1
9d007ee0:	0f403116 	jal	9d00c458 <__negdf2>
9d007ee4:	02002821 	move	a1,s0
9d007ee8:	00408821 	move	s1,v0
9d007eec:	00608021 	move	s0,v1
9d007ef0:	02201021 	move	v0,s1
9d007ef4:	02001821 	move	v1,s0
9d007ef8:	8fbf0034 	lw	ra,52(sp)
9d007efc:	8fbe0030 	lw	s8,48(sp)
9d007f00:	8fb7002c 	lw	s7,44(sp)
9d007f04:	8fb60028 	lw	s6,40(sp)
9d007f08:	8fb50024 	lw	s5,36(sp)
9d007f0c:	8fb40020 	lw	s4,32(sp)
9d007f10:	8fb3001c 	lw	s3,28(sp)
9d007f14:	8fb20018 	lw	s2,24(sp)
9d007f18:	8fb10014 	lw	s1,20(sp)
9d007f1c:	8fb00010 	lw	s0,16(sp)
9d007f20:	03e00008 	jr	ra
9d007f24:	27bd0038 	addiu	sp,sp,56
9d007f28:	03c22021 	addu	a0,s8,v0
9d007f2c:	90840000 	lbu	a0,0(a0)
9d007f30:	30840004 	andi	a0,a0,0x4
9d007f34:	1080ffb5 	beqz	a0,9d007e0c <__strtod+0x118>
9d007f38:	26940001 	addiu	s4,s4,1
9d007f3c:	0000b821 	move	s7,zero
9d007f40:	2456ffd0 	addiu	s6,v0,-48
9d007f44:	02002821 	move	a1,s0
9d007f48:	02202021 	move	a0,s1
9d007f4c:	00003021 	move	a2,zero
9d007f50:	0f4021e9 	jal	9d0087a4 <.LFE23>
9d007f54:	3c074024 	lui	a3,0x4024
9d007f58:	00408021 	move	s0,v0
9d007f5c:	00608821 	move	s1,v1
9d007f60:	0f402e8e 	jal	9d00ba38 <__floatsidf>
9d007f64:	02c02021 	move	a0,s6
9d007f68:	02002021 	move	a0,s0
9d007f6c:	02202821 	move	a1,s1
9d007f70:	00403021 	move	a2,v0
9d007f74:	00603821 	move	a3,v1
9d007f78:	0f401e33 	jal	9d0078cc <__adddf3>
9d007f7c:	26940001 	addiu	s4,s4,1
9d007f80:	00408821 	move	s1,v0
9d007f84:	00608021 	move	s0,v1
9d007f88:	82820000 	lb	v0,0(s4)
9d007f8c:	02569025 	or	s2,s2,s6
9d007f90:	03c21821 	addu	v1,s8,v0
9d007f94:	90630000 	lbu	v1,0(v1)
9d007f98:	30630004 	andi	v1,v1,0x4
9d007f9c:	1460ffe8 	bnez	v1,9d007f40 <__strtod+0x24c>
9d007fa0:	26f7ffff 	addiu	s7,s7,-1
9d007fa4:	2403ffdf 	li	v1,-33
9d007fa8:	00431824 	and	v1,v0,v1
9d007fac:	7c031c20 	seb	v1,v1
9d007fb0:	24020045 	li	v0,69
9d007fb4:	5062000f 	beql	v1,v0,9d007ff4 <__strtod+0x300>
9d007fb8:	82830001 	lb	v1,1(s4)
9d007fbc:	56a0ff9a 	bnezl	s5,9d007e28 <__strtod+0x134>
9d007fc0:	aeb40000 	sw	s4,0(s5)
9d007fc4:	0b401f8a 	j	9d007e28 <__strtod+0x134>
9d007fc8:	00000000 	nop
9d007fcc:	26940001 	addiu	s4,s4,1
9d007fd0:	0b401f5f 	j	9d007d7c <__strtod+0x88>
9d007fd4:	24130001 	li	s3,1
9d007fd8:	2403ffdf 	li	v1,-33
9d007fdc:	00431824 	and	v1,v0,v1
9d007fe0:	7c031c20 	seb	v1,v1
9d007fe4:	24020045 	li	v0,69
9d007fe8:	1462fff4 	bne	v1,v0,9d007fbc <__strtod+0x2c8>
9d007fec:	0000b821 	move	s7,zero
9d007ff0:	82830001 	lb	v1,1(s4)
9d007ff4:	2402002d 	li	v0,45
9d007ff8:	10620019 	beq	v1,v0,9d008060 <__strtod+0x36c>
9d007ffc:	2402002b 	li	v0,43
9d008000:	50620023 	beql	v1,v0,9d008090 <__strtod+0x39c>
9d008004:	82830002 	lb	v1,2(s4)
9d008008:	26940001 	addiu	s4,s4,1
9d00800c:	00003821 	move	a3,zero
9d008010:	03c31021 	addu	v0,s8,v1
9d008014:	90420000 	lbu	v0,0(v0)
9d008018:	30420004 	andi	v0,v0,0x4
9d00801c:	1040000c 	beqz	v0,9d008050 <__strtod+0x35c>
9d008020:	00001021 	move	v0,zero
9d008024:	26940001 	addiu	s4,s4,1
9d008028:	2465ffd0 	addiu	a1,v1,-48
9d00802c:	82830000 	lb	v1,0(s4)
9d008030:	00023040 	sll	a2,v0,0x1
9d008034:	000210c0 	sll	v0,v0,0x3
9d008038:	03c32021 	addu	a0,s8,v1
9d00803c:	90840000 	lbu	a0,0(a0)
9d008040:	00c21021 	addu	v0,a2,v0
9d008044:	30840004 	andi	a0,a0,0x4
9d008048:	1480fff6 	bnez	a0,9d008024 <__strtod+0x330>
9d00804c:	00451021 	addu	v0,v0,a1
9d008050:	00021823 	negu	v1,v0
9d008054:	0067100b 	movn	v0,v1,a3
9d008058:	0b401fef 	j	9d007fbc <__strtod+0x2c8>
9d00805c:	02e2b821 	addu	s7,s7,v0
9d008060:	82830002 	lb	v1,2(s4)
9d008064:	24070001 	li	a3,1
9d008068:	0b402004 	j	9d008010 <__strtod+0x31c>
9d00806c:	26940002 	addiu	s4,s4,2
9d008070:	0f401891 	jal	9d006244 <.LFE15>
9d008074:	00000000 	nop
9d008078:	00402021 	move	a0,v0
9d00807c:	0b401fac 	j	9d007eb0 <__strtod+0x1bc>
9d008080:	00602821 	move	a1,v1
9d008084:	00001821 	move	v1,zero
9d008088:	0b401f80 	j	9d007e00 <__strtod+0x10c>
9d00808c:	00009021 	move	s2,zero
9d008090:	00003821 	move	a3,zero
9d008094:	0b402004 	j	9d008010 <__strtod+0x31c>
9d008098:	26940002 	addiu	s4,s4,2
9d00809c:	1240ff8d 	beqz	s2,9d007ed4 <__strtod+0x1e0>
9d0080a0:	24030022 	li	v1,34
9d0080a4:	3c02a000 	lui	v0,0xa000
9d0080a8:	0b401fb5 	j	9d007ed4 <__strtod+0x1e0>
9d0080ac:	ac430058 	sw	v1,88(v0)
9d0080b0:	3c037ff0 	lui	v1,0x7ff0
9d0080b4:	1443ff85 	bne	v0,v1,9d007ecc <__strtod+0x1d8>
9d0080b8:	02301025 	or	v0,s1,s0
9d0080bc:	0b402029 	j	9d0080a4 <__strtod+0x3b0>
9d0080c0:	24030022 	li	v1,34

Disassembly of section .text.strtoll:

9d0080c4 <strtoll>:
9d0080c4:	27bdffd0 	addiu	sp,sp,-48
9d0080c8:	afbf002c 	sw	ra,44(sp)
9d0080cc:	afb60028 	sw	s6,40(sp)
9d0080d0:	afb50024 	sw	s5,36(sp)
9d0080d4:	afb40020 	sw	s4,32(sp)
9d0080d8:	afb3001c 	sw	s3,28(sp)
9d0080dc:	afb20018 	sw	s2,24(sp)
9d0080e0:	afb10014 	sw	s1,20(sp)
9d0080e4:	afb00010 	sw	s0,16(sp)
9d0080e8:	00809821 	move	s3,a0
9d0080ec:	80820000 	lb	v0,0(a0)
9d0080f0:	00a0a021 	move	s4,a1
9d0080f4:	104000c0 	beqz	v0,9d0083f8 <strtoll+0x334>
9d0080f8:	00c09021 	move	s2,a2
9d0080fc:	3c049d01 	lui	a0,0x9d01
9d008100:	2484aa79 	addiu	a0,a0,-21895
9d008104:	00821821 	addu	v1,a0,v0
9d008108:	80630000 	lb	v1,0(v1)
9d00810c:	30630088 	andi	v1,v1,0x88
9d008110:	14600007 	bnez	v1,9d008130 <strtoll+0x6c>
9d008114:	02608821 	move	s1,s3
9d008118:	0b4020cc 	j	9d008330 <strtoll+0x26c>
9d00811c:	2403002b 	li	v1,43
9d008120:	80630000 	lb	v1,0(v1)
9d008124:	30630088 	andi	v1,v1,0x88
9d008128:	50600081 	beqzl	v1,9d008330 <strtoll+0x26c>
9d00812c:	2403002b 	li	v1,43
9d008130:	26310001 	addiu	s1,s1,1
9d008134:	82220000 	lb	v0,0(s1)
9d008138:	1440fff9 	bnez	v0,9d008120 <strtoll+0x5c>
9d00813c:	00821821 	addu	v1,a0,v0
9d008140:	00008021 	move	s0,zero
9d008144:	0000b021 	move	s6,zero
9d008148:	16400063 	bnez	s2,9d0082d8 <strtoll+0x214>
9d00814c:	24020010 	li	v0,16
9d008150:	24020030 	li	v0,48
9d008154:	12020090 	beq	s0,v0,9d008398 <strtoll+0x2d4>
9d008158:	3c0fcccc 	lui	t7,0xcccc
9d00815c:	35efcccc 	ori	t7,t7,0xcccc
9d008160:	3c0b0ccc 	lui	t3,0xccc
9d008164:	356bcccc 	ori	t3,t3,0xcccc
9d008168:	240c000a 	li	t4,10
9d00816c:	0000a821 	move	s5,zero
9d008170:	00002021 	move	a0,zero
9d008174:	2412000a 	li	s2,10
9d008178:	2628ffff 	addiu	t0,s1,-1
9d00817c:	00002821 	move	a1,zero
9d008180:	00001021 	move	v0,zero
9d008184:	00001821 	move	v1,zero
9d008188:	3c079d01 	lui	a3,0x9d01
9d00818c:	24e7aa79 	addiu	a3,a3,-21895
9d008190:	240e0061 	li	t6,97
9d008194:	240d0041 	li	t5,65
9d008198:	3c187fff 	lui	t8,0x7fff
9d00819c:	3718ffff 	ori	t8,t8,0xffff
9d0081a0:	1200002c 	beqz	s0,9d008254 <strtoll+0x190>
9d0081a4:	25080001 	addiu	t0,t0,1
9d0081a8:	02074821 	addu	t1,s0,a3
9d0081ac:	91290000 	lbu	t1,0(t1)
9d0081b0:	312a0004 	andi	t2,t1,0x4
9d0081b4:	11400041 	beqz	t2,9d0082bc <strtoll+0x1f8>
9d0081b8:	31260003 	andi	a2,t1,0x3
9d0081bc:	2610ffd0 	addiu	s0,s0,-48
9d0081c0:	06000024 	bltz	s0,9d008254 <strtoll+0x190>
9d0081c4:	0212482a 	slt	t1,s0,s2
9d0081c8:	11200022 	beqz	t1,9d008254 <strtoll+0x190>
9d0081cc:	0163482a 	slt	t1,t3,v1
9d0081d0:	55200037 	bnezl	t1,9d0082b0 <strtoll+0x1ec>
9d0081d4:	24050001 	li	a1,1
9d0081d8:	146b0003 	bne	v1,t3,9d0081e8 <strtoll+0x124>
9d0081dc:	01e2202b 	sltu	a0,t7,v0
9d0081e0:	54800033 	bnezl	a0,9d0082b0 <strtoll+0x1ec>
9d0081e4:	24050001 	li	a1,1
9d0081e8:	14a00030 	bnez	a1,9d0082ac <strtoll+0x1e8>
9d0081ec:	02a20018 	mult	s5,v0
9d0081f0:	001027c3 	sra	a0,s0,0x1f
9d0081f4:	71830000 	madd	t4,v1
9d0081f8:	00003012 	mflo	a2
9d0081fc:	004c0019 	multu	v0,t4
9d008200:	00001012 	mflo	v0
9d008204:	00001810 	mfhi	v1
9d008208:	00c31821 	addu	v1,a2,v1
9d00820c:	03033023 	subu	a2,t8,v1
9d008210:	00c4482a 	slt	t1,a2,a0
9d008214:	15200025 	bnez	t1,9d0082ac <strtoll+0x1e8>
9d008218:	00025027 	nor	t2,zero,v0
9d00821c:	54860005 	bnel	a0,a2,9d008234 <strtoll+0x170>
9d008220:	02028021 	addu	s0,s0,v0
9d008224:	0150502b 	sltu	t2,t2,s0
9d008228:	55400021 	bnezl	t2,9d0082b0 <strtoll+0x1ec>
9d00822c:	24050001 	li	a1,1
9d008230:	02028021 	addu	s0,s0,v0
9d008234:	0202302b 	sltu	a2,s0,v0
9d008238:	00642021 	addu	a0,v1,a0
9d00823c:	02001021 	move	v0,s0
9d008240:	00c41821 	addu	v1,a2,a0
9d008244:	81100001 	lb	s0,1(t0)
9d008248:	24040001 	li	a0,1
9d00824c:	1600ffd6 	bnez	s0,9d0081a8 <strtoll+0xe4>
9d008250:	25080001 	addiu	t0,t0,1
9d008254:	12c0002d 	beqz	s6,9d00830c <strtoll+0x248>
9d008258:	00000000 	nop
9d00825c:	54a0003b 	bnezl	a1,9d00834c <strtoll+0x288>
9d008260:	24030022 	li	v1,34
9d008264:	00023823 	negu	a3,v0
9d008268:	0007282b 	sltu	a1,zero,a3
9d00826c:	00033023 	negu	a2,v1
9d008270:	00e01021 	move	v0,a3
9d008274:	00c51823 	subu	v1,a2,a1
9d008278:	12800002 	beqz	s4,9d008284 <strtoll+0x1c0>
9d00827c:	0264400a 	movz	t0,s3,a0
9d008280:	ae880000 	sw	t0,0(s4)
9d008284:	8fbf002c 	lw	ra,44(sp)
9d008288:	8fb60028 	lw	s6,40(sp)
9d00828c:	8fb50024 	lw	s5,36(sp)
9d008290:	8fb40020 	lw	s4,32(sp)
9d008294:	8fb3001c 	lw	s3,28(sp)
9d008298:	8fb20018 	lw	s2,24(sp)
9d00829c:	8fb10014 	lw	s1,20(sp)
9d0082a0:	8fb00010 	lw	s0,16(sp)
9d0082a4:	03e00008 	jr	ra
9d0082a8:	27bd0030 	addiu	sp,sp,48
9d0082ac:	24050001 	li	a1,1
9d0082b0:	81100001 	lb	s0,1(t0)
9d0082b4:	0b402093 	j	9d00824c <strtoll+0x188>
9d0082b8:	24040001 	li	a0,1
9d0082bc:	10c0ffe5 	beqz	a2,9d008254 <strtoll+0x190>
9d0082c0:	31290001 	andi	t1,t1,0x1
9d0082c4:	01a03021 	move	a2,t5
9d0082c8:	01c9300a 	movz	a2,t6,t1
9d0082cc:	02068023 	subu	s0,s0,a2
9d0082d0:	0b402070 	j	9d0081c0 <strtoll+0xfc>
9d0082d4:	2610000a 	addiu	s0,s0,10
9d0082d8:	12420026 	beq	s2,v0,9d008374 <strtoll+0x2b0>
9d0082dc:	0012afc3 	sra	s5,s2,0x1f
9d0082e0:	2404ffff 	li	a0,-1
9d0082e4:	3c057fff 	lui	a1,0x7fff
9d0082e8:	34a5ffff 	ori	a1,a1,0xffff
9d0082ec:	02403021 	move	a2,s2
9d0082f0:	0f4019bf 	jal	9d0066fc <__divdi3>
9d0082f4:	02a03821 	move	a3,s5
9d0082f8:	02406021 	move	t4,s2
9d0082fc:	00407821 	move	t7,v0
9d008300:	00605821 	move	t3,v1
9d008304:	0b40205e 	j	9d008178 <strtoll+0xb4>
9d008308:	00002021 	move	a0,zero
9d00830c:	10a0ffda 	beqz	a1,9d008278 <strtoll+0x1b4>
9d008310:	00000000 	nop
9d008314:	24030022 	li	v1,34
9d008318:	3c02a000 	lui	v0,0xa000
9d00831c:	ac430058 	sw	v1,88(v0)
9d008320:	2402ffff 	li	v0,-1
9d008324:	3c037fff 	lui	v1,0x7fff
9d008328:	0b40209e 	j	9d008278 <strtoll+0x1b4>
9d00832c:	3463ffff 	ori	v1,v1,0xffff
9d008330:	5443000b 	bnel	v0,v1,9d008360 <strtoll+0x29c>
9d008334:	2403002d 	li	v1,45
9d008338:	3842002d 	xori	v0,v0,0x2d
9d00833c:	82300001 	lb	s0,1(s1)
9d008340:	2c560001 	sltiu	s6,v0,1
9d008344:	0b402052 	j	9d008148 <strtoll+0x84>
9d008348:	26310001 	addiu	s1,s1,1
9d00834c:	3c02a000 	lui	v0,0xa000
9d008350:	ac430058 	sw	v1,88(v0)
9d008354:	00001021 	move	v0,zero
9d008358:	0b40209e 	j	9d008278 <strtoll+0x1b4>
9d00835c:	3c038000 	lui	v1,0x8000
9d008360:	5043fff6 	beql	v0,v1,9d00833c <strtoll+0x278>
9d008364:	3842002d 	xori	v0,v0,0x2d
9d008368:	82300000 	lb	s0,0(s1)
9d00836c:	0b402052 	j	9d008148 <strtoll+0x84>
9d008370:	0000b021 	move	s6,zero
9d008374:	24020030 	li	v0,48
9d008378:	12020023 	beq	s0,v0,9d008408 <strtoll+0x344>
9d00837c:	240fffff 	li	t7,-1
9d008380:	3c0b07ff 	lui	t3,0x7ff
9d008384:	356bffff 	ori	t3,t3,0xffff
9d008388:	240c0010 	li	t4,16
9d00838c:	0000a821 	move	s5,zero
9d008390:	0b40205e 	j	9d008178 <strtoll+0xb4>
9d008394:	00002021 	move	a0,zero
9d008398:	82300001 	lb	s0,1(s1)
9d00839c:	2403ffdf 	li	v1,-33
9d0083a0:	02031824 	and	v1,s0,v1
9d0083a4:	24020058 	li	v0,88
9d0083a8:	5062000a 	beql	v1,v0,9d0083d4 <strtoll+0x310>
9d0083ac:	82300002 	lb	s0,2(s1)
9d0083b0:	26310001 	addiu	s1,s1,1
9d0083b4:	240fffff 	li	t7,-1
9d0083b8:	3c0b0fff 	lui	t3,0xfff
9d0083bc:	356bffff 	ori	t3,t3,0xffff
9d0083c0:	240c0008 	li	t4,8
9d0083c4:	0000a821 	move	s5,zero
9d0083c8:	24040001 	li	a0,1
9d0083cc:	0b40205e 	j	9d008178 <strtoll+0xb4>
9d0083d0:	24120008 	li	s2,8
9d0083d4:	240fffff 	li	t7,-1
9d0083d8:	26310002 	addiu	s1,s1,2
9d0083dc:	3c0b07ff 	lui	t3,0x7ff
9d0083e0:	356bffff 	ori	t3,t3,0xffff
9d0083e4:	240c0010 	li	t4,16
9d0083e8:	0000a821 	move	s5,zero
9d0083ec:	24040001 	li	a0,1
9d0083f0:	0b40205e 	j	9d008178 <strtoll+0xb4>
9d0083f4:	24120010 	li	s2,16
9d0083f8:	00008021 	move	s0,zero
9d0083fc:	00808821 	move	s1,a0
9d008400:	0b402052 	j	9d008148 <strtoll+0x84>
9d008404:	0000b021 	move	s6,zero
9d008408:	82300001 	lb	s0,1(s1)
9d00840c:	2403ffdf 	li	v1,-33
9d008410:	02031824 	and	v1,s0,v1
9d008414:	24020058 	li	v0,88
9d008418:	50620009 	beql	v1,v0,9d008440 <strtoll+0x37c>
9d00841c:	82300002 	lb	s0,2(s1)
9d008420:	26310001 	addiu	s1,s1,1
9d008424:	240fffff 	li	t7,-1
9d008428:	3c0b07ff 	lui	t3,0x7ff
9d00842c:	356bffff 	ori	t3,t3,0xffff
9d008430:	240c0010 	li	t4,16
9d008434:	0000a821 	move	s5,zero
9d008438:	0b40205e 	j	9d008178 <strtoll+0xb4>
9d00843c:	24040001 	li	a0,1
9d008440:	240fffff 	li	t7,-1
9d008444:	0b40210a 	j	9d008428 <strtoll+0x364>
9d008448:	26310002 	addiu	s1,s1,2

Disassembly of section .text.__strtof:

9d00844c <__strtof>:
9d00844c:	27bdffc8 	addiu	sp,sp,-56
9d008450:	afbf0034 	sw	ra,52(sp)
9d008454:	afb70030 	sw	s7,48(sp)
9d008458:	afb6002c 	sw	s6,44(sp)
9d00845c:	afb50028 	sw	s5,40(sp)
9d008460:	afb40024 	sw	s4,36(sp)
9d008464:	afb30020 	sw	s3,32(sp)
9d008468:	afb2001c 	sw	s2,28(sp)
9d00846c:	afb10018 	sw	s1,24(sp)
9d008470:	afb00014 	sw	s0,20(sp)
9d008474:	0080a821 	move	s5,a0
9d008478:	80820000 	lb	v0,0(a0)
9d00847c:	3c139d01 	lui	s3,0x9d01
9d008480:	2673aa79 	addiu	s3,s3,-21895
9d008484:	02621821 	addu	v1,s3,v0
9d008488:	80630000 	lb	v1,0(v1)
9d00848c:	00a0b021 	move	s6,a1
9d008490:	30630088 	andi	v1,v1,0x88
9d008494:	10600008 	beqz	v1,9d0084b8 <__strtof+0x6c>
9d008498:	00808021 	move	s0,a0
9d00849c:	26100001 	addiu	s0,s0,1
9d0084a0:	82020000 	lb	v0,0(s0)
9d0084a4:	02621821 	addu	v1,s3,v0
9d0084a8:	80630000 	lb	v1,0(v1)
9d0084ac:	30630088 	andi	v1,v1,0x88
9d0084b0:	5460fffb 	bnezl	v1,9d0084a0 <__strtof+0x54>
9d0084b4:	26100001 	addiu	s0,s0,1
9d0084b8:	2403002d 	li	v1,45
9d0084bc:	10430081 	beq	v0,v1,9d0086c4 <__strtof+0x278>
9d0084c0:	3842002b 	xori	v0,v0,0x2b
9d0084c4:	2c420001 	sltiu	v0,v0,1
9d0084c8:	0000b821 	move	s7,zero
9d0084cc:	02028021 	addu	s0,s0,v0
9d0084d0:	82030000 	lb	v1,0(s0)
9d0084d4:	02631021 	addu	v0,s3,v1
9d0084d8:	90420000 	lbu	v0,0(v0)
9d0084dc:	30420004 	andi	v0,v0,0x4
9d0084e0:	104000a5 	beqz	v0,9d008778 <__strtof+0x32c>
9d0084e4:	00008821 	move	s1,zero
9d0084e8:	0000a021 	move	s4,zero
9d0084ec:	2472ffd0 	addiu	s2,v1,-48
9d0084f0:	02202021 	move	a0,s1
9d0084f4:	0f402793 	jal	9d009e4c <.LFE4>
9d0084f8:	3c054120 	lui	a1,0x4120
9d0084fc:	00408821 	move	s1,v0
9d008500:	0f402f64 	jal	9d00bd90 <__floatsisf>
9d008504:	02402021 	move	a0,s2
9d008508:	02202021 	move	a0,s1
9d00850c:	00402821 	move	a1,v0
9d008510:	0f4025fa 	jal	9d0097e8 <__addsf3>
9d008514:	26100001 	addiu	s0,s0,1
9d008518:	00408821 	move	s1,v0
9d00851c:	82030000 	lb	v1,0(s0)
9d008520:	02631021 	addu	v0,s3,v1
9d008524:	90420000 	lbu	v0,0(v0)
9d008528:	30420004 	andi	v0,v0,0x4
9d00852c:	1440ffef 	bnez	v0,9d0084ec <__strtof+0xa0>
9d008530:	0292a025 	or	s4,s4,s2
9d008534:	24040001 	li	a0,1
9d008538:	2402002e 	li	v0,46
9d00853c:	5062003e 	beql	v1,v0,9d008638 <__strtof+0x1ec>
9d008540:	82020001 	lb	v0,1(s0)
9d008544:	54800062 	bnezl	a0,9d0086d0 <__strtof+0x284>
9d008548:	82020000 	lb	v0,0(s0)
9d00854c:	12c00024 	beqz	s6,9d0085e0 <__strtof+0x194>
9d008550:	00111840 	sll	v1,s1,0x1
9d008554:	02a08021 	move	s0,s5
9d008558:	00009021 	move	s2,zero
9d00855c:	aed00000 	sw	s0,0(s6)
9d008560:	1240001f 	beqz	s2,9d0085e0 <__strtof+0x194>
9d008564:	00111840 	sll	v1,s1,0x1
9d008568:	001217c3 	sra	v0,s2,0x1f
9d00856c:	0052a826 	xor	s5,v0,s2
9d008570:	02a2a823 	subu	s5,s5,v0
9d008574:	3c139d01 	lui	s3,0x9d01
9d008578:	2673c4b8 	addiu	s3,s3,-15176
9d00857c:	24100006 	li	s0,6
9d008580:	0b402164 	j	9d008590 <__strtof+0x144>
9d008584:	3c023f80 	lui	v0,0x3f80
9d008588:	1200000b 	beqz	s0,9d0085b8 <__strtof+0x16c>
9d00858c:	2673fffc 	addiu	s3,s3,-4
9d008590:	2610ffff 	addiu	s0,s0,-1
9d008594:	02151807 	srav	v1,s5,s0
9d008598:	30630001 	andi	v1,v1,0x1
9d00859c:	1060fffa 	beqz	v1,9d008588 <__strtof+0x13c>
9d0085a0:	00000000 	nop
9d0085a4:	8e650000 	lw	a1,0(s3)
9d0085a8:	0f402793 	jal	9d009e4c <.LFE4>
9d0085ac:	00402021 	move	a0,v0
9d0085b0:	1600fff7 	bnez	s0,9d008590 <__strtof+0x144>
9d0085b4:	2673fffc 	addiu	s3,s3,-4
9d0085b8:	02202021 	move	a0,s1
9d0085bc:	0640006a 	bltz	s2,9d008768 <__strtof+0x31c>
9d0085c0:	00402821 	move	a1,v0
9d0085c4:	0f402793 	jal	9d009e4c <.LFE4>
9d0085c8:	00000000 	nop
9d0085cc:	00402021 	move	a0,v0
9d0085d0:	0f402adf 	jal	9d00ab7c <__ldexpf>
9d0085d4:	02402821 	move	a1,s2
9d0085d8:	00408821 	move	s1,v0
9d0085dc:	00111840 	sll	v1,s1,0x1
9d0085e0:	3c02ff00 	lui	v0,0xff00
9d0085e4:	5062006c 	beql	v1,v0,9d008798 <__strtof+0x34c>
9d0085e8:	24030022 	li	v1,34
9d0085ec:	12200068 	beqz	s1,9d008790 <__strtof+0x344>
9d0085f0:	00000000 	nop
9d0085f4:	12e00005 	beqz	s7,9d00860c <__strtof+0x1c0>
9d0085f8:	02201021 	move	v0,s1
9d0085fc:	0f403143 	jal	9d00c50c <__negsf2>
9d008600:	02202021 	move	a0,s1
9d008604:	00408821 	move	s1,v0
9d008608:	02201021 	move	v0,s1
9d00860c:	8fbf0034 	lw	ra,52(sp)
9d008610:	8fb70030 	lw	s7,48(sp)
9d008614:	8fb6002c 	lw	s6,44(sp)
9d008618:	8fb50028 	lw	s5,40(sp)
9d00861c:	8fb40024 	lw	s4,36(sp)
9d008620:	8fb30020 	lw	s3,32(sp)
9d008624:	8fb2001c 	lw	s2,28(sp)
9d008628:	8fb10018 	lw	s1,24(sp)
9d00862c:	8fb00014 	lw	s0,20(sp)
9d008630:	03e00008 	jr	ra
9d008634:	27bd0038 	addiu	sp,sp,56
9d008638:	02621821 	addu	v1,s3,v0
9d00863c:	90630000 	lbu	v1,0(v1)
9d008640:	30630004 	andi	v1,v1,0x4
9d008644:	1060ffbf 	beqz	v1,9d008544 <__strtof+0xf8>
9d008648:	26100001 	addiu	s0,s0,1
9d00864c:	00009021 	move	s2,zero
9d008650:	2455ffd0 	addiu	s5,v0,-48
9d008654:	02202021 	move	a0,s1
9d008658:	0f402793 	jal	9d009e4c <.LFE4>
9d00865c:	3c054120 	lui	a1,0x4120
9d008660:	00408821 	move	s1,v0
9d008664:	0f402f64 	jal	9d00bd90 <__floatsisf>
9d008668:	02a02021 	move	a0,s5
9d00866c:	02202021 	move	a0,s1
9d008670:	00402821 	move	a1,v0
9d008674:	0f4025fa 	jal	9d0097e8 <__addsf3>
9d008678:	26100001 	addiu	s0,s0,1
9d00867c:	00408821 	move	s1,v0
9d008680:	82020000 	lb	v0,0(s0)
9d008684:	0295a025 	or	s4,s4,s5
9d008688:	02621821 	addu	v1,s3,v0
9d00868c:	90630000 	lbu	v1,0(v1)
9d008690:	30630004 	andi	v1,v1,0x4
9d008694:	1460ffee 	bnez	v1,9d008650 <__strtof+0x204>
9d008698:	2652ffff 	addiu	s2,s2,-1
9d00869c:	2403ffdf 	li	v1,-33
9d0086a0:	00431824 	and	v1,v0,v1
9d0086a4:	7c031c20 	seb	v1,v1
9d0086a8:	24020045 	li	v0,69
9d0086ac:	5062000f 	beql	v1,v0,9d0086ec <__strtof+0x2a0>
9d0086b0:	82030001 	lb	v1,1(s0)
9d0086b4:	56c0ffaa 	bnezl	s6,9d008560 <__strtof+0x114>
9d0086b8:	aed00000 	sw	s0,0(s6)
9d0086bc:	0b402158 	j	9d008560 <__strtof+0x114>
9d0086c0:	00000000 	nop
9d0086c4:	26100001 	addiu	s0,s0,1
9d0086c8:	0b402134 	j	9d0084d0 <__strtof+0x84>
9d0086cc:	24170001 	li	s7,1
9d0086d0:	2403ffdf 	li	v1,-33
9d0086d4:	00431824 	and	v1,v0,v1
9d0086d8:	7c031c20 	seb	v1,v1
9d0086dc:	24020045 	li	v0,69
9d0086e0:	1462fff4 	bne	v1,v0,9d0086b4 <__strtof+0x268>
9d0086e4:	00009021 	move	s2,zero
9d0086e8:	82030001 	lb	v1,1(s0)
9d0086ec:	2402002d 	li	v0,45
9d0086f0:	10620019 	beq	v1,v0,9d008758 <__strtof+0x30c>
9d0086f4:	2402002b 	li	v0,43
9d0086f8:	50620022 	beql	v1,v0,9d008784 <__strtof+0x338>
9d0086fc:	82030002 	lb	v1,2(s0)
9d008700:	26100001 	addiu	s0,s0,1
9d008704:	00003821 	move	a3,zero
9d008708:	02631021 	addu	v0,s3,v1
9d00870c:	90420000 	lbu	v0,0(v0)
9d008710:	30420004 	andi	v0,v0,0x4
9d008714:	1040000c 	beqz	v0,9d008748 <__strtof+0x2fc>
9d008718:	00001021 	move	v0,zero
9d00871c:	26100001 	addiu	s0,s0,1
9d008720:	2465ffd0 	addiu	a1,v1,-48
9d008724:	82030000 	lb	v1,0(s0)
9d008728:	00023040 	sll	a2,v0,0x1
9d00872c:	000210c0 	sll	v0,v0,0x3
9d008730:	02632021 	addu	a0,s3,v1
9d008734:	90840000 	lbu	a0,0(a0)
9d008738:	00c21021 	addu	v0,a2,v0
9d00873c:	30840004 	andi	a0,a0,0x4
9d008740:	1480fff6 	bnez	a0,9d00871c <__strtof+0x2d0>
9d008744:	00451021 	addu	v0,v0,a1
9d008748:	00021823 	negu	v1,v0
9d00874c:	0067100b 	movn	v0,v1,a3
9d008750:	0b4021ad 	j	9d0086b4 <__strtof+0x268>
9d008754:	02429021 	addu	s2,s2,v0
9d008758:	82030002 	lb	v1,2(s0)
9d00875c:	24070001 	li	a3,1
9d008760:	0b4021c2 	j	9d008708 <__strtof+0x2bc>
9d008764:	26100002 	addiu	s0,s0,2
9d008768:	0f402696 	jal	9d009a58 <__divsf3>
9d00876c:	00000000 	nop
9d008770:	0b402174 	j	9d0085d0 <__strtof+0x184>
9d008774:	00402021 	move	a0,v0
9d008778:	00002021 	move	a0,zero
9d00877c:	0b40214e 	j	9d008538 <__strtof+0xec>
9d008780:	0000a021 	move	s4,zero
9d008784:	00003821 	move	a3,zero
9d008788:	0b4021c2 	j	9d008708 <__strtof+0x2bc>
9d00878c:	26100002 	addiu	s0,s0,2
9d008790:	1280ff98 	beqz	s4,9d0085f4 <__strtof+0x1a8>
9d008794:	24030022 	li	v1,34
9d008798:	3c02a000 	lui	v0,0xa000
9d00879c:	0b40217d 	j	9d0085f4 <__strtof+0x1a8>
9d0087a0:	ac430058 	sw	v1,88(v0)

Disassembly of section .text.dp32mul:

9d0087a4 <__muldf3>:
9d0087a4:	00055040 000a5542 00054ac0 00047d42     @P..BU...J..B}..
9d0087b4:	012f4825 000442c0 3c0e8000 012e4825     %H/..B.....<%H..
9d0087c4:	00076840 000d6d42 000762c0 00067d42     @h..Bm...b..B}..
9d0087d4:	018f6025 00065ac0 018e6025 00a72826     %`...Z..%`..&(..
9d0087e4:	00ae2824 254fffff 2de107fe 10200047     $(....O%...-G. .
9d0087f4:	00000000                                ....

9d0087f8 <Clab1>:
9d0087f8:	25afffff 	addiu	t7,t5,-1
9d0087fc:	2de107fe 	sltiu	at,t7,2046
9d008800:	1020006f 	beqz	at,9d0089c0 <CspecB>
9d008804:	00000000 	nop

9d008808 <Clab2>:
9d008808:	25affc02 	addiu	t7,t5,-1022
9d00880c:	014f5021 	addu	t2,t2,t7
9d008810:	012c0019 	multu	t1,t4
9d008814:	00003812 	mflo	a3
9d008818:	00007010 	mfhi	t6
9d00881c:	010b0019 	multu	t0,t3
9d008820:	00002012 	mflo	a0
9d008824:	00003010 	mfhi	a2
9d008828:	012b0019 	multu	t1,t3
9d00882c:	00005812 	mflo	t3
9d008830:	00006810 	mfhi	t5
9d008834:	00cb3021 	addu	a2,a2,t3
9d008838:	00cb782b 	sltu	t7,a2,t3
9d00883c:	00ed3821 	addu	a3,a3,t5
9d008840:	00ef3821 	addu	a3,a3,t7
9d008844:	10ed0002 	beq	a3,t5,9d008850 <L20>
9d008848:	00000000 	nop
9d00884c:	00ed782b 	sltu	t7,a3,t5

9d008850 <L20>:
9d008850:	01cf7021 	addu	t6,t6,t7
9d008854:	010c0019 	multu	t0,t4
9d008858:	00004012 	mflo	t0
9d00885c:	00004810 	mfhi	t1
9d008860:	00c83021 	addu	a2,a2,t0
9d008864:	00c8782b 	sltu	t7,a2,t0
9d008868:	00e93821 	addu	a3,a3,t1
9d00886c:	00ef3821 	addu	a3,a3,t7
9d008870:	10e90002 	beq	a3,t1,9d00887c <L21>
9d008874:	00000000 	nop
9d008878:	00e9782b 	sltu	t7,a3,t1

9d00887c <L21>:
9d00887c:	01cf7021 	addu	t6,t6,t7
9d008880:	00867825 	or	t7,a0,a2
9d008884:	11e00002 	beqz	t7,9d008890 <i13>
9d008888:	00000000 	nop
9d00888c:	34e70001 	ori	a3,a3,0x1

9d008890 <i13>:
9d008890:	000e4825 	or	t1,zero,t6
9d008894:	05200006 	bltz	t1,9d0088b0 <i14>
9d008898:	00074025 	or	t0,zero,a3
9d00889c:	0100782a 	slt	t7,t0,zero
9d0088a0:	01084021 	addu	t0,t0,t0
9d0088a4:	01294821 	addu	t1,t1,t1
9d0088a8:	012f4821 	addu	t1,t1,t7
9d0088ac:	254affff 	addiu	t2,t2,-1

9d0088b0 <i14>:
9d0088b0:	254fffff 	addiu	t7,t2,-1
9d0088b4:	2de107fe 	sltiu	at,t7,2046
9d0088b8:	10200068 	beqz	at,9d008a5c <Coveund>
9d0088bc:	00000000 	nop
9d0088c0:	25080400 	addiu	t0,t0,1024
9d0088c4:	2d0f0400 	sltiu	t7,t0,1024
9d0088c8:	012f4821 	addu	t1,t1,t7
9d0088cc:	012f782b 	sltu	t7,t1,t7
9d0088d0:	014f5021 	addu	t2,t2,t7

9d0088d4 <Clab8>:
9d0088d4:	00087ac2 	srl	t7,t0,0xb
9d0088d8:	31ef0001 	andi	t7,t7,0x1
9d0088dc:	010f4023 	subu	t0,t0,t7
9d0088e0:	000822c2 	srl	a0,t0,0xb
9d0088e4:	00097d40 	sll	t7,t1,0x15
9d0088e8:	008f2025 	or	a0,a0,t7
9d0088ec:	00097840 	sll	t7,t1,0x1
9d0088f0:	000f7b02 	srl	t7,t7,0xc
9d0088f4:	00af2825 	or	a1,a1,t7
9d0088f8:	000a7d00 	sll	t7,t2,0x14
9d0088fc:	00af2825 	or	a1,a1,t7

9d008900 <Cret>:
9d008900:	00041025 	or	v0,zero,a0
9d008904:	00051825 	or	v1,zero,a1

9d008908 <C999>:
9d008908:	03e00008 	jr	ra
9d00890c:	00000000 	nop

9d008910 <CspecA>:
9d008910:	0100782a 	slt	t7,t0,zero
9d008914:	01084021 	addu	t0,t0,t0
9d008918:	01294821 	addu	t1,t1,t1
9d00891c:	1540001c 	bnez	t2,9d008990 <i15>
9d008920:	012f4821 	addu	t1,t1,t7
9d008924:	01287825 	or	t7,t1,t0
9d008928:	11e00014 	beqz	t7,9d00897c <i16>
9d00892c:	00000000 	nop
9d008930:	15200008 	bnez	t1,9d008954 <L22>
9d008934:	00000000 	nop
9d008938:	15000003 	bnez	t0,9d008948 <L23>
9d00893c:	00000000 	nop
9d008940:	1000ffad 	b	9d0087f8 <Clab1>
9d008944:	240a0000 	li	t2,0

9d008948 <L23>:
9d008948:	01004825 	move	t1,t0
9d00894c:	24080000 	li	t0,0
9d008950:	254affe0 	addiu	t2,t2,-32

9d008954 <L22>:
9d008954:	712e7020 	clz	t6,t1
9d008958:	11c0ffa7 	beqz	t6,9d0087f8 <Clab1>
9d00895c:	00000000 	nop
9d008960:	014e5023 	subu	t2,t2,t6
9d008964:	000e3822 	neg	a3,t6
9d008968:	00e83806 	srlv	a3,t0,a3
9d00896c:	01c84004 	sllv	t0,t0,t6
9d008970:	01c94804 	sllv	t1,t1,t6
9d008974:	1000ffa0 	b	9d0087f8 <Clab1>
9d008978:	01274825 	or	t1,t1,a3

9d00897c <i16>:
9d00897c:	240107ff 	li	at,2047
9d008980:	11a10033 	beq	t5,at,9d008a50 <Cnan>
9d008984:	00000000 	nop
9d008988:	1000ffdd 	b	9d008900 <Cret>
9d00898c:	00000000 	nop

9d008990 <i15>:
9d008990:	01287825 	or	t7,t1,t0
9d008994:	15e0002e 	bnez	t7,9d008a50 <Cnan>
9d008998:	00000000 	nop
9d00899c:	15a00005 	bnez	t5,9d0089b4 <i17>
9d0089a0:	00000000 	nop
9d0089a4:	000c7840 	sll	t7,t4,0x1
9d0089a8:	01eb7825 	or	t7,t7,t3
9d0089ac:	11e00028 	beqz	t7,9d008a50 <Cnan>
9d0089b0:	00000000 	nop

9d0089b4 <i17>:
9d0089b4:	240107ff 	li	at,2047
9d0089b8:	15a10021 	bne	t5,at,9d008a40 <Cinf>
9d0089bc:	00000000 	nop

9d0089c0 <CspecB>:
9d0089c0:	0160782a 	slt	t7,t3,zero
9d0089c4:	016b5821 	addu	t3,t3,t3
9d0089c8:	018c6021 	addu	t4,t4,t4
9d0089cc:	15a00019 	bnez	t5,9d008a34 <i18>
9d0089d0:	018f6021 	addu	t4,t4,t7
9d0089d4:	018b7825 	or	t7,t4,t3
9d0089d8:	11e00014 	beqz	t7,9d008a2c <i19>
9d0089dc:	00000000 	nop
9d0089e0:	15800008 	bnez	t4,9d008a04 <L25>
9d0089e4:	00000000 	nop
9d0089e8:	15600003 	bnez	t3,9d0089f8 <L26>
9d0089ec:	00000000 	nop
9d0089f0:	1000ff85 	b	9d008808 <Clab2>
9d0089f4:	240d0000 	li	t5,0

9d0089f8 <L26>:
9d0089f8:	01606025 	move	t4,t3
9d0089fc:	240b0000 	li	t3,0
9d008a00:	25adffe0 	addiu	t5,t5,-32

9d008a04 <L25>:
9d008a04:	71863020 	clz	a2,t4
9d008a08:	10c0ff7f 	beqz	a2,9d008808 <Clab2>
9d008a0c:	00000000 	nop
9d008a10:	01a66823 	subu	t5,t5,a2
9d008a14:	00067022 	neg	t6,a2
9d008a18:	01cb7006 	srlv	t6,t3,t6
9d008a1c:	00cb5804 	sllv	t3,t3,a2
9d008a20:	00cc6004 	sllv	t4,t4,a2
9d008a24:	1000ff78 	b	9d008808 <Clab2>
9d008a28:	018e6025 	or	t4,t4,t6

9d008a2c <i19>:
9d008a2c:	1000ffb4 	b	9d008900 <Cret>
9d008a30:	24040000 	li	a0,0

9d008a34 <i18>:
9d008a34:	018b7825 	or	t7,t4,t3
9d008a38:	15e00005 	bnez	t7,9d008a50 <Cnan>
9d008a3c:	00000000 	nop

9d008a40 <Cinf>:
9d008a40:	3c017ff0 	lui	at,0x7ff0
9d008a44:	00a12825 	or	a1,a1,at
9d008a48:	1000ffad 	b	9d008900 <Cret>
9d008a4c:	24040000 	li	a0,0

9d008a50 <Cnan>:
9d008a50:	3c05fff8 	lui	a1,0xfff8
9d008a54:	1000ffaa 	b	9d008900 <Cret>
9d008a58:	24040000 	li	a0,0

9d008a5c <Coveund>:
9d008a5c:	1d40fff8 	bgtz	t2,9d008a40 <Cinf>
9d008a60:	00000000 	nop
9d008a64:	240e0001 	li	t6,1
9d008a68:	01ca7023 	subu	t6,t6,t2

9d008a6c <L28>:
9d008a6c:	2dc10020 	sltiu	at,t6,32
9d008a70:	14200007 	bnez	at,9d008a90 <L29>
9d008a74:	00000000 	nop
9d008a78:	21ceffe0 	addi	t6,t6,-32
9d008a7c:	0008302b 	sltu	a2,zero,t0
9d008a80:	1009000d 	beq	zero,t1,9d008ab8 <L30>
9d008a84:	01264025 	or	t0,t1,a2
9d008a88:	1000fff8 	b	9d008a6c <L28>
9d008a8c:	34090000 	li	t1,0x0

9d008a90 <L29>:
9d008a90:	11c00009 	beqz	t6,9d008ab8 <L30>
9d008a94:	00000000 	nop
9d008a98:	000e3822 	neg	a3,t6
9d008a9c:	00e83004 	sllv	a2,t0,a3
9d008aa0:	00e93804 	sllv	a3,t1,a3
9d008aa4:	01c84006 	srlv	t0,t0,t6
9d008aa8:	01c94806 	srlv	t1,t1,t6
9d008aac:	10c00002 	beqz	a2,9d008ab8 <L30>
9d008ab0:	00e84025 	or	t0,a3,t0
9d008ab4:	35080002 	ori	t0,t0,0x2

9d008ab8 <L30>:
9d008ab8:	25080400 	addiu	t0,t0,1024
9d008abc:	2d0f0400 	sltiu	t7,t0,1024
9d008ac0:	012f4821 	addu	t1,t1,t7
9d008ac4:	1000ff83 	b	9d0088d4 <Clab8>
9d008ac8:	000957c2 	srl	t2,t1,0x1f
9d008acc:	00000000 	nop

Disassembly of section .text.strtoull:

9d008ad0 <strtoull>:
9d008ad0:	27bdffd0 	addiu	sp,sp,-48
9d008ad4:	afbf002c 	sw	ra,44(sp)
9d008ad8:	afb50028 	sw	s5,40(sp)
9d008adc:	afb40024 	sw	s4,36(sp)
9d008ae0:	afb30020 	sw	s3,32(sp)
9d008ae4:	afb2001c 	sw	s2,28(sp)
9d008ae8:	afb10018 	sw	s1,24(sp)
9d008aec:	afb00014 	sw	s0,20(sp)
9d008af0:	00808821 	move	s1,a0
9d008af4:	80820000 	lb	v0,0(a0)
9d008af8:	00a09821 	move	s3,a1
9d008afc:	1040001f 	beqz	v0,9d008b7c <strtoull+0xac>
9d008b00:	00c09021 	move	s2,a2
9d008b04:	3c049d01 	lui	a0,0x9d01
9d008b08:	2484aa79 	addiu	a0,a0,-21895
9d008b0c:	0b4022c8 	j	9d008b20 <strtoull+0x50>
9d008b10:	00821821 	addu	v1,a0,v0
9d008b14:	82220000 	lb	v0,0(s1)
9d008b18:	10400018 	beqz	v0,9d008b7c <strtoull+0xac>
9d008b1c:	00821821 	addu	v1,a0,v0
9d008b20:	80630000 	lb	v1,0(v1)
9d008b24:	30630088 	andi	v1,v1,0x88
9d008b28:	5460fffa 	bnezl	v1,9d008b14 <strtoull+0x44>
9d008b2c:	26310001 	addiu	s1,s1,1
9d008b30:	2403002b 	li	v1,43
9d008b34:	14430079 	bne	v0,v1,9d008d1c <strtoull+0x24c>
9d008b38:	2403002d 	li	v1,45
9d008b3c:	3842002d 	xori	v0,v0,0x2d
9d008b40:	82300001 	lb	s0,1(s1)
9d008b44:	2c550001 	sltiu	s5,v0,1
9d008b48:	26310001 	addiu	s1,s1,1
9d008b4c:	1640000f 	bnez	s2,9d008b8c <strtoull+0xbc>
9d008b50:	24020010 	li	v0,16
9d008b54:	24020030 	li	v0,48
9d008b58:	12020075 	beq	s0,v0,9d008d30 <strtoull+0x260>
9d008b5c:	3c0d9999 	lui	t5,0x9999
9d008b60:	35ad9999 	ori	t5,t5,0x9999
9d008b64:	3c0a1999 	lui	t2,0x1999
9d008b68:	354a9999 	ori	t2,t2,0x9999
9d008b6c:	240b000a 	li	t3,10
9d008b70:	0000a021 	move	s4,zero
9d008b74:	0b4022ed 	j	9d008bb4 <strtoull+0xe4>
9d008b78:	2412000a 	li	s2,10
9d008b7c:	00008021 	move	s0,zero
9d008b80:	1240fff4 	beqz	s2,9d008b54 <strtoull+0x84>
9d008b84:	0000a821 	move	s5,zero
9d008b88:	24020010 	li	v0,16
9d008b8c:	12420076 	beq	s2,v0,9d008d68 <strtoull+0x298>
9d008b90:	0012a7c3 	sra	s4,s2,0x1f
9d008b94:	2404ffff 	li	a0,-1
9d008b98:	2405ffff 	li	a1,-1
9d008b9c:	02403021 	move	a2,s2
9d008ba0:	0f401d1b 	jal	9d00746c <__udivdi3>
9d008ba4:	02803821 	move	a3,s4
9d008ba8:	02405821 	move	t3,s2
9d008bac:	00406821 	move	t5,v0
9d008bb0:	00605021 	move	t2,v1
9d008bb4:	2624ffff 	addiu	a0,s1,-1
9d008bb8:	00002821 	move	a1,zero
9d008bbc:	00001021 	move	v0,zero
9d008bc0:	00001821 	move	v1,zero
9d008bc4:	3c079d01 	lui	a3,0x9d01
9d008bc8:	24e7aa79 	addiu	a3,a3,-21895
9d008bcc:	240e0061 	li	t6,97
9d008bd0:	240c0041 	li	t4,65
9d008bd4:	1200002b 	beqz	s0,9d008c84 <strtoull+0x1b4>
9d008bd8:	24840001 	addiu	a0,a0,1
9d008bdc:	02074021 	addu	t0,s0,a3
9d008be0:	91080000 	lbu	t0,0(t0)
9d008be4:	31090004 	andi	t1,t0,0x4
9d008be8:	1120003d 	beqz	t1,9d008ce0 <strtoull+0x210>
9d008bec:	31060003 	andi	a2,t0,0x3
9d008bf0:	2610ffd0 	addiu	s0,s0,-48
9d008bf4:	06000023 	bltz	s0,9d008c84 <strtoull+0x1b4>
9d008bf8:	0212402a 	slt	t0,s0,s2
9d008bfc:	11000021 	beqz	t0,9d008c84 <strtoull+0x1b4>
9d008c00:	0143402b 	sltu	t0,t2,v1
9d008c04:	55000034 	bnezl	t0,9d008cd8 <strtoull+0x208>
9d008c08:	24050001 	li	a1,1
9d008c0c:	146a0003 	bne	v1,t2,9d008c1c <strtoull+0x14c>
9d008c10:	01a2302b 	sltu	a2,t5,v0
9d008c14:	54c00030 	bnezl	a2,9d008cd8 <strtoull+0x208>
9d008c18:	24050001 	li	a1,1
9d008c1c:	14a00016 	bnez	a1,9d008c78 <strtoull+0x1a8>
9d008c20:	02820018 	mult	s4,v0
9d008c24:	001047c3 	sra	t0,s0,0x1f
9d008c28:	71630000 	madd	t3,v1
9d008c2c:	00003012 	mflo	a2
9d008c30:	004b0019 	multu	v0,t3
9d008c34:	00001012 	mflo	v0
9d008c38:	00001810 	mfhi	v1
9d008c3c:	00c31821 	addu	v1,a2,v1
9d008c40:	00033027 	nor	a2,zero,v1
9d008c44:	00c8482b 	sltu	t1,a2,t0
9d008c48:	15200022 	bnez	t1,9d008cd4 <strtoull+0x204>
9d008c4c:	00027827 	nor	t7,zero,v0
9d008c50:	55060005 	bnel	t0,a2,9d008c68 <strtoull+0x198>
9d008c54:	02028021 	addu	s0,s0,v0
9d008c58:	01f0782b 	sltu	t7,t7,s0
9d008c5c:	55e0001e 	bnezl	t7,9d008cd8 <strtoull+0x208>
9d008c60:	24050001 	li	a1,1
9d008c64:	02028021 	addu	s0,s0,v0
9d008c68:	0202302b 	sltu	a2,s0,v0
9d008c6c:	00684021 	addu	t0,v1,t0
9d008c70:	02001021 	move	v0,s0
9d008c74:	00c81821 	addu	v1,a2,t0
9d008c78:	80900001 	lb	s0,1(a0)
9d008c7c:	1600ffd7 	bnez	s0,9d008bdc <strtoull+0x10c>
9d008c80:	24840001 	addiu	a0,a0,1
9d008c84:	12a0001d 	beqz	s5,9d008cfc <strtoull+0x22c>
9d008c88:	00000000 	nop
9d008c8c:	54a0001e 	bnezl	a1,9d008d08 <strtoull+0x238>
9d008c90:	24030022 	li	v1,34
9d008c94:	00023823 	negu	a3,v0
9d008c98:	0007282b 	sltu	a1,zero,a3
9d008c9c:	00033023 	negu	a2,v1
9d008ca0:	00e01021 	move	v0,a3
9d008ca4:	00c51823 	subu	v1,a2,a1
9d008ca8:	56600001 	bnezl	s3,9d008cb0 <strtoull+0x1e0>
9d008cac:	ae640000 	sw	a0,0(s3)
9d008cb0:	8fbf002c 	lw	ra,44(sp)
9d008cb4:	8fb50028 	lw	s5,40(sp)
9d008cb8:	8fb40024 	lw	s4,36(sp)
9d008cbc:	8fb30020 	lw	s3,32(sp)
9d008cc0:	8fb2001c 	lw	s2,28(sp)
9d008cc4:	8fb10018 	lw	s1,24(sp)
9d008cc8:	8fb00014 	lw	s0,20(sp)
9d008ccc:	03e00008 	jr	ra
9d008cd0:	27bd0030 	addiu	sp,sp,48
9d008cd4:	24050001 	li	a1,1
9d008cd8:	0b40231f 	j	9d008c7c <strtoull+0x1ac>
9d008cdc:	80900001 	lb	s0,1(a0)
9d008ce0:	10c0ffe8 	beqz	a2,9d008c84 <strtoull+0x1b4>
9d008ce4:	31080001 	andi	t0,t0,0x1
9d008ce8:	01803021 	move	a2,t4
9d008cec:	01c8300a 	movz	a2,t6,t0
9d008cf0:	02068023 	subu	s0,s0,a2
9d008cf4:	0b4022fd 	j	9d008bf4 <strtoull+0x124>
9d008cf8:	2610000a 	addiu	s0,s0,10
9d008cfc:	10a0ffea 	beqz	a1,9d008ca8 <strtoull+0x1d8>
9d008d00:	00000000 	nop
9d008d04:	24030022 	li	v1,34
9d008d08:	3c02a000 	lui	v0,0xa000
9d008d0c:	ac430058 	sw	v1,88(v0)
9d008d10:	2402ffff 	li	v0,-1
9d008d14:	0b40232a 	j	9d008ca8 <strtoull+0x1d8>
9d008d18:	2403ffff 	li	v1,-1
9d008d1c:	1043ff88 	beq	v0,v1,9d008b40 <strtoull+0x70>
9d008d20:	3842002d 	xori	v0,v0,0x2d
9d008d24:	82300000 	lb	s0,0(s1)
9d008d28:	0b4022d3 	j	9d008b4c <strtoull+0x7c>
9d008d2c:	0000a821 	move	s5,zero
9d008d30:	82300001 	lb	s0,1(s1)
9d008d34:	2403ffdf 	li	v1,-33
9d008d38:	02031824 	and	v1,s0,v1
9d008d3c:	24020058 	li	v0,88
9d008d40:	50620012 	beql	v1,v0,9d008d8c <strtoull+0x2bc>
9d008d44:	82300002 	lb	s0,2(s1)
9d008d48:	26310001 	addiu	s1,s1,1
9d008d4c:	240dffff 	li	t5,-1
9d008d50:	3c0a1fff 	lui	t2,0x1fff
9d008d54:	354affff 	ori	t2,t2,0xffff
9d008d58:	240b0008 	li	t3,8
9d008d5c:	0000a021 	move	s4,zero
9d008d60:	0b4022ed 	j	9d008bb4 <strtoull+0xe4>
9d008d64:	24120008 	li	s2,8
9d008d68:	24020030 	li	v0,48
9d008d6c:	5202000f 	beql	s0,v0,9d008dac <strtoull+0x2dc>
9d008d70:	82300001 	lb	s0,1(s1)
9d008d74:	240dffff 	li	t5,-1
9d008d78:	3c0a0fff 	lui	t2,0xfff
9d008d7c:	354affff 	ori	t2,t2,0xffff
9d008d80:	240b0010 	li	t3,16
9d008d84:	0b4022ed 	j	9d008bb4 <strtoull+0xe4>
9d008d88:	0000a021 	move	s4,zero
9d008d8c:	240dffff 	li	t5,-1
9d008d90:	26310002 	addiu	s1,s1,2
9d008d94:	3c0a0fff 	lui	t2,0xfff
9d008d98:	354affff 	ori	t2,t2,0xffff
9d008d9c:	240b0010 	li	t3,16
9d008da0:	0000a021 	move	s4,zero
9d008da4:	0b4022ed 	j	9d008bb4 <strtoull+0xe4>
9d008da8:	24120010 	li	s2,16
9d008dac:	24020078 	li	v0,120
9d008db0:	52020003 	beql	s0,v0,9d008dc0 <strtoull+0x2f0>
9d008db4:	82300002 	lb	s0,2(s1)
9d008db8:	0b40235d 	j	9d008d74 <strtoull+0x2a4>
9d008dbc:	26310001 	addiu	s1,s1,1
9d008dc0:	240dffff 	li	t5,-1
9d008dc4:	26310002 	addiu	s1,s1,2
9d008dc8:	3c0a0fff 	lui	t2,0xfff
9d008dcc:	354affff 	ori	t2,t2,0xffff
9d008dd0:	240b0010 	li	t3,16
9d008dd4:	0b4022ed 	j	9d008bb4 <strtoull+0xe4>
9d008dd8:	0000a021 	move	s4,zero

Disassembly of section .text._strtostr:

9d008ddc <_strtostr>:
9d008ddc:	27bdfec8 	addiu	sp,sp,-312
9d008de0:	afbf0134 	sw	ra,308(sp)
9d008de4:	afbe0130 	sw	s8,304(sp)
9d008de8:	afb7012c 	sw	s7,300(sp)
9d008dec:	afb60128 	sw	s6,296(sp)
9d008df0:	afb50124 	sw	s5,292(sp)
9d008df4:	afb40120 	sw	s4,288(sp)
9d008df8:	afb3011c 	sw	s3,284(sp)
9d008dfc:	afb20118 	sw	s2,280(sp)
9d008e00:	afb10114 	sw	s1,276(sp)
9d008e04:	afb00110 	sw	s0,272(sp)
9d008e08:	00808021 	move	s0,a0
9d008e0c:	afa5013c 	sw	a1,316(sp)
9d008e10:	00c09821 	move	s3,a2
9d008e14:	00e0b021 	move	s6,a3
9d008e18:	24020002 	li	v0,2
9d008e1c:	10820056 	beq	a0,v0,9d008f78 <_strtostr+0x19c>
9d008e20:	8fb20148 	lw	s2,328(sp)
9d008e24:	32730001 	andi	s3,s3,0x1
9d008e28:	16600005 	bnez	s3,9d008e40 <_strtostr+0x64>
9d008e2c:	00000000 	nop
9d008e30:	8e42000c 	lw	v0,12(s2)
9d008e34:	24430004 	addiu	v1,v0,4
9d008e38:	ae43000c 	sw	v1,12(s2)
9d008e3c:	8c510000 	lw	s1,0(v0)
9d008e40:	12c00081 	beqz	s6,9d009048 <_strtostr+0x26c>
9d008e44:	02c0b821 	move	s7,s6
9d008e48:	2414ffff 	li	s4,-1
9d008e4c:	24150001 	li	s5,1
9d008e50:	3c1e9d01 	lui	s8,0x9d01
9d008e54:	27deaa79 	addiu	s8,s8,-21895
9d008e58:	0f402f32 	jal	9d00bcc8 <gsgetc>
9d008e5c:	02402021 	move	a0,s2
9d008e60:	50540011 	beql	v0,s4,9d008ea8 <_strtostr+0xcc>
9d008e64:	02e01821 	move	v1,s7
9d008e68:	12150038 	beq	s0,s5,9d008f4c <_strtostr+0x170>
9d008e6c:	26e3ffff 	addiu	v1,s7,-1
9d008e70:	24040002 	li	a0,2
9d008e74:	1204002b 	beq	s0,a0,9d008f24 <_strtostr+0x148>
9d008e78:	27a50010 	addiu	a1,sp,16
9d008e7c:	16600003 	bnez	s3,9d008e8c <_strtostr+0xb0>
9d008e80:	00000000 	nop
9d008e84:	a2220000 	sb	v0,0(s1)
9d008e88:	26310001 	addiu	s1,s1,1
9d008e8c:	10600006 	beqz	v1,9d008ea8 <_strtostr+0xcc>
9d008e90:	0060b821 	move	s7,v1
9d008e94:	0f402f32 	jal	9d00bcc8 <gsgetc>
9d008e98:	02402021 	move	a0,s2
9d008e9c:	1454fff2 	bne	v0,s4,9d008e68 <_strtostr+0x8c>
9d008ea0:	00000000 	nop
9d008ea4:	02e01821 	move	v1,s7
9d008ea8:	2402ffff 	li	v0,-1
9d008eac:	8e440014 	lw	a0,20(s2)
9d008eb0:	24840001 	addiu	a0,a0,1
9d008eb4:	16600008 	bnez	s3,9d008ed8 <_strtostr+0xfc>
9d008eb8:	ae440014 	sw	a0,20(s2)
9d008ebc:	24040001 	li	a0,1
9d008ec0:	8fa6013c 	lw	a2,316(sp)
9d008ec4:	50c40001 	beql	a2,a0,9d008ecc <_strtostr+0xf0>
9d008ec8:	a2200000 	sb	zero,0(s1)
9d008ecc:	8e440018 	lw	a0,24(s2)
9d008ed0:	24840001 	addiu	a0,a0,1
9d008ed4:	ae440018 	sw	a0,24(s2)
9d008ed8:	14760005 	bne	v1,s6,9d008ef0 <_strtostr+0x114>
9d008edc:	00002021 	move	a0,zero
9d008ee0:	2404ffff 	li	a0,-1
9d008ee4:	00021027 	nor	v0,zero,v0
9d008ee8:	24030001 	li	v1,1
9d008eec:	0062200b 	movn	a0,v1,v0
9d008ef0:	00801021 	move	v0,a0
9d008ef4:	8fbf0134 	lw	ra,308(sp)
9d008ef8:	8fbe0130 	lw	s8,304(sp)
9d008efc:	8fb7012c 	lw	s7,300(sp)
9d008f00:	8fb60128 	lw	s6,296(sp)
9d008f04:	8fb50124 	lw	s5,292(sp)
9d008f08:	8fb40120 	lw	s4,288(sp)
9d008f0c:	8fb3011c 	lw	s3,284(sp)
9d008f10:	8fb20118 	lw	s2,280(sp)
9d008f14:	8fb10114 	lw	s1,276(sp)
9d008f18:	8fb00110 	lw	s0,272(sp)
9d008f1c:	03e00008 	jr	ra
9d008f20:	27bd0138 	addiu	sp,sp,312
9d008f24:	00a22021 	addu	a0,a1,v0
9d008f28:	80840000 	lb	a0,0(a0)
9d008f2c:	1480ffd3 	bnez	a0,9d008e7c <_strtostr+0xa0>
9d008f30:	00000000 	nop
9d008f34:	8e440010 	lw	a0,16(s2)
9d008f38:	ae420004 	sw	v0,4(s2)
9d008f3c:	02e01821 	move	v1,s7
9d008f40:	2484ffff 	addiu	a0,a0,-1
9d008f44:	0b4023ab 	j	9d008eac <_strtostr+0xd0>
9d008f48:	ae440010 	sw	a0,16(s2)
9d008f4c:	005e2021 	addu	a0,v0,s8
9d008f50:	80840000 	lb	a0,0(a0)
9d008f54:	30840088 	andi	a0,a0,0x88
9d008f58:	1080ffc8 	beqz	a0,9d008e7c <_strtostr+0xa0>
9d008f5c:	00000000 	nop
9d008f60:	8e440010 	lw	a0,16(s2)
9d008f64:	ae420004 	sw	v0,4(s2)
9d008f68:	02e01821 	move	v1,s7
9d008f6c:	2484ffff 	addiu	a0,a0,-1
9d008f70:	0b4023ab 	j	9d008eac <_strtostr+0xd0>
9d008f74:	ae440010 	sw	a0,16(s2)
9d008f78:	8e540008 	lw	s4,8(s2)
9d008f7c:	82830000 	lb	v1,0(s4)
9d008f80:	2402005e 	li	v0,94
9d008f84:	50620032 	beql	v1,v0,9d009050 <_strtostr+0x274>
9d008f88:	26940001 	addiu	s4,s4,1
9d008f8c:	24150001 	li	s5,1
9d008f90:	00002821 	move	a1,zero
9d008f94:	27a40010 	addiu	a0,sp,16
9d008f98:	0f4030d0 	jal	9d00c340 <.LFE1>
9d008f9c:	24060100 	li	a2,256
9d008fa0:	82830000 	lb	v1,0(s4)
9d008fa4:	2405ffff 	li	a1,-1
9d008fa8:	2409ffff 	li	t1,-1
9d008fac:	240a002d 	li	t2,45
9d008fb0:	2408005d 	li	t0,93
9d008fb4:	0b4023f9 	j	9d008fe4 <_strtostr+0x208>
9d008fb8:	7c152420 	seb	a0,s5
9d008fbc:	00602821 	move	a1,v1
9d008fc0:	27a30010 	addiu	v1,sp,16
9d008fc4:	00651021 	addu	v0,v1,a1
9d008fc8:	a0550000 	sb	s5,0(v0)
9d008fcc:	02801021 	move	v0,s4
9d008fd0:	24540001 	addiu	s4,v0,1
9d008fd4:	ae540008 	sw	s4,8(s2)
9d008fd8:	80430001 	lb	v1,1(v0)
9d008fdc:	50680018 	beql	v1,t0,9d009040 <_strtostr+0x264>
9d008fe0:	24420002 	addiu	v0,v0,2
9d008fe4:	10a9fff5 	beq	a1,t1,9d008fbc <_strtostr+0x1e0>
9d008fe8:	82870001 	lb	a3,1(s4)
9d008fec:	546afff4 	bnel	v1,t2,9d008fc0 <_strtostr+0x1e4>
9d008ff0:	00602821 	move	a1,v1
9d008ff4:	10e8fff1 	beq	a3,t0,9d008fbc <_strtostr+0x1e0>
9d008ff8:	24a20001 	addiu	v0,a1,1
9d008ffc:	00e2282a 	slt	a1,a3,v0
9d009000:	27a30010 	addiu	v1,sp,16
9d009004:	00621021 	addu	v0,v1,v0
9d009008:	27a60011 	addiu	a2,sp,17
9d00900c:	14a00005 	bnez	a1,9d009024 <_strtostr+0x248>
9d009010:	00c71821 	addu	v1,a2,a3
9d009014:	a0440000 	sb	a0,0(v0)
9d009018:	24420001 	addiu	v0,v0,1
9d00901c:	5443fffe 	bnel	v0,v1,9d009018 <_strtostr+0x23c>
9d009020:	a0440000 	sb	a0,0(v0)
9d009024:	26820001 	addiu	v0,s4,1
9d009028:	24540001 	addiu	s4,v0,1
9d00902c:	ae540008 	sw	s4,8(s2)
9d009030:	80430001 	lb	v1,1(v0)
9d009034:	1468ffeb 	bne	v1,t0,9d008fe4 <_strtostr+0x208>
9d009038:	2405ffff 	li	a1,-1
9d00903c:	24420002 	addiu	v0,v0,2
9d009040:	0b402389 	j	9d008e24 <_strtostr+0x48>
9d009044:	ae420008 	sw	v0,8(s2)
9d009048:	0b4023aa 	j	9d008ea8 <_strtostr+0xcc>
9d00904c:	00001821 	move	v1,zero
9d009050:	ae540008 	sw	s4,8(s2)
9d009054:	0000a821 	move	s5,zero
9d009058:	0b4023e5 	j	9d008f94 <_strtostr+0x1b8>
9d00905c:	24050001 	li	a1,1

Disassembly of section .text.free:

9d009060 <free>:
9d009060:	10800076 	beqz	a0,9d00923c <free+0x1dc>
9d009064:	2403fffe 	li	v1,-2
9d009068:	8c86fffc 	lw	a2,-4(a0)
9d00906c:	2485fff8 	addiu	a1,a0,-8
9d009070:	00c31824 	and	v1,a2,v1
9d009074:	00a31021 	addu	v0,a1,v1
9d009078:	8c470004 	lw	a3,4(v0)
9d00907c:	30e80001 	andi	t0,a3,0x1
9d009080:	1100006e 	beqz	t0,9d00923c <free+0x1dc>
9d009084:	240afffc 	li	t2,-4
9d009088:	3c08a000 	lui	t0,0xa000
9d00908c:	25083ee4 	addiu	t0,t0,16100
9d009090:	8d090008 	lw	t1,8(t0)
9d009094:	00ea3824 	and	a3,a3,t2
9d009098:	10490058 	beq	v0,t1,9d0091fc <free+0x19c>
9d00909c:	30c60001 	andi	a2,a2,0x1
9d0090a0:	ac470004 	sw	a3,4(v0)
9d0090a4:	14c0000c 	bnez	a2,9d0090d8 <free+0x78>
9d0090a8:	00004821 	move	t1,zero
9d0090ac:	8c86fff8 	lw	a2,-8(a0)
9d0090b0:	00a62823 	subu	a1,a1,a2
9d0090b4:	8ca40008 	lw	a0,8(a1)
9d0090b8:	00661821 	addu	v1,v1,a2
9d0090bc:	3c06a000 	lui	a2,0xa000
9d0090c0:	24c63eec 	addiu	a2,a2,16108
9d0090c4:	50860004 	beql	a0,a2,9d0090d8 <free+0x78>
9d0090c8:	24090001 	li	t1,1
9d0090cc:	8ca6000c 	lw	a2,12(a1)
9d0090d0:	ac86000c 	sw	a2,12(a0)
9d0090d4:	acc40008 	sw	a0,8(a2)
9d0090d8:	00472021 	addu	a0,v0,a3
9d0090dc:	8c840004 	lw	a0,4(a0)
9d0090e0:	30840001 	andi	a0,a0,0x1
9d0090e4:	54800008 	bnezl	a0,9d009108 <free+0xa8>
9d0090e8:	34640001 	ori	a0,v1,0x1
9d0090ec:	00671821 	addu	v1,v1,a3
9d0090f0:	11200027 	beqz	t1,9d009190 <free+0x130>
9d0090f4:	8c440008 	lw	a0,8(v0)
9d0090f8:	8c42000c 	lw	v0,12(v0)
9d0090fc:	ac82000c 	sw	v0,12(a0)
9d009100:	ac440008 	sw	a0,8(v0)
9d009104:	34640001 	ori	a0,v1,0x1
9d009108:	00a31021 	addu	v0,a1,v1
9d00910c:	aca40004 	sw	a0,4(a1)
9d009110:	1520004a 	bnez	t1,9d00923c <free+0x1dc>
9d009114:	ac430000 	sw	v1,0(v0)
9d009118:	2c620200 	sltiu	v0,v1,512
9d00911c:	54400029 	bnezl	v0,9d0091c4 <free+0x164>
9d009120:	000318c2 	srl	v1,v1,0x3
9d009124:	00031242 	srl	v0,v1,0x9
9d009128:	2c440005 	sltiu	a0,v0,5
9d00912c:	1080004d 	beqz	a0,9d009264 <free+0x204>
9d009130:	2c440015 	sltiu	a0,v0,21
9d009134:	00032182 	srl	a0,v1,0x6
9d009138:	24840038 	addiu	a0,a0,56
9d00913c:	00043040 	sll	a2,a0,0x1
9d009140:	00063080 	sll	a2,a2,0x2
9d009144:	01063021 	addu	a2,t0,a2
9d009148:	8cc20008 	lw	v0,8(a2)
9d00914c:	5046004a 	beql	v0,a2,9d009278 <free+0x218>
9d009150:	8d030004 	lw	v1,4(t0)
9d009154:	2407fffc 	li	a3,-4
9d009158:	8c440004 	lw	a0,4(v0)
9d00915c:	00872024 	and	a0,a0,a3
9d009160:	0064202b 	sltu	a0,v1,a0
9d009164:	50800005 	beqzl	a0,9d00917c <free+0x11c>
9d009168:	8c43000c 	lw	v1,12(v0)
9d00916c:	8c420008 	lw	v0,8(v0)
9d009170:	54c2fffa 	bnel	a2,v0,9d00915c <free+0xfc>
9d009174:	8c440004 	lw	a0,4(v0)
9d009178:	8c43000c 	lw	v1,12(v0)
9d00917c:	aca3000c 	sw	v1,12(a1)
9d009180:	aca20008 	sw	v0,8(a1)
9d009184:	ac650008 	sw	a1,8(v1)
9d009188:	03e00008 	jr	ra
9d00918c:	ac45000c 	sw	a1,12(v0)
9d009190:	3c06a000 	lui	a2,0xa000
9d009194:	24c63eec 	addiu	a2,a2,16108
9d009198:	5486ffd8 	bnel	a0,a2,9d0090fc <free+0x9c>
9d00919c:	8c42000c 	lw	v0,12(v0)
9d0091a0:	34660001 	ori	a2,v1,0x1
9d0091a4:	00a31021 	addu	v0,a1,v1
9d0091a8:	ad050014 	sw	a1,20(t0)
9d0091ac:	ad050010 	sw	a1,16(t0)
9d0091b0:	aca4000c 	sw	a0,12(a1)
9d0091b4:	aca40008 	sw	a0,8(a1)
9d0091b8:	aca60004 	sw	a2,4(a1)
9d0091bc:	03e00008 	jr	ra
9d0091c0:	ac430000 	sw	v1,0(v0)
9d0091c4:	000310c0 	sll	v0,v1,0x3
9d0091c8:	01021021 	addu	v0,t0,v0
9d0091cc:	8d060004 	lw	a2,4(t0)
9d0091d0:	8c440008 	lw	a0,8(v0)
9d0091d4:	00031883 	sra	v1,v1,0x2
9d0091d8:	24070001 	li	a3,1
9d0091dc:	00671804 	sllv	v1,a3,v1
9d0091e0:	00661825 	or	v1,v1,a2
9d0091e4:	aca2000c 	sw	v0,12(a1)
9d0091e8:	aca40008 	sw	a0,8(a1)
9d0091ec:	ad030004 	sw	v1,4(t0)
9d0091f0:	ac450008 	sw	a1,8(v0)
9d0091f4:	03e00008 	jr	ra
9d0091f8:	ac85000c 	sw	a1,12(a0)
9d0091fc:	14c00008 	bnez	a2,9d009220 <free+0x1c0>
9d009200:	00e33821 	addu	a3,a3,v1
9d009204:	8c84fff8 	lw	a0,-8(a0)
9d009208:	00a42823 	subu	a1,a1,a0
9d00920c:	8ca2000c 	lw	v0,12(a1)
9d009210:	8ca30008 	lw	v1,8(a1)
9d009214:	00e43821 	addu	a3,a3,a0
9d009218:	ac62000c 	sw	v0,12(v1)
9d00921c:	ac430008 	sw	v1,8(v0)
9d009220:	3c02a000 	lui	v0,0xa000
9d009224:	8c423ee0 	lw	v0,16096(v0)
9d009228:	34e30001 	ori	v1,a3,0x1
9d00922c:	aca30004 	sw	v1,4(a1)
9d009230:	00e2382b 	sltu	a3,a3,v0
9d009234:	10e00003 	beqz	a3,9d009244 <free+0x1e4>
9d009238:	ad050008 	sw	a1,8(t0)
9d00923c:	03e00008 	jr	ra
9d009240:	00000000 	nop
9d009244:	27bdffe8 	addiu	sp,sp,-24
9d009248:	afbf0014 	sw	ra,20(sp)
9d00924c:	3c02a000 	lui	v0,0xa000
9d009250:	0f402a5c 	jal	9d00a970 <malloc_trim>
9d009254:	8c444798 	lw	a0,18328(v0)
9d009258:	8fbf0014 	lw	ra,20(sp)
9d00925c:	03e00008 	jr	ra
9d009260:	27bd0018 	addiu	sp,sp,24
9d009264:	5080000b 	beqzl	a0,9d009294 <free+0x234>
9d009268:	2c440055 	sltiu	a0,v0,85
9d00926c:	2444005b 	addiu	a0,v0,91
9d009270:	0b402450 	j	9d009140 <free+0xe0>
9d009274:	00043040 	sll	a2,a0,0x1
9d009278:	00042083 	sra	a0,a0,0x2
9d00927c:	24060001 	li	a2,1
9d009280:	00862004 	sllv	a0,a2,a0
9d009284:	00831825 	or	v1,a0,v1
9d009288:	ad030004 	sw	v1,4(t0)
9d00928c:	0b40245f 	j	9d00917c <free+0x11c>
9d009290:	00401821 	move	v1,v0
9d009294:	50800005 	beqzl	a0,9d0092ac <free+0x24c>
9d009298:	2c440155 	sltiu	a0,v0,341
9d00929c:	00032302 	srl	a0,v1,0xc
9d0092a0:	2484006e 	addiu	a0,a0,110
9d0092a4:	0b402450 	j	9d009140 <free+0xe0>
9d0092a8:	00043040 	sll	a2,a0,0x1
9d0092ac:	10800005 	beqz	a0,9d0092c4 <free+0x264>
9d0092b0:	2c420555 	sltiu	v0,v0,1365
9d0092b4:	000323c2 	srl	a0,v1,0xf
9d0092b8:	24840077 	addiu	a0,a0,119
9d0092bc:	0b402450 	j	9d009140 <free+0xe0>
9d0092c0:	00043040 	sll	a2,a0,0x1
9d0092c4:	50400005 	beqzl	v0,9d0092dc <free+0x27c>
9d0092c8:	240600fc 	li	a2,252
9d0092cc:	00032482 	srl	a0,v1,0x12
9d0092d0:	2484007c 	addiu	a0,a0,124
9d0092d4:	0b402450 	j	9d009140 <free+0xe0>
9d0092d8:	00043040 	sll	a2,a0,0x1
9d0092dc:	0b402450 	j	9d009140 <free+0xe0>
9d0092e0:	2404007e 	li	a0,126

Disassembly of section .text.strtoul:

9d0092e4 <strtoul>:
9d0092e4:	80820000 	lb	v0,0(a0)
9d0092e8:	10400089 	beqz	v0,9d009510 <strtoul+0x22c>
9d0092ec:	00001821 	move	v1,zero
9d0092f0:	3c089d01 	lui	t0,0x9d01
9d0092f4:	2508aa79 	addiu	t0,t0,-21895
9d0092f8:	01021821 	addu	v1,t0,v0
9d0092fc:	80630000 	lb	v1,0(v1)
9d009300:	30630088 	andi	v1,v1,0x88
9d009304:	14600007 	bnez	v1,9d009324 <strtoul+0x40>
9d009308:	00803821 	move	a3,a0
9d00930c:	0b40251d 	j	9d009474 <strtoul+0x190>
9d009310:	2403002b 	li	v1,43
9d009314:	80630000 	lb	v1,0(v1)
9d009318:	30630088 	andi	v1,v1,0x88
9d00931c:	50600055 	beqzl	v1,9d009474 <strtoul+0x190>
9d009320:	2403002b 	li	v1,43
9d009324:	24e70001 	addiu	a3,a3,1
9d009328:	80e20000 	lb	v0,0(a3)
9d00932c:	1440fff9 	bnez	v0,9d009314 <strtoul+0x30>
9d009330:	01021821 	addu	v1,t0,v0
9d009334:	00001821 	move	v1,zero
9d009338:	0000c021 	move	t8,zero
9d00933c:	14c00041 	bnez	a2,9d009444 <strtoul+0x160>
9d009340:	24020010 	li	v0,16
9d009344:	24020030 	li	v0,48
9d009348:	1062005d 	beq	v1,v0,9d0094c0 <strtoul+0x1dc>
9d00934c:	3c0d1999 	lui	t5,0x1999
9d009350:	35ad9999 	ori	t5,t5,0x9999
9d009354:	240f000a 	li	t7,10
9d009358:	00005821 	move	t3,zero
9d00935c:	2406000a 	li	a2,10
9d009360:	24e7ffff 	addiu	a3,a3,-1
9d009364:	00005021 	move	t2,zero
9d009368:	00001021 	move	v0,zero
9d00936c:	3c0c9d01 	lui	t4,0x9d01
9d009370:	258caa79 	addiu	t4,t4,-21895
9d009374:	24190061 	li	t9,97
9d009378:	240e0041 	li	t6,65
9d00937c:	10600019 	beqz	v1,9d0093e4 <strtoul+0x100>
9d009380:	24e70001 	addiu	a3,a3,1
9d009384:	006c4021 	addu	t0,v1,t4
9d009388:	91080000 	lbu	t0,0(t0)
9d00938c:	31090004 	andi	t1,t0,0x4
9d009390:	11200023 	beqz	t1,9d009420 <strtoul+0x13c>
9d009394:	31090003 	andi	t1,t0,0x3
9d009398:	2463ffd0 	addiu	v1,v1,-48
9d00939c:	04600011 	bltz	v1,9d0093e4 <strtoul+0x100>
9d0093a0:	0066402a 	slt	t0,v1,a2
9d0093a4:	1100000f 	beqz	t0,9d0093e4 <strtoul+0x100>
9d0093a8:	01a2402b 	sltu	t0,t5,v0
9d0093ac:	55000019 	bnezl	t0,9d009414 <strtoul+0x130>
9d0093b0:	240a0001 	li	t2,1
9d0093b4:	55400008 	bnezl	t2,9d0093d8 <strtoul+0xf4>
9d0093b8:	80e30001 	lb	v1,1(a3)
9d0093bc:	704f1002 	mul	v0,v0,t7
9d0093c0:	00024027 	nor	t0,zero,v0
9d0093c4:	0103402b 	sltu	t0,t0,v1
9d0093c8:	55000012 	bnezl	t0,9d009414 <strtoul+0x130>
9d0093cc:	240a0001 	li	t2,1
9d0093d0:	00431021 	addu	v0,v0,v1
9d0093d4:	80e30001 	lb	v1,1(a3)
9d0093d8:	240b0001 	li	t3,1
9d0093dc:	1460ffe9 	bnez	v1,9d009384 <strtoul+0xa0>
9d0093e0:	24e70001 	addiu	a3,a3,1
9d0093e4:	1300001f 	beqz	t8,9d009464 <strtoul+0x180>
9d0093e8:	00000000 	nop
9d0093ec:	11400005 	beqz	t2,9d009404 <strtoul+0x120>
9d0093f0:	00021023 	negu	v0,v0
9d0093f4:	24030022 	li	v1,34
9d0093f8:	3c02a000 	lui	v0,0xa000
9d0093fc:	ac430058 	sw	v1,88(v0)
9d009400:	2402ffff 	li	v0,-1
9d009404:	10a0000d 	beqz	a1,9d00943c <strtoul+0x158>
9d009408:	008b380a 	movz	a3,a0,t3
9d00940c:	03e00008 	jr	ra
9d009410:	aca70000 	sw	a3,0(a1)
9d009414:	80e30001 	lb	v1,1(a3)
9d009418:	0b4024f7 	j	9d0093dc <strtoul+0xf8>
9d00941c:	240b0001 	li	t3,1
9d009420:	1120fff0 	beqz	t1,9d0093e4 <strtoul+0x100>
9d009424:	31080001 	andi	t0,t0,0x1
9d009428:	01c04821 	move	t1,t6
9d00942c:	0328480a 	movz	t1,t9,t0
9d009430:	00691823 	subu	v1,v1,t1
9d009434:	0b4024e7 	j	9d00939c <strtoul+0xb8>
9d009438:	2463000a 	addiu	v1,v1,10
9d00943c:	03e00008 	jr	ra
9d009440:	00000000 	nop
9d009444:	10c20017 	beq	a2,v0,9d0094a4 <strtoul+0x1c0>
9d009448:	240dffff 	li	t5,-1
9d00944c:	00c07821 	move	t7,a2
9d009450:	01a6001b 	divu	zero,t5,a2
9d009454:	00c001f4 	teq	a2,zero,0x7
9d009458:	00006812 	mflo	t5
9d00945c:	0b4024d8 	j	9d009360 <strtoul+0x7c>
9d009460:	00005821 	move	t3,zero
9d009464:	1540ffe4 	bnez	t2,9d0093f8 <strtoul+0x114>
9d009468:	24030022 	li	v1,34
9d00946c:	0b402501 	j	9d009404 <strtoul+0x120>
9d009470:	00000000 	nop
9d009474:	54430006 	bnel	v0,v1,9d009490 <strtoul+0x1ac>
9d009478:	2403002d 	li	v1,45
9d00947c:	3842002d 	xori	v0,v0,0x2d
9d009480:	80e30001 	lb	v1,1(a3)
9d009484:	2c580001 	sltiu	t8,v0,1
9d009488:	0b4024cf 	j	9d00933c <strtoul+0x58>
9d00948c:	24e70001 	addiu	a3,a3,1
9d009490:	5043fffb 	beql	v0,v1,9d009480 <strtoul+0x19c>
9d009494:	3842002d 	xori	v0,v0,0x2d
9d009498:	80e30000 	lb	v1,0(a3)
9d00949c:	0b4024cf 	j	9d00933c <strtoul+0x58>
9d0094a0:	0000c021 	move	t8,zero
9d0094a4:	24020030 	li	v0,48
9d0094a8:	1062001c 	beq	v1,v0,9d00951c <strtoul+0x238>
9d0094ac:	3c0d0fff 	lui	t5,0xfff
9d0094b0:	35adffff 	ori	t5,t5,0xffff
9d0094b4:	240f0010 	li	t7,16
9d0094b8:	0b4024d8 	j	9d009360 <strtoul+0x7c>
9d0094bc:	00005821 	move	t3,zero
9d0094c0:	80e30001 	lb	v1,1(a3)
9d0094c4:	2406ffdf 	li	a2,-33
9d0094c8:	00663024 	and	a2,v1,a2
9d0094cc:	24020058 	li	v0,88
9d0094d0:	50c20008 	beql	a2,v0,9d0094f4 <strtoul+0x210>
9d0094d4:	80e30002 	lb	v1,2(a3)
9d0094d8:	24e70001 	addiu	a3,a3,1
9d0094dc:	3c0d1fff 	lui	t5,0x1fff
9d0094e0:	35adffff 	ori	t5,t5,0xffff
9d0094e4:	240f0008 	li	t7,8
9d0094e8:	240b0001 	li	t3,1
9d0094ec:	0b4024d8 	j	9d009360 <strtoul+0x7c>
9d0094f0:	24060008 	li	a2,8
9d0094f4:	3c0d0fff 	lui	t5,0xfff
9d0094f8:	35adffff 	ori	t5,t5,0xffff
9d0094fc:	24e70002 	addiu	a3,a3,2
9d009500:	240f0010 	li	t7,16
9d009504:	240b0001 	li	t3,1
9d009508:	0b4024d8 	j	9d009360 <strtoul+0x7c>
9d00950c:	24060010 	li	a2,16
9d009510:	00803821 	move	a3,a0
9d009514:	0b4024cf 	j	9d00933c <strtoul+0x58>
9d009518:	0000c021 	move	t8,zero
9d00951c:	80e30001 	lb	v1,1(a3)
9d009520:	2408ffdf 	li	t0,-33
9d009524:	00684024 	and	t0,v1,t0
9d009528:	24020058 	li	v0,88
9d00952c:	51020007 	beql	t0,v0,9d00954c <strtoul+0x268>
9d009530:	80e30002 	lb	v1,2(a3)
9d009534:	24e70001 	addiu	a3,a3,1
9d009538:	3c0d0fff 	lui	t5,0xfff
9d00953c:	35adffff 	ori	t5,t5,0xffff
9d009540:	240f0010 	li	t7,16
9d009544:	0b4024d8 	j	9d009360 <strtoul+0x7c>
9d009548:	240b0001 	li	t3,1
9d00954c:	3c0d0fff 	lui	t5,0xfff
9d009550:	35adffff 	ori	t5,t5,0xffff
9d009554:	24e70002 	addiu	a3,a3,2
9d009558:	240f0010 	li	t7,16
9d00955c:	0b4024d8 	j	9d009360 <strtoul+0x7c>
9d009560:	240b0001 	li	t3,1

Disassembly of section .text.strtol:

9d009564 <strtol>:
9d009564:	80820000 	lb	v0,0(a0)
9d009568:	1040008a 	beqz	v0,9d009794 <strtol+0x230>
9d00956c:	00001821 	move	v1,zero
9d009570:	3c089d01 	lui	t0,0x9d01
9d009574:	2508aa79 	addiu	t0,t0,-21895
9d009578:	01021821 	addu	v1,t0,v0
9d00957c:	80630000 	lb	v1,0(v1)
9d009580:	30630088 	andi	v1,v1,0x88
9d009584:	14600007 	bnez	v1,9d0095a4 <strtol+0x40>
9d009588:	00803821 	move	a3,a0
9d00958c:	0b4025c1 	j	9d009704 <strtol+0x1a0>
9d009590:	2403002b 	li	v1,43
9d009594:	80630000 	lb	v1,0(v1)
9d009598:	30630088 	andi	v1,v1,0x88
9d00959c:	50600059 	beqzl	v1,9d009704 <strtol+0x1a0>
9d0095a0:	2403002b 	li	v1,43
9d0095a4:	24e70001 	addiu	a3,a3,1
9d0095a8:	80e20000 	lb	v0,0(a3)
9d0095ac:	1440fff9 	bnez	v0,9d009594 <strtol+0x30>
9d0095b0:	01021821 	addu	v1,t0,v0
9d0095b4:	00001821 	move	v1,zero
9d0095b8:	0000c021 	move	t8,zero
9d0095bc:	14c00042 	bnez	a2,9d0096c8 <strtol+0x164>
9d0095c0:	24020010 	li	v0,16
9d0095c4:	24020030 	li	v0,48
9d0095c8:	10620060 	beq	v1,v0,9d00974c <strtol+0x1e8>
9d0095cc:	3c0d0ccc 	lui	t5,0xccc
9d0095d0:	35adcccc 	ori	t5,t5,0xcccc
9d0095d4:	00005821 	move	t3,zero
9d0095d8:	2406000a 	li	a2,10
9d0095dc:	24e7ffff 	addiu	a3,a3,-1
9d0095e0:	00005021 	move	t2,zero
9d0095e4:	00001021 	move	v0,zero
9d0095e8:	3c0c9d01 	lui	t4,0x9d01
9d0095ec:	258caa79 	addiu	t4,t4,-21895
9d0095f0:	240f0061 	li	t7,97
9d0095f4:	240e0041 	li	t6,65
9d0095f8:	3c197fff 	lui	t9,0x7fff
9d0095fc:	3739ffff 	ori	t9,t9,0xffff
9d009600:	10600019 	beqz	v1,9d009668 <strtol+0x104>
9d009604:	24e70001 	addiu	a3,a3,1
9d009608:	006c4021 	addu	t0,v1,t4
9d00960c:	91080000 	lbu	t0,0(t0)
9d009610:	31090004 	andi	t1,t0,0x4
9d009614:	11200023 	beqz	t1,9d0096a4 <strtol+0x140>
9d009618:	31090003 	andi	t1,t0,0x3
9d00961c:	2463ffd0 	addiu	v1,v1,-48
9d009620:	04600011 	bltz	v1,9d009668 <strtol+0x104>
9d009624:	0066402a 	slt	t0,v1,a2
9d009628:	1100000f 	beqz	t0,9d009668 <strtol+0x104>
9d00962c:	01a2402a 	slt	t0,t5,v0
9d009630:	55000019 	bnezl	t0,9d009698 <strtol+0x134>
9d009634:	240a0001 	li	t2,1
9d009638:	55400017 	bnezl	t2,9d009698 <strtol+0x134>
9d00963c:	240a0001 	li	t2,1
9d009640:	70461002 	mul	v0,v0,a2
9d009644:	03224023 	subu	t0,t9,v0
9d009648:	0103402a 	slt	t0,t0,v1
9d00964c:	55000012 	bnezl	t0,9d009698 <strtol+0x134>
9d009650:	240a0001 	li	t2,1
9d009654:	00431021 	addu	v0,v0,v1
9d009658:	80e30001 	lb	v1,1(a3)
9d00965c:	240b0001 	li	t3,1
9d009660:	1460ffe9 	bnez	v1,9d009608 <strtol+0xa4>
9d009664:	24e70001 	addiu	a3,a3,1
9d009668:	1300001f 	beqz	t8,9d0096e8 <strtol+0x184>
9d00966c:	00000000 	nop
9d009670:	11400005 	beqz	t2,9d009688 <strtol+0x124>
9d009674:	00021023 	negu	v0,v0
9d009678:	24030022 	li	v1,34
9d00967c:	3c02a000 	lui	v0,0xa000
9d009680:	ac430058 	sw	v1,88(v0)
9d009684:	3c028000 	lui	v0,0x8000
9d009688:	10a0000d 	beqz	a1,9d0096c0 <strtol+0x15c>
9d00968c:	008b380a 	movz	a3,a0,t3
9d009690:	03e00008 	jr	ra
9d009694:	aca70000 	sw	a3,0(a1)
9d009698:	80e30001 	lb	v1,1(a3)
9d00969c:	0b402598 	j	9d009660 <strtol+0xfc>
9d0096a0:	240b0001 	li	t3,1
9d0096a4:	1120fff0 	beqz	t1,9d009668 <strtol+0x104>
9d0096a8:	31080001 	andi	t0,t0,0x1
9d0096ac:	01c04821 	move	t1,t6
9d0096b0:	01e8480a 	movz	t1,t7,t0
9d0096b4:	00691823 	subu	v1,v1,t1
9d0096b8:	0b402588 	j	9d009620 <strtol+0xbc>
9d0096bc:	2463000a 	addiu	v1,v1,10
9d0096c0:	03e00008 	jr	ra
9d0096c4:	00000000 	nop
9d0096c8:	10c2001a 	beq	a2,v0,9d009734 <strtol+0x1d0>
9d0096cc:	3c0d7fff 	lui	t5,0x7fff
9d0096d0:	35adffff 	ori	t5,t5,0xffff
9d0096d4:	01a6001a 	div	zero,t5,a2
9d0096d8:	00c001f4 	teq	a2,zero,0x7
9d0096dc:	00006812 	mflo	t5
9d0096e0:	0b402577 	j	9d0095dc <strtol+0x78>
9d0096e4:	00005821 	move	t3,zero
9d0096e8:	1140ffe7 	beqz	t2,9d009688 <strtol+0x124>
9d0096ec:	24030022 	li	v1,34
9d0096f0:	3c02a000 	lui	v0,0xa000
9d0096f4:	ac430058 	sw	v1,88(v0)
9d0096f8:	3c027fff 	lui	v0,0x7fff
9d0096fc:	0b4025a2 	j	9d009688 <strtol+0x124>
9d009700:	3442ffff 	ori	v0,v0,0xffff
9d009704:	54430006 	bnel	v0,v1,9d009720 <strtol+0x1bc>
9d009708:	2403002d 	li	v1,45
9d00970c:	3842002d 	xori	v0,v0,0x2d
9d009710:	80e30001 	lb	v1,1(a3)
9d009714:	2c580001 	sltiu	t8,v0,1
9d009718:	0b40256f 	j	9d0095bc <strtol+0x58>
9d00971c:	24e70001 	addiu	a3,a3,1
9d009720:	5043fffb 	beql	v0,v1,9d009710 <strtol+0x1ac>
9d009724:	3842002d 	xori	v0,v0,0x2d
9d009728:	80e30000 	lb	v1,0(a3)
9d00972c:	0b40256f 	j	9d0095bc <strtol+0x58>
9d009730:	0000c021 	move	t8,zero
9d009734:	24020030 	li	v0,48
9d009738:	10620019 	beq	v1,v0,9d0097a0 <strtol+0x23c>
9d00973c:	3c0d07ff 	lui	t5,0x7ff
9d009740:	35adffff 	ori	t5,t5,0xffff
9d009744:	0b402577 	j	9d0095dc <strtol+0x78>
9d009748:	00005821 	move	t3,zero
9d00974c:	80e30001 	lb	v1,1(a3)
9d009750:	2406ffdf 	li	a2,-33
9d009754:	00663024 	and	a2,v1,a2
9d009758:	24020058 	li	v0,88
9d00975c:	50c20007 	beql	a2,v0,9d00977c <strtol+0x218>
9d009760:	80e30002 	lb	v1,2(a3)
9d009764:	24e70001 	addiu	a3,a3,1
9d009768:	3c0d0fff 	lui	t5,0xfff
9d00976c:	35adffff 	ori	t5,t5,0xffff
9d009770:	240b0001 	li	t3,1
9d009774:	0b402577 	j	9d0095dc <strtol+0x78>
9d009778:	24060008 	li	a2,8
9d00977c:	3c0d07ff 	lui	t5,0x7ff
9d009780:	35adffff 	ori	t5,t5,0xffff
9d009784:	24e70002 	addiu	a3,a3,2
9d009788:	240b0001 	li	t3,1
9d00978c:	0b402577 	j	9d0095dc <strtol+0x78>
9d009790:	24060010 	li	a2,16
9d009794:	00803821 	move	a3,a0
9d009798:	0b40256f 	j	9d0095bc <strtol+0x58>
9d00979c:	0000c021 	move	t8,zero
9d0097a0:	80e30001 	lb	v1,1(a3)
9d0097a4:	2408ffdf 	li	t0,-33
9d0097a8:	00684024 	and	t0,v1,t0
9d0097ac:	24020058 	li	v0,88
9d0097b0:	51020006 	beql	t0,v0,9d0097cc <strtol+0x268>
9d0097b4:	80e30002 	lb	v1,2(a3)
9d0097b8:	24e70001 	addiu	a3,a3,1
9d0097bc:	3c0d07ff 	lui	t5,0x7ff
9d0097c0:	35adffff 	ori	t5,t5,0xffff
9d0097c4:	0b402577 	j	9d0095dc <strtol+0x78>
9d0097c8:	240b0001 	li	t3,1
9d0097cc:	3c0d07ff 	lui	t5,0x7ff
9d0097d0:	35adffff 	ori	t5,t5,0xffff
9d0097d4:	24e70002 	addiu	a3,a3,2
9d0097d8:	0b402577 	j	9d0095dc <strtol+0x78>
9d0097dc:	240b0001 	li	t3,1

Disassembly of section .text.fpsubadd:

9d0097e0 <__subsf3>:
9d0097e0:	3c018000 00a12826                       ...<&(..

9d0097e8 <__addsf3>:
9d0097e8:	00044dc2 312900ff 00055dc2 316b00ff     .M....)1.]....k1
9d0097f8:	3c078000 00044200 01074025 00055200     ...<.B..%@...R..
9d009808:	01475025 252dffff 2da100fe 10200061     %PG...-%...-a. .
9d009818:	00000000                                ....

9d00981c <Blab1>:
9d00981c:	256dffff 	addiu	t5,t3,-1
9d009820:	2da100fe 	sltiu	at,t5,254
9d009824:	10200077 	beqz	at,9d009a04 <BspecB>
9d009828:	00000000 	nop

9d00982c <Blab2>:
9d00982c:	012b6023 	subu	t4,t1,t3
9d009830:	0580000d 	bltz	t4,9d009868 <i1>
9d009834:	00000000 	nop
9d009838:	29810020 	slti	at,t4,32
9d00983c:	14200003 	bnez	at,9d00984c <i2>
9d009840:	00000000 	nop
9d009844:	10000015 	b	9d00989c <e1>
9d009848:	240a0002 	li	t2,2

9d00984c <i2>:
9d00984c:	000a3025 	or	a2,zero,t2
9d009850:	018a5006 	srlv	t2,t2,t4
9d009854:	018a6804 	sllv	t5,t2,t4
9d009858:	11a60010 	beq	t5,a2,9d00989c <e1>
9d00985c:	00000000 	nop
9d009860:	1000000e 	b	9d00989c <e1>
9d009864:	354a0002 	ori	t2,t2,0x2

9d009868 <i1>:
9d009868:	000b4825 	or	t1,zero,t3
9d00986c:	000c6023 	negu	t4,t4
9d009870:	29810020 	slti	at,t4,32
9d009874:	14200003 	bnez	at,9d009884 <i4>
9d009878:	00000000 	nop
9d00987c:	10000007 	b	9d00989c <e1>
9d009880:	24080002 	li	t0,2

9d009884 <i4>:
9d009884:	00083025 	or	a2,zero,t0
9d009888:	01884006 	srlv	t0,t0,t4
9d00988c:	01886804 	sllv	t5,t0,t4
9d009890:	11a60002 	beq	t5,a2,9d00989c <e1>
9d009894:	00000000 	nop
9d009898:	35080002 	ori	t0,t0,0x2

9d00989c <e1>:
9d00989c:	00876024 	and	t4,a0,a3
9d0098a0:	01856826 	xor	t5,t4,a1
9d0098a4:	05a00010 	bltz	t5,9d0098e8 <Bsub1>
9d0098a8:	00000000 	nop
9d0098ac:	010a4021 	addu	t0,t0,t2
9d0098b0:	010a682b 	sltu	t5,t0,t2
9d0098b4:	11a00017 	beqz	t5,9d009914 <Bres>
9d0098b8:	00000000 	nop
9d0098bc:	310d0001 	andi	t5,t0,0x1
9d0098c0:	11a00002 	beqz	t5,9d0098cc <i7>
9d0098c4:	00000000 	nop
9d0098c8:	35080002 	ori	t0,t0,0x2

9d0098cc <i7>:
9d0098cc:	00084042 	srl	t0,t0,0x1
9d0098d0:	25290001 	addiu	t1,t1,1
9d0098d4:	240100ff 	li	at,255
9d0098d8:	1521000e 	bne	t1,at,9d009914 <Bres>
9d0098dc:	00000000 	nop
9d0098e0:	1000000c 	b	9d009914 <Bres>
9d0098e4:	24080000 	li	t0,0

9d0098e8 <Bsub1>:
9d0098e8:	010a682b 	sltu	t5,t0,t2
9d0098ec:	11a00004 	beqz	t5,9d009900 <i9>
9d0098f0:	010a4023 	subu	t0,t0,t2
9d0098f4:	00084023 	negu	t0,t0
9d0098f8:	10000003 	b	9d009908 <e9>
9d0098fc:	01876026 	xor	t4,t4,a3

9d009900 <i9>:
9d009900:	11000050 	beqz	t0,9d009a44 <Bzer>
9d009904:	00000000 	nop

9d009908 <e9>:
9d009908:	71063020 	clz	a2,t0
9d00990c:	01264823 	subu	t1,t1,a2
9d009910:	00c84004 	sllv	t0,t0,a2

9d009914 <Bres>:
9d009914:	1920000e 	blez	t1,9d009950 <Bund>
9d009918:	00000000 	nop

9d00991c <Blab12>:
9d00991c:	25080080 	addiu	t0,t0,128
9d009920:	2d0d0080 	sltiu	t5,t0,128
9d009924:	012d4821 	addu	t1,t1,t5
9d009928:	00086a02 	srl	t5,t0,0x8
9d00992c:	31ad0001 	andi	t5,t5,0x1
9d009930:	010d4023 	subu	t0,t0,t5
9d009934:	00084040 	sll	t0,t0,0x1
9d009938:	00084242 	srl	t0,t0,0x9
9d00993c:	00096dc0 	sll	t5,t1,0x17
9d009940:	010d4025 	or	t0,t0,t5
9d009944:	010c1025 	or	v0,t0,t4

9d009948 <B999>:
9d009948:	03e00008 	jr	ra
9d00994c:	00000000 	nop

9d009950 <Bund>:
9d009950:	24060001 	li	a2,1
9d009954:	00c93023 	subu	a2,a2,t1
9d009958:	2cc10020 	sltiu	at,a2,32
9d00995c:	10200039 	beqz	at,9d009a44 <Bzer>
9d009960:	00000000 	nop
9d009964:	3c018000 	lui	at,0x8000
9d009968:	01014025 	or	t0,t0,at
9d00996c:	240d0020 	li	t5,32
9d009970:	01a66823 	subu	t5,t5,a2
9d009974:	01a84804 	sllv	t1,t0,t5
9d009978:	11200002 	beqz	t1,9d009984 <i10>
9d00997c:	00c84006 	srlv	t0,t0,a2
9d009980:	35080001 	ori	t0,t0,0x1

9d009984 <i10>:
9d009984:	24090000 	li	t1,0
9d009988:	250d0080 	addiu	t5,t0,128
9d00998c:	05a1ffe3 	bgez	t5,9d00991c <Blab12>
9d009990:	00000000 	nop
9d009994:	1000ffe1 	b	9d00991c <Blab12>
9d009998:	24090001 	li	t1,1

9d00999c <BspecA>:
9d00999c:	1520000e 	bnez	t1,9d0099d8 <i12>
9d0099a0:	00000000 	nop
9d0099a4:	01084021 	addu	t0,t0,t0
9d0099a8:	11000005 	beqz	t0,9d0099c0 <i13>
9d0099ac:	00000000 	nop
9d0099b0:	710c6020 	clz	t4,t0
9d0099b4:	012c4823 	subu	t1,t1,t4
9d0099b8:	1000ff98 	b	9d00981c <Blab1>
9d0099bc:	01884004 	sllv	t0,t0,t4

9d0099c0 <i13>:
9d0099c0:	240100ff 	li	at,255
9d0099c4:	1161000f 	beq	t3,at,9d009a04 <BspecB>
9d0099c8:	00000000 	nop
9d0099cc:	3c018000 	lui	at,0x8000
9d0099d0:	14a10018 	bne	a1,at,9d009a34 <BretB>
9d0099d4:	00000000 	nop

9d0099d8 <i12>:
9d0099d8:	01086821 	addu	t5,t0,t0
9d0099dc:	15a0001b 	bnez	t5,9d009a4c <Bnan>
9d0099e0:	00000000 	nop
9d0099e4:	240100ff 	li	at,255
9d0099e8:	15610014 	bne	t3,at,9d009a3c <BretA>
9d0099ec:	00000000 	nop
9d0099f0:	00856826 	xor	t5,a0,a1
9d0099f4:	05a00015 	bltz	t5,9d009a4c <Bnan>
9d0099f8:	00000000 	nop
9d0099fc:	1000000d 	b	9d009a34 <BretB>
9d009a00:	00000000 	nop

9d009a04 <BspecB>:
9d009a04:	15600008 	bnez	t3,9d009a28 <i15>
9d009a08:	00000000 	nop
9d009a0c:	014a5021 	addu	t2,t2,t2
9d009a10:	1140000a 	beqz	t2,9d009a3c <BretA>
9d009a14:	00000000 	nop
9d009a18:	714c6020 	clz	t4,t2
9d009a1c:	016c5823 	subu	t3,t3,t4
9d009a20:	1000ff82 	b	9d00982c <Blab2>
9d009a24:	018a5004 	sllv	t2,t2,t4

9d009a28 <i15>:
9d009a28:	014a6821 	addu	t5,t2,t2
9d009a2c:	15a00007 	bnez	t5,9d009a4c <Bnan>
9d009a30:	00000000 	nop

9d009a34 <BretB>:
9d009a34:	1000ffc4 	b	9d009948 <B999>
9d009a38:	00051025 	or	v0,zero,a1

9d009a3c <BretA>:
9d009a3c:	1000ffc2 	b	9d009948 <B999>
9d009a40:	00041025 	or	v0,zero,a0

9d009a44 <Bzer>:
9d009a44:	1000ffc0 	b	9d009948 <B999>
9d009a48:	24020000 	li	v0,0

9d009a4c <Bnan>:
9d009a4c:	1000ffbe 	b	9d009948 <B999>
9d009a50:	3c02ffc0 	lui	v0,0xffc0
9d009a54:	00000000 	nop

Disassembly of section .text.fp32div:

9d009a58 <__divsf3>:
9d009a58:	3c0b8000 000445c2 310800ff 000555c2     ...<.E.....1.U..
9d009a68:	314a00ff 00043a00 00eb3825 00054a00     ..J1.:..%8...J..
9d009a78:	012b4825 00857026 016e5824 250effff     %H+.&p..$Xn....%
9d009a88:	2dc100fe 1020003f 00000000              ...-?. .....

9d009a94 <Dlab1>:
9d009a94:	254effff 	addiu	t6,t2,-1
9d009a98:	2dc100fe 	sltiu	at,t6,254
9d009a9c:	10200053 	beqz	at,9d009bec <DspecB>
9d009aa0:	00000000 	nop

9d009aa4 <Dlab2>:
9d009aa4:	00e9082b 	sltu	at,a3,t1
9d009aa8:	14200003 	bnez	at,9d009ab8 <i27>
9d009aac:	00000000 	nop
9d009ab0:	00073842 	srl	a3,a3,0x1
9d009ab4:	25080001 	addiu	t0,t0,1

9d009ab8 <i27>:
9d009ab8:	00096382 	srl	t4,t1,0xe
9d009abc:	018001f4 	teq	t4,zero,0x7
9d009ac0:	00ec001b 	divu	zero,a3,t4
9d009ac4:	00002012 	mflo	a0
9d009ac8:	00003010 	mfhi	a2
9d009acc:	312d3fff 	andi	t5,t1,0x3fff
9d009ad0:	01a40019 	multu	t5,a0
9d009ad4:	00002812 	mflo	a1
9d009ad8:	00063380 	sll	a2,a2,0xe
9d009adc:	00c5702b 	sltu	t6,a2,a1
9d009ae0:	11c00004 	beqz	t6,9d009af4 <i28>
9d009ae4:	00c53023 	subu	a2,a2,a1
9d009ae8:	2484ffff 	addiu	a0,a0,-1
9d009aec:	00c93021 	addu	a2,a2,t1
9d009af0:	00c9702b 	sltu	t6,a2,t1

9d009af4 <i28>:
9d009af4:	018001f4 	teq	t4,zero,0x7
9d009af8:	00cc001b 	divu	zero,a2,t4
9d009afc:	00003812 	mflo	a3
9d009b00:	00003010 	mfhi	a2
9d009b04:	01a70019 	multu	t5,a3
9d009b08:	00002812 	mflo	a1
9d009b0c:	00063380 	sll	a2,a2,0xe
9d009b10:	00c5702b 	sltu	t6,a2,a1
9d009b14:	11c00004 	beqz	t6,9d009b28 <i29>
9d009b18:	00c53023 	subu	a2,a2,a1
9d009b1c:	24e7ffff 	addiu	a3,a3,-1
9d009b20:	00c93021 	addu	a2,a2,t1
9d009b24:	00c9702b 	sltu	t6,a2,t1

9d009b28 <i29>:
9d009b28:	00047380 	sll	t6,a0,0xe
9d009b2c:	00ee3821 	addu	a3,a3,t6
9d009b30:	10c00002 	beqz	a2,9d009b3c <i30>
9d009b34:	00073900 	sll	a3,a3,0x4
9d009b38:	34e70001 	ori	a3,a3,0x1

9d009b3c <i30>:
9d009b3c:	240e007e 	li	t6,126
9d009b40:	01ca7023 	subu	t6,t6,t2
9d009b44:	010e4021 	addu	t0,t0,t6
9d009b48:	250effff 	addiu	t6,t0,-1
9d009b4c:	2dc100fe 	sltiu	at,t6,254
9d009b50:	10200034 	beqz	at,9d009c24 <Doveund>
9d009b54:	00000000 	nop

9d009b58 <Dlab8>:
9d009b58:	24e70080 	addiu	a3,a3,128
9d009b5c:	2cee0080 	sltiu	t6,a3,128
9d009b60:	010e4021 	addu	t0,t0,t6
9d009b64:	00077202 	srl	t6,a3,0x8
9d009b68:	31ce0001 	andi	t6,t6,0x1
9d009b6c:	00ee3823 	subu	a3,a3,t6
9d009b70:	00073840 	sll	a3,a3,0x1
9d009b74:	00073a42 	srl	a3,a3,0x9
9d009b78:	000875c0 	sll	t6,t0,0x17
9d009b7c:	00ee3825 	or	a3,a3,t6
9d009b80:	00eb1025 	or	v0,a3,t3

9d009b84 <D999>:
9d009b84:	03e00008 	jr	ra
9d009b88:	00000000 	nop

9d009b8c <DspecA>:
9d009b8c:	15000008 	bnez	t0,9d009bb0 <i31>
9d009b90:	00000000 	nop
9d009b94:	00e73821 	addu	a3,a3,a3
9d009b98:	10e00005 	beqz	a3,9d009bb0 <i31>
9d009b9c:	00000000 	nop
9d009ba0:	70ec6020 	clz	t4,a3
9d009ba4:	010c4023 	subu	t0,t0,t4
9d009ba8:	1000ffba 	b	9d009a94 <Dlab1>
9d009bac:	01873804 	sllv	a3,a3,t4

9d009bb0 <i31>:
9d009bb0:	15480004 	bne	t2,t0,9d009bc4 <i33>
9d009bb4:	00000000 	nop
9d009bb8:	01297021 	addu	t6,t1,t1
9d009bbc:	11c0002f 	beqz	t6,9d009c7c <Dnan>
9d009bc0:	00000000 	nop

9d009bc4 <i33>:
9d009bc4:	240100ff 	li	at,255
9d009bc8:	11410008 	beq	t2,at,9d009bec <DspecB>
9d009bcc:	00000000 	nop
9d009bd0:	11000012 	beqz	t0,9d009c1c <Dzer>
9d009bd4:	00000000 	nop
9d009bd8:	00e77021 	addu	t6,a3,a3
9d009bdc:	15c00027 	bnez	t6,9d009c7c <Dnan>
9d009be0:	00000000 	nop
9d009be4:	10000022 	b	9d009c70 <Dinf>
9d009be8:	00000000 	nop

9d009bec <DspecB>:
9d009bec:	15400008 	bnez	t2,9d009c10 <i34>
9d009bf0:	00000000 	nop
9d009bf4:	01294821 	addu	t1,t1,t1
9d009bf8:	1120001d 	beqz	t1,9d009c70 <Dinf>
9d009bfc:	00000000 	nop
9d009c00:	712c6020 	clz	t4,t1
9d009c04:	014c5023 	subu	t2,t2,t4
9d009c08:	1000ffa6 	b	9d009aa4 <Dlab2>
9d009c0c:	01894804 	sllv	t1,t1,t4

9d009c10 <i34>:
9d009c10:	01297021 	addu	t6,t1,t1
9d009c14:	15c00019 	bnez	t6,9d009c7c <Dnan>
9d009c18:	00000000 	nop

9d009c1c <Dzer>:
9d009c1c:	1000ffd9 	b	9d009b84 <D999>
9d009c20:	000b1025 	or	v0,zero,t3

9d009c24 <Doveund>:
9d009c24:	1d000012 	bgtz	t0,9d009c70 <Dinf>
9d009c28:	00000000 	nop
9d009c2c:	240c0001 	li	t4,1
9d009c30:	01886023 	subu	t4,t4,t0
9d009c34:	2d810020 	sltiu	at,t4,32
9d009c38:	1020fff8 	beqz	at,9d009c1c <Dzer>
9d009c3c:	00000000 	nop
9d009c40:	240e0020 	li	t6,32
9d009c44:	01cc7023 	subu	t6,t6,t4
9d009c48:	01c74004 	sllv	t0,a3,t6
9d009c4c:	11000002 	beqz	t0,9d009c58 <i37>
9d009c50:	01873806 	srlv	a3,a3,t4
9d009c54:	34e70002 	ori	a3,a3,0x2

9d009c58 <i37>:
9d009c58:	24080000 	li	t0,0
9d009c5c:	24ee0080 	addiu	t6,a3,128
9d009c60:	05c1ffbd 	bgez	t6,9d009b58 <Dlab8>
9d009c64:	00000000 	nop
9d009c68:	1000ffbb 	b	9d009b58 <Dlab8>
9d009c6c:	24080001 	li	t0,1

9d009c70 <Dinf>:
9d009c70:	3c017f80 	lui	at,0x7f80
9d009c74:	1000ffc3 	b	9d009b84 <D999>
9d009c78:	01611025 	or	v0,t3,at

9d009c7c <Dnan>:
9d009c7c:	1000ffc1 	b	9d009b84 <D999>
9d009c80:	3c02ffc0 	lui	v0,0xffc0
9d009c84:	00000000 	nop

Disassembly of section .text:

9d009c88 <NU32_Startup>:

// Perform startup routines:
//  Make NU32_LED1 and NU32_LED2 pins outputs (NU32_USER is by default an input)
//  Initialize the serial port - UART3 (no interrupt) 
//  Enable interrupts
void NU32_Startup() {
9d009c88:	27bdfff8 	addiu	sp,sp,-8
9d009c8c:	afbf0004 	sw	ra,4(sp)
  // disable interrupts
  __builtin_disable_interrupts();
9d009c90:	41626000 	di	v0
9d009c94:	000000c0 	ehb
  // see Chapter 2 "CPU for Devices with M4K Core" of the PIC32 reference manual
  // most of the other bits have prescribed values
  // microchip does not provide a _CP0_SET_CONFIG macro, so we directly use
  // the compiler built-in command _mtc0
  // to disable cache, use 0xa4210582 
  __builtin_mtc0(_CP0_CONFIG, _CP0_CONFIG_SELECT, 0xa4210583); 
9d009c98:	3c02a421 	lui	v0,0xa421
9d009c9c:	24420583 	addiu	v0,v0,1411
9d009ca0:	40828000 	mtc0	v0,c0_config
9d009ca4:	000000c0 	ehb
  
  // set the prefectch cache wait state to 2, as per the
  // electrical characteristics data sheet
  CHECONbits.PFMWS = 0x2;   
9d009ca8:	3c02bf88 	lui	v0,0xbf88
9d009cac:	8c434000 	lw	v1,16384(v0)
9d009cb0:	24050002 	li	a1,2
9d009cb4:	7ca31004 	ins	v1,a1,0x0,0x3
9d009cb8:	ac434000 	sw	v1,16384(v0)

  //enable prefetch for cacheable and noncacheable memory
  CHECONbits.PREFEN = 0x3; 
9d009cbc:	8c434000 	lw	v1,16384(v0)
9d009cc0:	24040003 	li	a0,3
9d009cc4:	7c832904 	ins	v1,a0,0x4,0x2
9d009cc8:	ac434000 	sw	v1,16384(v0)

  // 0 data RAM access wait states
  BMXCONbits.BMXWSDRM = 0x0;
9d009ccc:	3c02bf88 	lui	v0,0xbf88
9d009cd0:	8c432000 	lw	v1,8192(v0)
9d009cd4:	7c033184 	ins	v1,zero,0x6,0x1
9d009cd8:	ac432000 	sw	v1,8192(v0)
  
  // enable multi vector interrupts
  INTCONbits.MVEC = 0x1;
9d009cdc:	3c02bf88 	lui	v0,0xbf88
9d009ce0:	8c461000 	lw	a2,4096(v0)
9d009ce4:	24030001 	li	v1,1
9d009ce8:	7c666304 	ins	a2,v1,0xc,0x1
9d009cec:	ac461000 	sw	a2,4096(v0)

  // disable JTAG to get B10, B11, B12 and B13 back
  DDPCONbits.JTAGEN = 0;
9d009cf0:	3c02bf81 	lui	v0,0xbf81
9d009cf4:	9046f200 	lbu	a2,-3584(v0)
9d009cf8:	7c0618c4 	ins	a2,zero,0x3,0x1
9d009cfc:	a046f200 	sb	a2,-3584(v0)

  TRISFCLR = 0x0003;  // Make F0 and F1 outputs (LED1 and LED2)
9d009d00:	3c02bf88 	lui	v0,0xbf88
9d009d04:	ac446144 	sw	a0,24900(v0)
  NU32_LED1 = 1;      // LED1 is off
9d009d08:	3c02bf88 	lui	v0,0xbf88
9d009d0c:	90446160 	lbu	a0,24928(v0)
9d009d10:	7c640004 	ins	a0,v1,0x0,0x1
9d009d14:	a0446160 	sb	a0,24928(v0)
  NU32_LED2 = 0;      // LED2 is on
9d009d18:	90446160 	lbu	a0,24928(v0)
9d009d1c:	7c040844 	ins	a0,zero,0x1,0x1
9d009d20:	a0446160 	sb	a0,24928(v0)

  // turn on UART3 without an interrupt
  U3MODEbits.BRGH = 0; // set baud to NU32_DESIRED_BAUD
9d009d24:	3c02bf80 	lui	v0,0xbf80
9d009d28:	94446400 	lhu	a0,25600(v0)
9d009d2c:	7c0418c4 	ins	a0,zero,0x3,0x1
9d009d30:	a4446400 	sh	a0,25600(v0)
  U3BRG = ((NU32_SYS_FREQ / NU32_DESIRED_BAUD) / 16) - 1;
9d009d34:	24060014 	li	a2,20
9d009d38:	3c04bf80 	lui	a0,0xbf80
9d009d3c:	ac866440 	sw	a2,25664(a0)

  // 8 bit, no parity bit, and 1 stop bit (8N1 setup)
  U3MODEbits.PDSEL = 0;
9d009d40:	94446400 	lhu	a0,25600(v0)
9d009d44:	7c041044 	ins	a0,zero,0x1,0x2
9d009d48:	a4446400 	sh	a0,25600(v0)
  U3MODEbits.STSEL = 0;
9d009d4c:	94446400 	lhu	a0,25600(v0)
9d009d50:	7c040004 	ins	a0,zero,0x0,0x1
9d009d54:	a4446400 	sh	a0,25600(v0)

  // configure TX & RX pins as output & input pins
  U3STAbits.UTXEN = 1;
9d009d58:	3c04bf80 	lui	a0,0xbf80
9d009d5c:	8c866410 	lw	a2,25616(a0)
9d009d60:	7c665284 	ins	a2,v1,0xa,0x1
9d009d64:	ac866410 	sw	a2,25616(a0)
  U3STAbits.URXEN = 1;
9d009d68:	8c866410 	lw	a2,25616(a0)
9d009d6c:	7c666304 	ins	a2,v1,0xc,0x1
9d009d70:	ac866410 	sw	a2,25616(a0)
  // configure hardware flow control using RTS and CTS
  U3MODEbits.UEN = 2;
9d009d74:	94446400 	lhu	a0,25600(v0)
9d009d78:	7ca44a04 	ins	a0,a1,0x8,0x2
9d009d7c:	a4446400 	sh	a0,25600(v0)

  // enable the uart
  U3MODEbits.ON = 1;
9d009d80:	94446400 	lhu	a0,25600(v0)
9d009d84:	7c647bc4 	ins	a0,v1,0xf,0x1
9d009d88:	a4446400 	sh	a0,25600(v0)

  __builtin_enable_interrupts();
9d009d8c:	41626020 	ei	v0
}
9d009d90:	8fbf0004 	lw	ra,4(sp)
9d009d94:	03e00008 	jr	ra
9d009d98:	27bd0008 	addiu	sp,sp,8

9d009d9c <NU32_ReadUART3>:
// Read from UART3
// block other functions until you get a '\r' or '\n'
// send the pointer to your char array and the number of elements in the array
void NU32_ReadUART3(char * message, int maxLength) {
  char data = 0;
  int complete = 0, num_bytes = 0;
9d009d9c:	00003021 	move	a2,zero
  // loop until you get a '\r' or '\n'
  while (!complete) {
    if (U3STAbits.URXDA) { // if data is available
9d009da0:	3c03bf80 	lui	v1,0xbf80
      data = U3RXREG;      // read the data
9d009da4:	3c08bf80 	lui	t0,0xbf80
      if ((data == '\n') || (data == '\r')) {
9d009da8:	2407000a 	li	a3,10
9d009dac:	0b40277b 	j	9d009dec <NU32_ReadUART3+0x50>
9d009db0:	2409000d 	li	t1,13
void NU32_ReadUART3(char * message, int maxLength) {
  char data = 0;
  int complete = 0, num_bytes = 0;
  // loop until you get a '\r' or '\n'
  while (!complete) {
    if (U3STAbits.URXDA) { // if data is available
9d009db4:	8c626410 	lw	v0,25616(v1)
9d009db8:	30420001 	andi	v0,v0,0x1
9d009dbc:	1040fffd 	beqz	v0,9d009db4 <NU32_ReadUART3+0x18>
9d009dc0:	00000000 	nop
      data = U3RXREG;      // read the data
9d009dc4:	8d026430 	lw	v0,25648(t0)
9d009dc8:	7c021420 	seb	v0,v0
      if ((data == '\n') || (data == '\r')) {
9d009dcc:	5047000e 	beql	v0,a3,9d009e08 <NU32_ReadUART3+0x6c>
9d009dd0:	00862021 	addu	a0,a0,a2
9d009dd4:	1049000b 	beq	v0,t1,9d009e04 <NU32_ReadUART3+0x68>
9d009dd8:	00865021 	addu	t2,a0,a2
        complete = 1;
      } else {
        message[num_bytes] = data;
9d009ddc:	a1420000 	sb	v0,0(t2)
        ++num_bytes;
9d009de0:	24c60001 	addiu	a2,a2,1
        // roll over if the array is too small
        if (num_bytes >= maxLength) {
9d009de4:	00c5102a 	slt	v0,a2,a1
          num_bytes = 0;
9d009de8:	0002300a 	movz	a2,zero,v0
void NU32_ReadUART3(char * message, int maxLength) {
  char data = 0;
  int complete = 0, num_bytes = 0;
  // loop until you get a '\r' or '\n'
  while (!complete) {
    if (U3STAbits.URXDA) { // if data is available
9d009dec:	8c626410 	lw	v0,25616(v1)
9d009df0:	30420001 	andi	v0,v0,0x1
9d009df4:	1040ffef 	beqz	v0,9d009db4 <NU32_ReadUART3+0x18>
9d009df8:	00000000 	nop
9d009dfc:	0b402771 	j	9d009dc4 <NU32_ReadUART3+0x28>
9d009e00:	00000000 	nop
        }
      }
    }
  }
  // end the string
  message[num_bytes] = '\0';
9d009e04:	00862021 	addu	a0,a0,a2
9d009e08:	03e00008 	jr	ra
9d009e0c:	a0800000 	sb	zero,0(a0)

9d009e10 <NU32_WriteUART3>:
}

// Write a character array using UART3
void NU32_WriteUART3(const char * string) {
  while (*string != '\0') {
9d009e10:	80850000 	lb	a1,0(a0)
9d009e14:	10a0000b 	beqz	a1,9d009e44 <NU32_WriteUART3+0x34>
9d009e18:	3c03bf80 	lui	v1,0xbf80
    while (U3STAbits.UTXBF) {
      ; // wait until tx buffer isn't full
    }
    U3TXREG = *string;
9d009e1c:	3c06bf80 	lui	a2,0xbf80
}

// Write a character array using UART3
void NU32_WriteUART3(const char * string) {
  while (*string != '\0') {
    while (U3STAbits.UTXBF) {
9d009e20:	8c626410 	lw	v0,25616(v1)
9d009e24:	30420200 	andi	v0,v0,0x200
9d009e28:	1440fffd 	bnez	v0,9d009e20 <NU32_WriteUART3+0x10>
9d009e2c:	00000000 	nop
      ; // wait until tx buffer isn't full
    }
    U3TXREG = *string;
9d009e30:	acc56420 	sw	a1,25632(a2)
    ++string;
9d009e34:	24840001 	addiu	a0,a0,1
  message[num_bytes] = '\0';
}

// Write a character array using UART3
void NU32_WriteUART3(const char * string) {
  while (*string != '\0') {
9d009e38:	80850000 	lb	a1,0(a0)
9d009e3c:	14a0fff8 	bnez	a1,9d009e20 <NU32_WriteUART3+0x10>
9d009e40:	00000000 	nop
9d009e44:	03e00008 	jr	ra
9d009e48:	00000000 	nop

Disassembly of section .text.fp32mul:

9d009e4c <__mulsf3>:
9d009e4c:	00043dc2 30e700ff 00054dc2 312900ff     .=.....0.M....)1
9d009e5c:	3c0a8000 00043200 00ca3025 00054200     ...<.2..%0...B..
9d009e6c:	010a4025 00856026 014c5024 24ecffff     %@..&`..$PL....$
9d009e7c:	2d8100fe 10200021 00000000              ...-!. .....

9d009e88 <Clab1>:
9d009e88:	252cffff 	addiu	t4,t1,-1
9d009e8c:	2d8100fe 	sltiu	at,t4,254
9d009e90:	10200036 	beqz	at,9d009f6c <CspecB>
9d009e94:	00000000 	nop

9d009e98 <Clab2>:
9d009e98:	00c80019 	multu	a2,t0
9d009e9c:	00005812 	mflo	t3
9d009ea0:	11600002 	beqz	t3,9d009eac <i17>
9d009ea4:	00003010 	mfhi	a2
9d009ea8:	34c60001 	ori	a2,a2,0x1

9d009eac <i17>:
9d009eac:	04c00003 	bltz	a2,9d009ebc <i18>
9d009eb0:	00000000 	nop
9d009eb4:	00063040 	sll	a2,a2,0x1
9d009eb8:	24e7ffff 	addiu	a3,a3,-1

9d009ebc <i18>:
9d009ebc:	252cff82 	addiu	t4,t1,-126
9d009ec0:	00ec3821 	addu	a3,a3,t4
9d009ec4:	24ecffff 	addiu	t4,a3,-1
9d009ec8:	2d8100fe 	sltiu	at,t4,254
9d009ecc:	1020003a 	beqz	at,9d009fb8 <Coveund>
9d009ed0:	00000000 	nop

9d009ed4 <Clab8>:
9d009ed4:	24c60080 	addiu	a2,a2,128
9d009ed8:	2ccc0080 	sltiu	t4,a2,128
9d009edc:	00ec3821 	addu	a3,a3,t4
9d009ee0:	00066202 	srl	t4,a2,0x8
9d009ee4:	318c0001 	andi	t4,t4,0x1
9d009ee8:	00cc3023 	subu	a2,a2,t4
9d009eec:	00063040 	sll	a2,a2,0x1
9d009ef0:	00063242 	srl	a2,a2,0x9
9d009ef4:	000765c0 	sll	t4,a3,0x17
9d009ef8:	00cc3025 	or	a2,a2,t4
9d009efc:	00ca1025 	or	v0,a2,t2

9d009f00 <C999>:
9d009f00:	03e00008 	jr	ra
9d009f04:	00000000 	nop

9d009f08 <CspecA>:
9d009f08:	14e0000d 	bnez	a3,9d009f40 <i19>
9d009f0c:	00000000 	nop
9d009f10:	00c63021 	addu	a2,a2,a2
9d009f14:	10c00005 	beqz	a2,9d009f2c <i20>
9d009f18:	00000000 	nop
9d009f1c:	70cb5820 	clz	t3,a2
9d009f20:	00eb3823 	subu	a3,a3,t3
9d009f24:	1000ffd8 	b	9d009e88 <Clab1>
9d009f28:	01663004 	sllv	a2,a2,t3

9d009f2c <i20>:
9d009f2c:	240100ff 	li	at,255
9d009f30:	1121001f 	beq	t1,at,9d009fb0 <Cnan>
9d009f34:	00000000 	nop
9d009f38:	10000015 	b	9d009f90 <Czer>
9d009f3c:	00000000 	nop

9d009f40 <i19>:
9d009f40:	00c66021 	addu	t4,a2,a2
9d009f44:	1580001a 	bnez	t4,9d009fb0 <Cnan>
9d009f48:	00000000 	nop
9d009f4c:	15200004 	bnez	t1,9d009f60 <i21>
9d009f50:	00000000 	nop
9d009f54:	01086021 	addu	t4,t0,t0
9d009f58:	11800015 	beqz	t4,9d009fb0 <Cnan>
9d009f5c:	00000000 	nop

9d009f60 <i21>:
9d009f60:	240100ff 	li	at,255
9d009f64:	1521000f 	bne	t1,at,9d009fa4 <Cinf>
9d009f68:	00000000 	nop

9d009f6c <CspecB>:
9d009f6c:	1520000a 	bnez	t1,9d009f98 <i22>
9d009f70:	00000000 	nop
9d009f74:	01084021 	addu	t0,t0,t0
9d009f78:	11000005 	beqz	t0,9d009f90 <Czer>
9d009f7c:	00000000 	nop
9d009f80:	710b5820 	clz	t3,t0
9d009f84:	012b4823 	subu	t1,t1,t3
9d009f88:	1000ffc3 	b	9d009e98 <Clab2>
9d009f8c:	01684004 	sllv	t0,t0,t3

9d009f90 <Czer>:
9d009f90:	1000ffdb 	b	9d009f00 <C999>
9d009f94:	000a1025 	or	v0,zero,t2

9d009f98 <i22>:
9d009f98:	01086021 	addu	t4,t0,t0
9d009f9c:	15800004 	bnez	t4,9d009fb0 <Cnan>
9d009fa0:	00000000 	nop

9d009fa4 <Cinf>:
9d009fa4:	3c017f80 	lui	at,0x7f80
9d009fa8:	1000ffd5 	b	9d009f00 <C999>
9d009fac:	01411025 	or	v0,t2,at

9d009fb0 <Cnan>:
9d009fb0:	1000ffd3 	b	9d009f00 <C999>
9d009fb4:	3c02ffc0 	lui	v0,0xffc0

9d009fb8 <Coveund>:
9d009fb8:	1ce0fffa 	bgtz	a3,9d009fa4 <Cinf>
9d009fbc:	00000000 	nop
9d009fc0:	240b0001 	li	t3,1
9d009fc4:	01675823 	subu	t3,t3,a3
9d009fc8:	2d610020 	sltiu	at,t3,32
9d009fcc:	1020fff0 	beqz	at,9d009f90 <Czer>
9d009fd0:	00000000 	nop
9d009fd4:	240c0020 	li	t4,32
9d009fd8:	018b6023 	subu	t4,t4,t3
9d009fdc:	01863804 	sllv	a3,a2,t4
9d009fe0:	10e00002 	beqz	a3,9d009fec <i25>
9d009fe4:	01663006 	srlv	a2,a2,t3
9d009fe8:	34c60002 	ori	a2,a2,0x2

9d009fec <i25>:
9d009fec:	24070000 	li	a3,0
9d009ff0:	24cc0080 	addiu	t4,a2,128
9d009ff4:	0581ffb7 	bgez	t4,9d009ed4 <Clab8>
9d009ff8:	00000000 	nop
9d009ffc:	1000ffb5 	b	9d009ed4 <Clab8>
9d00a000:	24070001 	li	a3,1
9d00a004:	00000000 	nop

Disassembly of section .text.__ldexp:

9d00a008 <__ldexp>:
9d00a008:	27bdffe0 	addiu	sp,sp,-32
9d00a00c:	afbf001c 	sw	ra,28(sp)
9d00a010:	afb20018 	sw	s2,24(sp)
9d00a014:	afb10014 	sw	s1,20(sp)
9d00a018:	afb00010 	sw	s0,16(sp)
9d00a01c:	7ca75500 	ext	a3,a1,0x14,0xb
9d00a020:	24e2ffff 	addiu	v0,a3,-1
9d00a024:	7ca89800 	ext	t0,a1,0x0,0x14
9d00a028:	2c4907fe 	sltiu	t1,v0,2046
9d00a02c:	00c08821 	move	s1,a2
9d00a030:	000587c2 	srl	s0,a1,0x1f
9d00a034:	00801021 	move	v0,a0
9d00a038:	11200041 	beqz	t1,9d00a140 <__ldexp+0x138>
9d00a03c:	01001821 	move	v1,t0
9d00a040:	24e7fc01 	addiu	a3,a3,-1023
9d00a044:	3c040010 	lui	a0,0x10
9d00a048:	01041825 	or	v1,t0,a0
9d00a04c:	00f13821 	addu	a3,a3,s1
9d00a050:	00022f42 	srl	a1,v0,0x1d
9d00a054:	000318c0 	sll	v1,v1,0x3
9d00a058:	24e403ff 	addiu	a0,a3,1023
9d00a05c:	00a31825 	or	v1,a1,v1
9d00a060:	18800025 	blez	a0,9d00a0f8 <__ldexp+0xf0>
9d00a064:	000210c0 	sll	v0,v0,0x3
9d00a068:	30450007 	andi	a1,v0,0x7
9d00a06c:	14a00015 	bnez	a1,9d00a0c4 <__ldexp+0xbc>
9d00a070:	7c4500c0 	ext	a1,v0,0x3,0x1
9d00a074:	00033740 	sll	a2,v1,0x1d
9d00a078:	000210c2 	srl	v0,v0,0x3
9d00a07c:	288507ff 	slti	a1,a0,2047
9d00a080:	00c21025 	or	v0,a2,v0
9d00a084:	10a00036 	beqz	a1,9d00a160 <__ldexp+0x158>
9d00a088:	000318c2 	srl	v1,v1,0x3
9d00a08c:	7c650500 	ext	a1,v1,0x14,0x1
9d00a090:	50a00002 	beqzl	a1,9d00a09c <__ldexp+0x94>
9d00a094:	00002021 	move	a0,zero
9d00a098:	7c639800 	ext	v1,v1,0x0,0x14
9d00a09c:	001082c0 	sll	s0,s0,0xb
9d00a0a0:	00902025 	or	a0,a0,s0
9d00a0a4:	00042500 	sll	a0,a0,0x14
9d00a0a8:	00831825 	or	v1,a0,v1
9d00a0ac:	8fbf001c 	lw	ra,28(sp)
9d00a0b0:	8fb20018 	lw	s2,24(sp)
9d00a0b4:	8fb10014 	lw	s1,20(sp)
9d00a0b8:	8fb00010 	lw	s0,16(sp)
9d00a0bc:	03e00008 	jr	ra
9d00a0c0:	27bd0020 	addiu	sp,sp,32
9d00a0c4:	24a50003 	addiu	a1,a1,3
9d00a0c8:	00452821 	addu	a1,v0,a1
9d00a0cc:	00a2102b 	sltu	v0,a1,v0
9d00a0d0:	00431821 	addu	v1,v0,v1
9d00a0d4:	7c660600 	ext	a2,v1,0x18,0x1
9d00a0d8:	10c0ffe6 	beqz	a2,9d00a074 <__ldexp+0x6c>
9d00a0dc:	00a01021 	move	v0,a1
9d00a0e0:	00032fc0 	sll	a1,v1,0x1f
9d00a0e4:	00021042 	srl	v0,v0,0x1
9d00a0e8:	00a21025 	or	v0,a1,v0
9d00a0ec:	00031842 	srl	v1,v1,0x1
9d00a0f0:	0b40281d 	j	9d00a074 <__ldexp+0x6c>
9d00a0f4:	24840001 	addiu	a0,a0,1
9d00a0f8:	2406fc02 	li	a2,-1022
9d00a0fc:	00c73023 	subu	a2,a2,a3
9d00a100:	28c40038 	slti	a0,a2,56
9d00a104:	5080001b 	beqzl	a0,9d00a174 <__ldexp+0x16c>
9d00a108:	00001021 	move	v0,zero
9d00a10c:	00062023 	negu	a0,a2
9d00a110:	30850020 	andi	a1,a0,0x20
9d00a114:	14a00003 	bnez	a1,9d00a124 <__ldexp+0x11c>
9d00a118:	00828804 	sllv	s1,v0,a0
9d00a11c:	00832004 	sllv	a0,v1,a0
9d00a120:	00828825 	or	s1,a0,v0
9d00a124:	00402021 	move	a0,v0
9d00a128:	0f40305b 	jal	9d00c16c <__lshrdi3>
9d00a12c:	00602821 	move	a1,v1
9d00a130:	0011882b 	sltu	s1,zero,s1
9d00a134:	02221025 	or	v0,s1,v0
9d00a138:	0b40281a 	j	9d00a068 <__ldexp+0x60>
9d00a13c:	24040001 	li	a0,1
9d00a140:	54e00005 	bnezl	a3,9d00a158 <__ldexp+0x150>
9d00a144:	00801021 	move	v0,a0
9d00a148:	01043025 	or	a2,t0,a0
9d00a14c:	14c0000c 	bnez	a2,9d00a180 <__ldexp+0x178>
9d00a150:	00000000 	nop
9d00a154:	00801021 	move	v0,a0
9d00a158:	0b40282b 	j	9d00a0ac <__ldexp+0xa4>
9d00a15c:	00a01821 	move	v1,a1
9d00a160:	00101ac0 	sll	v1,s0,0xb
9d00a164:	346307ff 	ori	v1,v1,0x7ff
9d00a168:	00031d00 	sll	v1,v1,0x14
9d00a16c:	0b40282b 	j	9d00a0ac <__ldexp+0xa4>
9d00a170:	00001021 	move	v0,zero
9d00a174:	00001821 	move	v1,zero
9d00a178:	0b402827 	j	9d00a09c <__ldexp+0x94>
9d00a17c:	00002021 	move	a0,zero
9d00a180:	15000003 	bnez	t0,9d00a190 <__ldexp+0x188>
9d00a184:	71129020 	clz	s2,t0
9d00a188:	70929020 	clz	s2,a0
9d00a18c:	26520020 	addiu	s2,s2,32
9d00a190:	2646fff5 	addiu	a2,s2,-11
9d00a194:	10c0ffad 	beqz	a2,9d00a04c <__ldexp+0x44>
9d00a198:	2407fc02 	li	a3,-1022
9d00a19c:	0f40306b 	jal	9d00c1ac <__ashldi3>
9d00a1a0:	01002821 	move	a1,t0
9d00a1a4:	2407fc0d 	li	a3,-1011
9d00a1a8:	0b402813 	j	9d00a04c <__ldexp+0x44>
9d00a1ac:	00f23823 	subu	a3,a3,s2

Disassembly of section .text._sbrk_init:

9d00a1b0 <_sbrk_init>:
9d00a1b0:	27bdffd8 	addiu	sp,sp,-40
9d00a1b4:	afbf0024 	sw	ra,36(sp)
9d00a1b8:	afb40020 	sw	s4,32(sp)
9d00a1bc:	afb3001c 	sw	s3,28(sp)
9d00a1c0:	afb20018 	sw	s2,24(sp)
9d00a1c4:	afb10014 	sw	s1,20(sp)
9d00a1c8:	afb00010 	sw	s0,16(sp)
9d00a1cc:	3c10a000 	lui	s0,0xa000
9d00a1d0:	8e0247b4 	lw	v0,18356(s0)
9d00a1d4:	10400009 	beqz	v0,9d00a1fc <_sbrk_init+0x4c>
9d00a1d8:	3c12a000 	lui	s2,0xa000
9d00a1dc:	8fbf0024 	lw	ra,36(sp)
9d00a1e0:	8fb40020 	lw	s4,32(sp)
9d00a1e4:	8fb3001c 	lw	s3,28(sp)
9d00a1e8:	8fb20018 	lw	s2,24(sp)
9d00a1ec:	8fb10014 	lw	s1,20(sp)
9d00a1f0:	8fb00010 	lw	s0,16(sp)
9d00a1f4:	03e00008 	jr	ra
9d00a1f8:	27bd0028 	addiu	sp,sp,40
9d00a1fc:	8e4347bc 	lw	v1,18364(s2)
9d00a200:	5060003d 	beqzl	v1,9d00a2f8 <_sbrk_init+0x148>
9d00a204:	3c03a000 	lui	v1,0xa000
9d00a208:	3c13a000 	lui	s3,0xa000
9d00a20c:	8e6247b8 	lw	v0,18360(s3)
9d00a210:	5040003b 	beqzl	v0,9d00a300 <_sbrk_init+0x150>
9d00a214:	3c040000 	lui	a0,0x0
9d00a218:	00038f82 	srl	s1,v1,0x1e
9d00a21c:	0002a782 	srl	s4,v0,0x1e
9d00a220:	7c65e000 	ext	a1,v1,0x0,0x1d
9d00a224:	3a310002 	xori	s1,s1,0x2
9d00a228:	7c44e000 	ext	a0,v0,0x0,0x1d
9d00a22c:	3a940002 	xori	s4,s4,0x2
9d00a230:	00b1180a 	movz	v1,a1,s1
9d00a234:	00608821 	move	s1,v1
9d00a238:	0094100a 	movz	v0,a0,s4
9d00a23c:	0f4030c5 	jal	9d00c314 <_stub_sbd_memlayout>
9d00a240:	0040a021 	move	s4,v0
9d00a244:	8c430000 	lw	v1,0(v0)
9d00a248:	8c440004 	lw	a0,4(v0)
9d00a24c:	0223102b 	sltu	v0,s1,v1
9d00a250:	10400024 	beqz	v0,9d00a2e4 <_sbrk_init+0x134>
9d00a254:	00642021 	addu	a0,v1,a0
9d00a258:	3c02a000 	lui	v0,0xa000
9d00a25c:	2442005c 	addiu	v0,v0,92
9d00a260:	7c42e000 	ext	v0,v0,0x0,0x1d
9d00a264:	0062102b 	sltu	v0,v1,v0
9d00a268:	1440ffdd 	bnez	v0,9d00a1e0 <_sbrk_init+0x30>
9d00a26c:	8fbf0024 	lw	ra,36(sp)
9d00a270:	0283102b 	sltu	v0,s4,v1
9d00a274:	14400005 	bnez	v0,9d00a28c <_sbrk_init+0xdc>
9d00a278:	0064102b 	sltu	v0,v1,a0
9d00a27c:	0284102b 	sltu	v0,s4,a0
9d00a280:	54400004 	bnezl	v0,9d00a294 <_sbrk_init+0xe4>
9d00a284:	02802021 	move	a0,s4
9d00a288:	0064102b 	sltu	v0,v1,a0
9d00a28c:	1040ffd4 	beqz	v0,9d00a1e0 <_sbrk_init+0x30>
9d00a290:	8fbf0024 	lw	ra,36(sp)
9d00a294:	3c02a000 	lui	v0,0xa000
9d00a298:	2442005c 	addiu	v0,v0,92
9d00a29c:	00021742 	srl	v0,v0,0x1d
9d00a2a0:	24050005 	li	a1,5
9d00a2a4:	1445001b 	bne	v0,a1,9d00a314 <_sbrk_init+0x164>
9d00a2a8:	24050004 	li	a1,4
9d00a2ac:	3c02a000 	lui	v0,0xa000
9d00a2b0:	00621825 	or	v1,v1,v0
9d00a2b4:	00822025 	or	a0,a0,v0
9d00a2b8:	ae4347bc 	sw	v1,18364(s2)
9d00a2bc:	ae6447b8 	sw	a0,18360(s3)
9d00a2c0:	ae0347b4 	sw	v1,18356(s0)
9d00a2c4:	8fbf0024 	lw	ra,36(sp)
9d00a2c8:	8fb40020 	lw	s4,32(sp)
9d00a2cc:	8fb3001c 	lw	s3,28(sp)
9d00a2d0:	8fb20018 	lw	s2,24(sp)
9d00a2d4:	8fb10014 	lw	s1,20(sp)
9d00a2d8:	8fb00010 	lw	s0,16(sp)
9d00a2dc:	03e00008 	jr	ra
9d00a2e0:	27bd0028 	addiu	sp,sp,40
9d00a2e4:	0224102b 	sltu	v0,s1,a0
9d00a2e8:	1040ffdc 	beqz	v0,9d00a25c <_sbrk_init+0xac>
9d00a2ec:	3c02a000 	lui	v0,0xa000
9d00a2f0:	0b40289c 	j	9d00a270 <_sbrk_init+0xc0>
9d00a2f4:	02201821 	move	v1,s1
9d00a2f8:	0b402882 	j	9d00a208 <_sbrk_init+0x58>
9d00a2fc:	246347f0 	addiu	v1,v1,18416
9d00a300:	24840000 	addiu	a0,a0,0
9d00a304:	3c02a000 	lui	v0,0xa000
9d00a308:	244247f0 	addiu	v0,v0,18416
9d00a30c:	0b402886 	j	9d00a218 <_sbrk_init+0x68>
9d00a310:	00441021 	addu	v0,v0,a0
9d00a314:	14450007 	bne	v0,a1,9d00a334 <_sbrk_init+0x184>
9d00a318:	3c028000 	lui	v0,0x8000
9d00a31c:	00621825 	or	v1,v1,v0
9d00a320:	00821025 	or	v0,a0,v0
9d00a324:	ae4347bc 	sw	v1,18364(s2)
9d00a328:	ae6247b8 	sw	v0,18360(s3)
9d00a32c:	0b4028b1 	j	9d00a2c4 <_sbrk_init+0x114>
9d00a330:	ae0347b4 	sw	v1,18356(s0)
9d00a334:	ae4447bc 	sw	a0,18364(s2)
9d00a338:	00801821 	move	v1,a0
9d00a33c:	0b4028b1 	j	9d00a2c4 <_sbrk_init+0x114>
9d00a340:	ae0347b4 	sw	v1,18356(s0)

Disassembly of section .text:

9d00a344 <encoder_ticks-0x48>:
#include "encoder.h"
#include <xc.h>

static int encoder_command(int read) { // send a command to the encoder chip
                                       // 0 = reset count to 32,768, 1 = return the count
  SPI4BUF = read;                      // send the command
9d00a344:	3c02bf80 	lui	v0,0xbf80
9d00a348:	ac445c20 	sw	a0,23584(v0)
  while (!SPI4STATbits.SPIRBF) { ; }   // wait for the response
9d00a34c:	3c03bf80 	lui	v1,0xbf80
9d00a350:	8c625c10 	lw	v0,23568(v1)
9d00a354:	30420001 	andi	v0,v0,0x1
9d00a358:	1040fffd 	beqz	v0,9d00a350 <.LFE2+0xc>
9d00a35c:	3c02bf80 	lui	v0,0xbf80
  SPI4BUF;                             // garbage was transferred, ignore it
9d00a360:	8c435c20 	lw	v1,23584(v0)
  SPI4BUF = 5;                         // write garbage, but the read will have the data
9d00a364:	24030005 	li	v1,5
9d00a368:	ac435c20 	sw	v1,23584(v0)
  while (!SPI4STATbits.SPIRBF) { ; }
9d00a36c:	3c03bf80 	lui	v1,0xbf80
9d00a370:	8c625c10 	lw	v0,23568(v1)
9d00a374:	30420001 	andi	v0,v0,0x1
9d00a378:	1040fffd 	beqz	v0,9d00a370 <.LFE2+0x2c>
9d00a37c:	3c02bf80 	lui	v0,0xbf80
  return SPI4BUF;
9d00a380:	8c425c20 	lw	v0,23584(v0)
}
9d00a384:	03e00008 	jr	ra
9d00a388:	00000000 	nop

9d00a38c <encoder_ticks>:

// change counts to ticks
int encoder_ticks(void) {
9d00a38c:	27bdffe8 	addiu	sp,sp,-24
9d00a390:	afbf0014 	sw	ra,20(sp)
  encoder_command(1); // call it twice!
9d00a394:	0f4028d1 	jal	9d00a344 <.LFE2>
9d00a398:	24040001 	li	a0,1
  return encoder_command(1);
9d00a39c:	0f4028d1 	jal	9d00a344 <.LFE2>
9d00a3a0:	24040001 	li	a0,1
}
9d00a3a4:	8fbf0014 	lw	ra,20(sp)
9d00a3a8:	03e00008 	jr	ra
9d00a3ac:	27bd0018 	addiu	sp,sp,24

9d00a3b0 <encoder_init>:

void encoder_init(void) {
  // SPI initialization for reading from the decoder chip
  SPI4CON = 0;              // stop and reset SPI4
9d00a3b0:	3c02bf80 	lui	v0,0xbf80
9d00a3b4:	ac405c00 	sw	zero,23552(v0)
  SPI4BUF;                  // read to clear the rx receive buffer
9d00a3b8:	3c02bf80 	lui	v0,0xbf80
9d00a3bc:	8c425c20 	lw	v0,23584(v0)
  SPI4BRG = 0x4;            // bit rate to 8 MHz, SPI4BRG = 80000000/(2*desired)-1
9d00a3c0:	24030004 	li	v1,4
9d00a3c4:	3c02bf80 	lui	v0,0xbf80
9d00a3c8:	ac435c30 	sw	v1,23600(v0)
  SPI4STATbits.SPIROV = 0;  // clear the overflow
9d00a3cc:	3c02bf80 	lui	v0,0xbf80
9d00a3d0:	8c435c10 	lw	v1,23568(v0)
9d00a3d4:	7c033184 	ins	v1,zero,0x6,0x1
9d00a3d8:	ac435c10 	sw	v1,23568(v0)
  SPI4CONbits.MSTEN = 1;    // master mode
9d00a3dc:	3c02bf80 	lui	v0,0xbf80
9d00a3e0:	8c445c00 	lw	a0,23552(v0)
9d00a3e4:	24030001 	li	v1,1
9d00a3e8:	7c642944 	ins	a0,v1,0x5,0x1
9d00a3ec:	ac445c00 	sw	a0,23552(v0)
  SPI4CONbits.MSSEN = 1;    // slave select enable
9d00a3f0:	8c445c00 	lw	a0,23552(v0)
9d00a3f4:	7c64e704 	ins	a0,v1,0x1c,0x1
9d00a3f8:	ac445c00 	sw	a0,23552(v0)
  SPI4CONbits.MODE16 = 1;   // 16 bit mode
9d00a3fc:	8c445c00 	lw	a0,23552(v0)
9d00a400:	7c645284 	ins	a0,v1,0xa,0x1
9d00a404:	ac445c00 	sw	a0,23552(v0)
  SPI4CONbits.MODE32 = 0;
9d00a408:	8c445c00 	lw	a0,23552(v0)
9d00a40c:	7c045ac4 	ins	a0,zero,0xb,0x1
9d00a410:	ac445c00 	sw	a0,23552(v0)
  SPI4CONbits.SMP = 1;      // sample at the end of the clock
9d00a414:	8c445c00 	lw	a0,23552(v0)
9d00a418:	7c644a44 	ins	a0,v1,0x9,0x1
9d00a41c:	ac445c00 	sw	a0,23552(v0)
  SPI4CONbits.ON = 1;       // turn SPI on
9d00a420:	8c445c00 	lw	a0,23552(v0)
9d00a424:	7c647bc4 	ins	a0,v1,0xf,0x1
9d00a428:	ac445c00 	sw	a0,23552(v0)
9d00a42c:	03e00008 	jr	ra
9d00a430:	00000000 	nop

9d00a434 <encoder_reset>:
}

void encoder_reset() {
9d00a434:	27bdffe8 	addiu	sp,sp,-24
9d00a438:	afbf0014 	sw	ra,20(sp)
  // reset encoder to 32,768
  encoder_command(0);
9d00a43c:	0f4028d1 	jal	9d00a344 <.LFE2>
9d00a440:	00002021 	move	a0,zero
}
9d00a444:	8fbf0014 	lw	ra,20(sp)
9d00a448:	03e00008 	jr	ra
9d00a44c:	27bd0018 	addiu	sp,sp,24

9d00a450 <encoder_angle>:

int encoder_angle() {
9d00a450:	27bdffe8 	addiu	sp,sp,-24
9d00a454:	afbf0014 	sw	ra,20(sp)
  // return encoder position in 1/10th degrees (degrees * 10)
  return 3600 * (encoder_ticks() - 32768) / (448 * 4);
9d00a458:	0f4028e3 	jal	9d00a38c <encoder_ticks>
9d00a45c:	00000000 	nop
9d00a460:	24428000 	addiu	v0,v0,-32768
9d00a464:	00022100 	sll	a0,v0,0x4
9d00a468:	00021a00 	sll	v1,v0,0x8
9d00a46c:	00641823 	subu	v1,v1,a0
9d00a470:	00031100 	sll	v0,v1,0x4
9d00a474:	00431823 	subu	v1,v0,v1
9d00a478:	3c029249 	lui	v0,0x9249
9d00a47c:	24422493 	addiu	v0,v0,9363
9d00a480:	00620018 	mult	v1,v0
9d00a484:	00001010 	mfhi	v0
9d00a488:	00431021 	addu	v0,v0,v1
9d00a48c:	00021283 	sra	v0,v0,0xa
9d00a490:	00031fc3 	sra	v1,v1,0x1f
}
9d00a494:	00431023 	subu	v0,v0,v1
9d00a498:	8fbf0014 	lw	ra,20(sp)
9d00a49c:	03e00008 	jr	ra
9d00a4a0:	27bd0018 	addiu	sp,sp,24

9d00a4a4 <ADC_init>:
#include "isense.h"

#define SAMPLE_TIME 10  // 10 core timer ticks = 250 ns

void ADC_init() {
  AD1PCFGbits.PCFG0 = 0;  // Configure B0 as input
9d00a4a4:	3c02bf81 	lui	v0,0xbf81
9d00a4a8:	94439060 	lhu	v1,-28576(v0)
9d00a4ac:	7c030004 	ins	v1,zero,0x0,0x1
9d00a4b0:	a4439060 	sh	v1,-28576(v0)
  AD1CON3bits.ADCS = 2;
9d00a4b4:	24030002 	li	v1,2
9d00a4b8:	3c02bf81 	lui	v0,0xbf81
9d00a4bc:	a0439020 	sb	v1,-28640(v0)
  AD1CON1bits.ADON = 1;   // turn on ADC
9d00a4c0:	3c02bf81 	lui	v0,0xbf81
9d00a4c4:	94439000 	lhu	v1,-28672(v0)
9d00a4c8:	24040001 	li	a0,1
9d00a4cc:	7c837bc4 	ins	v1,a0,0xf,0x1
9d00a4d0:	a4439000 	sh	v1,-28672(v0)
9d00a4d4:	03e00008 	jr	ra
9d00a4d8:	00000000 	nop

9d00a4dc <get_ADC_counts_helper>:
    avg = avg + get_ADC_counts_helper();
  }
  return avg / 5;
}

unsigned int get_ADC_counts_helper() {
9d00a4dc:	27bdfff8 	addiu	sp,sp,-8
9d00a4e0:	afbf0004 	sw	ra,4(sp)
  // return the ADC reading at B0 in counts
  unsigned int elapsed = 0, finish_time = 0;
  AD1CHSbits.CH0SA = 0;   // sample B0
9d00a4e4:	3c02bf81 	lui	v0,0xbf81
9d00a4e8:	8c439040 	lw	v1,-28608(v0)
9d00a4ec:	7c039c04 	ins	v1,zero,0x10,0x4
9d00a4f0:	ac439040 	sw	v1,-28608(v0)
  AD1CON1bits.SAMP = 1;
9d00a4f4:	3c02bf81 	lui	v0,0xbf81
9d00a4f8:	94439000 	lhu	v1,-28672(v0)
9d00a4fc:	24040001 	li	a0,1
9d00a500:	7c830844 	ins	v1,a0,0x1,0x1
9d00a504:	a4439000 	sh	v1,-28672(v0)
  elapsed = _CP0_GET_COUNT();
9d00a508:	40034800 	mfc0	v1,c0_count
  finish_time = elapsed + SAMPLE_TIME;
9d00a50c:	2463000a 	addiu	v1,v1,10

  while (_CP0_GET_COUNT() < finish_time) {
9d00a510:	40024800 	mfc0	v0,c0_count
9d00a514:	0043102b 	sltu	v0,v0,v1
9d00a518:	1440fffd 	bnez	v0,9d00a510 <get_ADC_counts_helper+0x34>
9d00a51c:	3c02bf81 	lui	v0,0xbf81
    ; // sample at least 250 ns
  }
  AD1CON1bits.SAMP = 0;
9d00a520:	94439000 	lhu	v1,-28672(v0)
9d00a524:	7c030844 	ins	v1,zero,0x1,0x1
9d00a528:	a4439000 	sh	v1,-28672(v0)

  while (!AD1CON1bits.DONE) {
9d00a52c:	00401821 	move	v1,v0
9d00a530:	8c629000 	lw	v0,-28672(v1)
9d00a534:	30420001 	andi	v0,v0,0x1
9d00a538:	1040fffd 	beqz	v0,9d00a530 <get_ADC_counts_helper+0x54>
9d00a53c:	3c02bf81 	lui	v0,0xbf81
    ; // wait for the conversion process to finish
  }
  return ADC1BUF0;
9d00a540:	8c429070 	lw	v0,-28560(v0)
}
9d00a544:	8fbf0004 	lw	ra,4(sp)
9d00a548:	03e00008 	jr	ra
9d00a54c:	27bd0008 	addiu	sp,sp,8

9d00a550 <get_ADC_counts>:
  AD1PCFGbits.PCFG0 = 0;  // Configure B0 as input
  AD1CON3bits.ADCS = 2;
  AD1CON1bits.ADON = 1;   // turn on ADC
}

unsigned int get_ADC_counts() {
9d00a550:	27bdffe0 	addiu	sp,sp,-32
9d00a554:	afbf001c 	sw	ra,28(sp)
9d00a558:	afb10018 	sw	s1,24(sp)
9d00a55c:	afb00014 	sw	s0,20(sp)
9d00a560:	24100005 	li	s0,5
  int i, avg = 0;
9d00a564:	00008821 	move	s1,zero
  for (i = 0; i < 5; i++) {
    avg = avg + get_ADC_counts_helper();
9d00a568:	0f402937 	jal	9d00a4dc <get_ADC_counts_helper>
9d00a56c:	2610ffff 	addiu	s0,s0,-1
  AD1CON1bits.ADON = 1;   // turn on ADC
}

unsigned int get_ADC_counts() {
  int i, avg = 0;
  for (i = 0; i < 5; i++) {
9d00a570:	1600fffd 	bnez	s0,9d00a568 <get_ADC_counts+0x18>
9d00a574:	00518821 	addu	s1,v0,s1
    avg = avg + get_ADC_counts_helper();
  }
  return avg / 5;
9d00a578:	3c026666 	lui	v0,0x6666
9d00a57c:	24426667 	addiu	v0,v0,26215
9d00a580:	02220018 	mult	s1,v0
9d00a584:	00001010 	mfhi	v0
9d00a588:	00021043 	sra	v0,v0,0x1
9d00a58c:	00118fc3 	sra	s1,s1,0x1f
}
9d00a590:	00511023 	subu	v0,v0,s1
9d00a594:	8fbf001c 	lw	ra,28(sp)
9d00a598:	8fb10018 	lw	s1,24(sp)
9d00a59c:	8fb00014 	lw	s0,20(sp)
9d00a5a0:	03e00008 	jr	ra
9d00a5a4:	27bd0020 	addiu	sp,sp,32

9d00a5a8 <get_ADC_milliamps>:
    ; // wait for the conversion process to finish
  }
  return ADC1BUF0;
}

int get_ADC_milliamps() {
9d00a5a8:	27bdffe8 	addiu	sp,sp,-24
9d00a5ac:	afbf0014 	sw	ra,20(sp)
  // return the ADC reading at B0 in milliamps
  return (1.5576 * get_ADC_counts()) - 787.0626;  // from best fit line for ADC/I mapping
9d00a5b0:	0f402954 	jal	9d00a550 <get_ADC_counts>
9d00a5b4:	00000000 	nop
9d00a5b8:	0f402fba 	jal	9d00bee8 <.LFE4>
9d00a5bc:	00402021 	move	a0,v0
9d00a5c0:	00402021 	move	a0,v0
9d00a5c4:	3c029d01 	lui	v0,0x9d01
9d00a5c8:	0f402793 	jal	9d009e4c <.LFE4>
9d00a5cc:	8c45c528 	lw	a1,-15064(v0)
9d00a5d0:	00402021 	move	a0,v0
9d00a5d4:	3c029d01 	lui	v0,0x9d01
9d00a5d8:	0f4025f8 	jal	9d0097e0 <__subsf3>
9d00a5dc:	8c45c52c 	lw	a1,-15060(v0)
9d00a5e0:	0f402e10 	jal	9d00b840 <__fixsfsi>
9d00a5e4:	00402021 	move	a0,v0
}
9d00a5e8:	8fbf0014 	lw	ra,20(sp)
9d00a5ec:	03e00008 	jr	ra
9d00a5f0:	27bd0018 	addiu	sp,sp,24

Disassembly of section .text._outcnvrt:

9d00a5f4 <_outcnvrt>:
9d00a5f4:	27bdffd8 	addiu	sp,sp,-40
9d00a5f8:	afbf0024 	sw	ra,36(sp)
9d00a5fc:	afb40020 	sw	s4,32(sp)
9d00a600:	afb3001c 	sw	s3,28(sp)
9d00a604:	afb20018 	sw	s2,24(sp)
9d00a608:	afb10014 	sw	s1,20(sp)
9d00a60c:	afb00010 	sw	s0,16(sp)
9d00a610:	97a20038 	lhu	v0,56(sp)
9d00a614:	00809821 	move	s3,a0
9d00a618:	00a0a021 	move	s4,a1
9d00a61c:	30420008 	andi	v0,v0,0x8
9d00a620:	00c08021 	move	s0,a2
9d00a624:	10400014 	beqz	v0,9d00a678 <_outcnvrt+0x84>
9d00a628:	00e08821 	move	s1,a3
9d00a62c:	00a02021 	move	a0,a1
9d00a630:	00c02821 	move	a1,a2
9d00a634:	0f402ee4 	jal	9d00bb90 <__sputn>
9d00a638:	02603021 	move	a2,s3
9d00a63c:	2403ffff 	li	v1,-1
9d00a640:	10430003 	beq	v0,v1,9d00a650 <_outcnvrt+0x5c>
9d00a644:	0211902a 	slt	s2,s0,s1
9d00a648:	1640001c 	bnez	s2,9d00a6bc <_outcnvrt+0xc8>
9d00a64c:	02602021 	move	a0,s3
9d00a650:	02201021 	move	v0,s1
9d00a654:	0212100a 	movz	v0,s0,s2
9d00a658:	8fbf0024 	lw	ra,36(sp)
9d00a65c:	8fb40020 	lw	s4,32(sp)
9d00a660:	8fb3001c 	lw	s3,28(sp)
9d00a664:	8fb20018 	lw	s2,24(sp)
9d00a668:	8fb10014 	lw	s1,20(sp)
9d00a66c:	8fb00010 	lw	s0,16(sp)
9d00a670:	03e00008 	jr	ra
9d00a674:	27bd0028 	addiu	sp,sp,40
9d00a678:	00c7902a 	slt	s2,a2,a3
9d00a67c:	1640001d 	bnez	s2,9d00a6f4 <_outcnvrt+0x100>
9d00a680:	00e62823 	subu	a1,a3,a2
9d00a684:	02802021 	move	a0,s4
9d00a688:	02002821 	move	a1,s0
9d00a68c:	0f402ee4 	jal	9d00bb90 <__sputn>
9d00a690:	02603021 	move	a2,s3
9d00a694:	02201021 	move	v0,s1
9d00a698:	0212100a 	movz	v0,s0,s2
9d00a69c:	8fbf0024 	lw	ra,36(sp)
9d00a6a0:	8fb40020 	lw	s4,32(sp)
9d00a6a4:	8fb3001c 	lw	s3,28(sp)
9d00a6a8:	8fb20018 	lw	s2,24(sp)
9d00a6ac:	8fb10014 	lw	s1,20(sp)
9d00a6b0:	8fb00010 	lw	s0,16(sp)
9d00a6b4:	03e00008 	jr	ra
9d00a6b8:	27bd0028 	addiu	sp,sp,40
9d00a6bc:	02302823 	subu	a1,s1,s0
9d00a6c0:	3c069d01 	lui	a2,0x9d01
9d00a6c4:	0f402d77 	jal	9d00b5dc <repl>
9d00a6c8:	24c6be6c 	addiu	a2,a2,-16788
9d00a6cc:	02201021 	move	v0,s1
9d00a6d0:	0212100a 	movz	v0,s0,s2
9d00a6d4:	8fbf0024 	lw	ra,36(sp)
9d00a6d8:	8fb40020 	lw	s4,32(sp)
9d00a6dc:	8fb3001c 	lw	s3,28(sp)
9d00a6e0:	8fb20018 	lw	s2,24(sp)
9d00a6e4:	8fb10014 	lw	s1,20(sp)
9d00a6e8:	8fb00010 	lw	s0,16(sp)
9d00a6ec:	03e00008 	jr	ra
9d00a6f0:	27bd0028 	addiu	sp,sp,40
9d00a6f4:	3c069d01 	lui	a2,0x9d01
9d00a6f8:	0f402d77 	jal	9d00b5dc <repl>
9d00a6fc:	24c6be6c 	addiu	a2,a2,-16788
9d00a700:	2403ffff 	li	v1,-1
9d00a704:	1443ffdf 	bne	v0,v1,9d00a684 <_outcnvrt+0x90>
9d00a708:	02201021 	move	v0,s1
9d00a70c:	0212100a 	movz	v0,s0,s2
9d00a710:	8fbf0024 	lw	ra,36(sp)
9d00a714:	8fb40020 	lw	s4,32(sp)
9d00a718:	8fb3001c 	lw	s3,28(sp)
9d00a71c:	8fb20018 	lw	s2,24(sp)
9d00a720:	8fb10014 	lw	s1,20(sp)
9d00a724:	8fb00010 	lw	s0,16(sp)
9d00a728:	03e00008 	jr	ra
9d00a72c:	27bd0028 	addiu	sp,sp,40

Disassembly of section .text.ungetc:

9d00a730 <ungetc>:
9d00a730:	27bdffe0 	addiu	sp,sp,-32
9d00a734:	afbf001c 	sw	ra,28(sp)
9d00a738:	afb20018 	sw	s2,24(sp)
9d00a73c:	afb10014 	sw	s1,20(sp)
9d00a740:	afb00010 	sw	s0,16(sp)
9d00a744:	2412ffff 	li	s2,-1
9d00a748:	10920028 	beq	a0,s2,9d00a7ec <ungetc+0xbc>
9d00a74c:	00808821 	move	s1,a0
9d00a750:	00a08021 	move	s0,a1
9d00a754:	8ca20018 	lw	v0,24(a1)
9d00a758:	00a02021 	move	a0,a1
9d00a75c:	8c420010 	lw	v0,16(v0)
9d00a760:	0040f809 	jalr	v0
9d00a764:	24050002 	li	a1,2
9d00a768:	10400021 	beqz	v0,9d00a7f0 <ungetc+0xc0>
9d00a76c:	2402ffff 	li	v0,-1
9d00a770:	8e020000 	lw	v0,0(s0)
9d00a774:	10520037 	beq	v0,s2,9d00a854 <ungetc+0x124>
9d00a778:	00000000 	nop
9d00a77c:	8e02000c 	lw	v0,12(s0)
9d00a780:	50400017 	beqzl	v0,9d00a7e0 <ungetc+0xb0>
9d00a784:	8e030004 	lw	v1,4(s0)
9d00a788:	8e020004 	lw	v0,4(s0)
9d00a78c:	8e030008 	lw	v1,8(s0)
9d00a790:	0062182b 	sltu	v1,v1,v0
9d00a794:	1060001c 	beqz	v1,9d00a808 <ungetc+0xd8>
9d00a798:	8e030000 	lw	v1,0(s0)
9d00a79c:	2442ffff 	addiu	v0,v0,-1
9d00a7a0:	ae020004 	sw	v0,4(s0)
9d00a7a4:	24630001 	addiu	v1,v1,1
9d00a7a8:	ae030000 	sw	v1,0(s0)
9d00a7ac:	90430000 	lbu	v1,0(v0)
9d00a7b0:	54710001 	bnel	v1,s1,9d00a7b8 <ungetc+0x88>
9d00a7b4:	a0510000 	sb	s1,0(v0)
9d00a7b8:	96030010 	lhu	v1,16(s0)
9d00a7bc:	02201021 	move	v0,s1
9d00a7c0:	3063ffdf 	andi	v1,v1,0xffdf
9d00a7c4:	a6030010 	sh	v1,16(s0)
9d00a7c8:	8fbf001c 	lw	ra,28(sp)
9d00a7cc:	8fb20018 	lw	s2,24(sp)
9d00a7d0:	8fb10014 	lw	s1,20(sp)
9d00a7d4:	8fb00010 	lw	s0,16(sp)
9d00a7d8:	03e00008 	jr	ra
9d00a7dc:	27bd0020 	addiu	sp,sp,32
9d00a7e0:	2402ffff 	li	v0,-1
9d00a7e4:	50620011 	beql	v1,v0,9d00a82c <ungetc+0xfc>
9d00a7e8:	96030010 	lhu	v1,16(s0)
9d00a7ec:	2402ffff 	li	v0,-1
9d00a7f0:	8fbf001c 	lw	ra,28(sp)
9d00a7f4:	8fb20018 	lw	s2,24(sp)
9d00a7f8:	8fb10014 	lw	s1,20(sp)
9d00a7fc:	8fb00010 	lw	s0,16(sp)
9d00a800:	03e00008 	jr	ra
9d00a804:	27bd0020 	addiu	sp,sp,32
9d00a808:	5060ffe7 	beqzl	v1,9d00a7a8 <ungetc+0x78>
9d00a80c:	24630001 	addiu	v1,v1,1
9d00a810:	02201021 	move	v0,s1
9d00a814:	8fbf001c 	lw	ra,28(sp)
9d00a818:	8fb20018 	lw	s2,24(sp)
9d00a81c:	8fb10014 	lw	s1,20(sp)
9d00a820:	8fb00010 	lw	s0,16(sp)
9d00a824:	03e00008 	jr	ra
9d00a828:	27bd0020 	addiu	sp,sp,32
9d00a82c:	ae110004 	sw	s1,4(s0)
9d00a830:	02201021 	move	v0,s1
9d00a834:	3063ffdf 	andi	v1,v1,0xffdf
9d00a838:	a6030010 	sh	v1,16(s0)
9d00a83c:	8fbf001c 	lw	ra,28(sp)
9d00a840:	8fb20018 	lw	s2,24(sp)
9d00a844:	8fb10014 	lw	s1,20(sp)
9d00a848:	8fb00010 	lw	s0,16(sp)
9d00a84c:	03e00008 	jr	ra
9d00a850:	27bd0020 	addiu	sp,sp,32
9d00a854:	0f402dc5 	jal	9d00b714 <_i_init>
9d00a858:	02002021 	move	a0,s0
9d00a85c:	0b4029e0 	j	9d00a780 <ungetc+0x50>
9d00a860:	8e02000c 	lw	v0,12(s0)

Disassembly of section .text.putget.2773:

9d00a864 <putget.2773>:
9d00a864:	27bdffe0 	addiu	sp,sp,-32
9d00a868:	afbf001c 	sw	ra,28(sp)
9d00a86c:	afb10018 	sw	s1,24(sp)
9d00a870:	afb00014 	sw	s0,20(sp)
9d00a874:	01e08021 	move	s0,t7
9d00a878:	8de50014 	lw	a1,20(t7)
9d00a87c:	8de20010 	lw	v0,16(t7)
9d00a880:	10a20019 	beq	a1,v0,9d00a8e8 <putget.2773+0x84>
9d00a884:	00808821 	move	s1,a0
9d00a888:	8de20008 	lw	v0,8(t7)
9d00a88c:	24a30001 	addiu	v1,a1,1
9d00a890:	00452821 	addu	a1,v0,a1
9d00a894:	ae030014 	sw	v1,20(s0)
9d00a898:	1220000d 	beqz	s1,9d00a8d0 <putget.2773+0x6c>
9d00a89c:	a0b10000 	sb	s1,0(a1)
9d00a8a0:	8e020004 	lw	v0,4(s0)
9d00a8a4:	1040000a 	beqz	v0,9d00a8d0 <putget.2773+0x6c>
9d00a8a8:	2411ffff 	li	s1,-1
9d00a8ac:	0f402f32 	jal	9d00bcc8 <gsgetc>
9d00a8b0:	8e040000 	lw	a0,0(s0)
9d00a8b4:	00408821 	move	s1,v0
9d00a8b8:	2402ffff 	li	v0,-1
9d00a8bc:	12220005 	beq	s1,v0,9d00a8d4 <putget.2773+0x70>
9d00a8c0:	02201021 	move	v0,s1
9d00a8c4:	8e020004 	lw	v0,4(s0)
9d00a8c8:	2442ffff 	addiu	v0,v0,-1
9d00a8cc:	ae020004 	sw	v0,4(s0)
9d00a8d0:	02201021 	move	v0,s1
9d00a8d4:	8fbf001c 	lw	ra,28(sp)
9d00a8d8:	8fb10018 	lw	s1,24(sp)
9d00a8dc:	8fb00014 	lw	s0,20(sp)
9d00a8e0:	03e00008 	jr	ra
9d00a8e4:	27bd0020 	addiu	sp,sp,32
9d00a8e8:	8de4000c 	lw	a0,12(t7)
9d00a8ec:	24a50080 	addiu	a1,a1,128
9d00a8f0:	10800007 	beqz	a0,9d00a910 <putget.2773+0xac>
9d00a8f4:	ade50010 	sw	a1,16(t7)
9d00a8f8:	0f40148c 	jal	9d005230 <realloc>
9d00a8fc:	00000000 	nop
9d00a900:	ae02000c 	sw	v0,12(s0)
9d00a904:	8e050014 	lw	a1,20(s0)
9d00a908:	0b402a23 	j	9d00a88c <putget.2773+0x28>
9d00a90c:	ae020008 	sw	v0,8(s0)
9d00a910:	0f400d37 	jal	9d0034dc <malloc>
9d00a914:	00a02021 	move	a0,a1
9d00a918:	8e030008 	lw	v1,8(s0)
9d00a91c:	ae02000c 	sw	v0,12(s0)
9d00a920:	24680080 	addiu	t0,v1,128
9d00a924:	88670003 	lwl	a3,3(v1)
9d00a928:	88660007 	lwl	a2,7(v1)
9d00a92c:	8865000b 	lwl	a1,11(v1)
9d00a930:	8864000f 	lwl	a0,15(v1)
9d00a934:	98670000 	lwr	a3,0(v1)
9d00a938:	98660004 	lwr	a2,4(v1)
9d00a93c:	98650008 	lwr	a1,8(v1)
9d00a940:	9864000c 	lwr	a0,12(v1)
9d00a944:	24630010 	addiu	v1,v1,16
9d00a948:	ac470000 	sw	a3,0(v0)
9d00a94c:	ac460004 	sw	a2,4(v0)
9d00a950:	ac450008 	sw	a1,8(v0)
9d00a954:	ac44000c 	sw	a0,12(v0)
9d00a958:	1468fff2 	bne	v1,t0,9d00a924 <putget.2773+0xc0>
9d00a95c:	24420010 	addiu	v0,v0,16
9d00a960:	8e02000c 	lw	v0,12(s0)
9d00a964:	8e050014 	lw	a1,20(s0)
9d00a968:	0b402a23 	j	9d00a88c <putget.2773+0x28>
9d00a96c:	ae020008 	sw	v0,8(s0)

Disassembly of section .text.malloc_trim:

9d00a970 <malloc_trim>:
9d00a970:	27bdffe0 	addiu	sp,sp,-32
9d00a974:	afbf001c 	sw	ra,28(sp)
9d00a978:	afb20018 	sw	s2,24(sp)
9d00a97c:	afb10014 	sw	s1,20(sp)
9d00a980:	afb00010 	sw	s0,16(sp)
9d00a984:	0f403184 	jal	9d00c610 <getpagesize>
9d00a988:	00809021 	move	s2,a0
9d00a98c:	3c10a000 	lui	s0,0xa000
9d00a990:	26103ee4 	addiu	s0,s0,16100
9d00a994:	8e030008 	lw	v1,8(s0)
9d00a998:	8c710004 	lw	s1,4(v1)
9d00a99c:	2403fffc 	li	v1,-4
9d00a9a0:	02238824 	and	s1,s1,v1
9d00a9a4:	02322023 	subu	a0,s1,s2
9d00a9a8:	2484ffef 	addiu	a0,a0,-17
9d00a9ac:	00822021 	addu	a0,a0,v0
9d00a9b0:	0082001b 	divu	zero,a0,v0
9d00a9b4:	004001f4 	teq	v0,zero,0x7
9d00a9b8:	00009012 	mflo	s2
9d00a9bc:	2652ffff 	addiu	s2,s2,-1
9d00a9c0:	72429002 	mul	s2,s2,v0
9d00a9c4:	0242102a 	slt	v0,s2,v0
9d00a9c8:	10400008 	beqz	v0,9d00a9ec <malloc_trim+0x7c>
9d00a9cc:	00000000 	nop
9d00a9d0:	00001021 	move	v0,zero
9d00a9d4:	8fbf001c 	lw	ra,28(sp)
9d00a9d8:	8fb20018 	lw	s2,24(sp)
9d00a9dc:	8fb10014 	lw	s1,20(sp)
9d00a9e0:	8fb00010 	lw	s0,16(sp)
9d00a9e4:	03e00008 	jr	ra
9d00a9e8:	27bd0020 	addiu	sp,sp,32
9d00a9ec:	0f402fa6 	jal	9d00be98 <sbrk>
9d00a9f0:	00002021 	move	a0,zero
9d00a9f4:	8e030008 	lw	v1,8(s0)
9d00a9f8:	00711821 	addu	v1,v1,s1
9d00a9fc:	1443fff5 	bne	v0,v1,9d00a9d4 <malloc_trim+0x64>
9d00aa00:	00001021 	move	v0,zero
9d00aa04:	0f402fa6 	jal	9d00be98 <sbrk>
9d00aa08:	00122023 	negu	a0,s2
9d00aa0c:	2403ffff 	li	v1,-1
9d00aa10:	1043000a 	beq	v0,v1,9d00aa3c <malloc_trim+0xcc>
9d00aa14:	3c02a000 	lui	v0,0xa000
9d00aa18:	8c444768 	lw	a0,18280(v0)
9d00aa1c:	8e030008 	lw	v1,8(s0)
9d00aa20:	02328823 	subu	s1,s1,s2
9d00aa24:	36310001 	ori	s1,s1,0x1
9d00aa28:	00929023 	subu	s2,a0,s2
9d00aa2c:	ac710004 	sw	s1,4(v1)
9d00aa30:	ac524768 	sw	s2,18280(v0)
9d00aa34:	0b402a75 	j	9d00a9d4 <malloc_trim+0x64>
9d00aa38:	24020001 	li	v0,1
9d00aa3c:	0f402fa6 	jal	9d00be98 <sbrk>
9d00aa40:	00002021 	move	a0,zero
9d00aa44:	8e030008 	lw	v1,8(s0)
9d00aa48:	00432023 	subu	a0,v0,v1
9d00aa4c:	28850010 	slti	a1,a0,16
9d00aa50:	54a0ffe0 	bnezl	a1,9d00a9d4 <malloc_trim+0x64>
9d00aa54:	00001021 	move	v0,zero
9d00aa58:	3c05a000 	lui	a1,0xa000
9d00aa5c:	8ca53edc 	lw	a1,16092(a1)
9d00aa60:	34840001 	ori	a0,a0,0x1
9d00aa64:	00451023 	subu	v0,v0,a1
9d00aa68:	3c05a000 	lui	a1,0xa000
9d00aa6c:	aca24768 	sw	v0,18280(a1)
9d00aa70:	0b402a74 	j	9d00a9d0 <malloc_trim+0x60>
9d00aa74:	ac640004 	sw	a0,4(v1)

Disassembly of section .rodata:

9d00aa78 <_ctype>:
9d00aa78:	20202000 20202020 28282020 20282828     .         ((((( 
9d00aa88:	20202020 20202020 20202020 20202020                     
9d00aa98:	10108020 10101010 10101010 10101010      ...............
9d00aaa8:	04040410 04040404 10040404 10101010     ................
9d00aab8:	41411010 41414141 01010101 01010101     ..AAAAAA........
9d00aac8:	01010101 01010101 01010101 10101010     ................
9d00aad8:	42421010 42424242 02020202 02020202     ..BBBBBB........
9d00aae8:	02020202 02020202 02020202 10101010     ................
9d00aaf8:	00000020 00000000 00000000 00000000      ...............
	...

Disassembly of section .text.__ldexpf:

9d00ab7c <__ldexpf>:
9d00ab7c:	7c863dc0 	ext	a2,a0,0x17,0x8
9d00ab80:	24c8ffff 	addiu	t0,a2,-1
9d00ab84:	2d0800fe 	sltiu	t0,t0,254
9d00ab88:	00044fc2 	srl	t1,a0,0x1f
9d00ab8c:	1100002b 	beqz	t0,9d00ac3c <__ldexpf+0xc0>
9d00ab90:	7c87b000 	ext	a3,a0,0x0,0x17
9d00ab94:	24c6ff81 	addiu	a2,a2,-127
9d00ab98:	3c020080 	lui	v0,0x80
9d00ab9c:	00e21025 	or	v0,a3,v0
9d00aba0:	00c53021 	addu	a2,a2,a1
9d00aba4:	24c3007f 	addiu	v1,a2,127
9d00aba8:	18600018 	blez	v1,9d00ac0c <__ldexpf+0x90>
9d00abac:	000210c0 	sll	v0,v0,0x3
9d00abb0:	30440007 	andi	a0,v0,0x7
9d00abb4:	1480000d 	bnez	a0,9d00abec <__ldexpf+0x70>
9d00abb8:	7c4400c0 	ext	a0,v0,0x3,0x1
9d00abbc:	286400ff 	slti	a0,v1,255
9d00abc0:	10800024 	beqz	a0,9d00ac54 <__ldexpf+0xd8>
9d00abc4:	000210c2 	srl	v0,v0,0x3
9d00abc8:	7c4405c0 	ext	a0,v0,0x17,0x1
9d00abcc:	50800002 	beqzl	a0,9d00abd8 <__ldexpf+0x5c>
9d00abd0:	00001821 	move	v1,zero
9d00abd4:	7c42b000 	ext	v0,v0,0x0,0x17
9d00abd8:	00094a00 	sll	t1,t1,0x8
9d00abdc:	00691825 	or	v1,v1,t1
9d00abe0:	00031dc0 	sll	v1,v1,0x17
9d00abe4:	03e00008 	jr	ra
9d00abe8:	00621025 	or	v0,v1,v0
9d00abec:	24420003 	addiu	v0,v0,3
9d00abf0:	00441021 	addu	v0,v0,a0
9d00abf4:	000226c2 	srl	a0,v0,0x1b
9d00abf8:	1080fff1 	beqz	a0,9d00abc0 <__ldexpf+0x44>
9d00abfc:	286400ff 	slti	a0,v1,255
9d00ac00:	00021042 	srl	v0,v0,0x1
9d00ac04:	0b402aef 	j	9d00abbc <__ldexpf+0x40>
9d00ac08:	24630001 	addiu	v1,v1,1
9d00ac0c:	2403ff82 	li	v1,-126
9d00ac10:	00661823 	subu	v1,v1,a2
9d00ac14:	2864001b 	slti	a0,v1,27
9d00ac18:	50800012 	beqzl	a0,9d00ac64 <__ldexpf+0xe8>
9d00ac1c:	00001021 	move	v0,zero
9d00ac20:	24c4009e 	addiu	a0,a2,158
9d00ac24:	00822004 	sllv	a0,v0,a0
9d00ac28:	00621006 	srlv	v0,v0,v1
9d00ac2c:	0004182b 	sltu	v1,zero,a0
9d00ac30:	00621025 	or	v0,v1,v0
9d00ac34:	0b402aec 	j	9d00abb0 <__ldexpf+0x34>
9d00ac38:	24030001 	li	v1,1
9d00ac3c:	14c00003 	bnez	a2,9d00ac4c <__ldexpf+0xd0>
9d00ac40:	00000000 	nop
9d00ac44:	14e00009 	bnez	a3,9d00ac6c <__ldexpf+0xf0>
9d00ac48:	70e31820 	clz	v1,a3
9d00ac4c:	03e00008 	jr	ra
9d00ac50:	00801021 	move	v0,a0
9d00ac54:	00091200 	sll	v0,t1,0x8
9d00ac58:	344200ff 	ori	v0,v0,0xff
9d00ac5c:	03e00008 	jr	ra
9d00ac60:	000215c0 	sll	v0,v0,0x17
9d00ac64:	0b402af6 	j	9d00abd8 <__ldexpf+0x5c>
9d00ac68:	00001821 	move	v1,zero
9d00ac6c:	2462fff8 	addiu	v0,v1,-8
9d00ac70:	00471004 	sllv	v0,a3,v0
9d00ac74:	2406ff8a 	li	a2,-118
9d00ac78:	0b402ae8 	j	9d00aba0 <__ldexpf+0x24>
9d00ac7c:	00c33023 	subu	a2,a2,v1

Disassembly of section .text._flsbuf_simple:

9d00ac80 <_flsbuf_simple>:
9d00ac80:	27bdffd8 	addiu	sp,sp,-40
9d00ac84:	afbf0024 	sw	ra,36(sp)
9d00ac88:	afb10020 	sw	s1,32(sp)
9d00ac8c:	afb0001c 	sw	s0,28(sp)
9d00ac90:	00a08021 	move	s0,a1
9d00ac94:	8ca2000c 	lw	v0,12(a1)
9d00ac98:	1040002d 	beqz	v0,9d00ad50 <_flsbuf_simple+0xd0>
9d00ac9c:	00808821 	move	s1,a0
9d00aca0:	8ca20000 	lw	v0,0(a1)
9d00aca4:	24420001 	addiu	v0,v0,1
9d00aca8:	2403ffff 	li	v1,-1
9d00acac:	1043001e 	beq	v0,v1,9d00ad28 <_flsbuf_simple+0xa8>
9d00acb0:	aca20000 	sw	v0,0(a1)
9d00acb4:	0f402e30 	jal	9d00b8c0 <_fflush_simple>
9d00acb8:	02002021 	move	a0,s0
9d00acbc:	8e040000 	lw	a0,0(s0)
9d00acc0:	8e020004 	lw	v0,4(s0)
9d00acc4:	2484ffff 	addiu	a0,a0,-1
9d00acc8:	24430001 	addiu	v1,v0,1
9d00accc:	ae040000 	sw	a0,0(s0)
9d00acd0:	ae030004 	sw	v1,4(s0)
9d00acd4:	a0510000 	sb	s1,0(v0)
9d00acd8:	2402000a 	li	v0,10
9d00acdc:	52220007 	beql	s1,v0,9d00acfc <_flsbuf_simple+0x7c>
9d00ace0:	96020010 	lhu	v0,16(s0)
9d00ace4:	02201021 	move	v0,s1
9d00ace8:	8fbf0024 	lw	ra,36(sp)
9d00acec:	8fb10020 	lw	s1,32(sp)
9d00acf0:	8fb0001c 	lw	s0,28(sp)
9d00acf4:	03e00008 	jr	ra
9d00acf8:	27bd0028 	addiu	sp,sp,40
9d00acfc:	30420008 	andi	v0,v0,0x8
9d00ad00:	1040fff9 	beqz	v0,9d00ace8 <_flsbuf_simple+0x68>
9d00ad04:	02201021 	move	v0,s1
9d00ad08:	0f402e30 	jal	9d00b8c0 <_fflush_simple>
9d00ad0c:	02002021 	move	a0,s0
9d00ad10:	02201021 	move	v0,s1
9d00ad14:	8fbf0024 	lw	ra,36(sp)
9d00ad18:	8fb10020 	lw	s1,32(sp)
9d00ad1c:	8fb0001c 	lw	s0,28(sp)
9d00ad20:	03e00008 	jr	ra
9d00ad24:	27bd0028 	addiu	sp,sp,40
9d00ad28:	8ca20008 	lw	v0,8(a1)
9d00ad2c:	1440ffe1 	bnez	v0,9d00acb4 <_flsbuf_simple+0x34>
9d00ad30:	00000000 	nop
9d00ad34:	94a20010 	lhu	v0,16(a1)
9d00ad38:	aca00004 	sw	zero,4(a1)
9d00ad3c:	aca0000c 	sw	zero,12(a1)
9d00ad40:	34420010 	ori	v0,v0,0x10
9d00ad44:	aca00000 	sw	zero,0(a1)
9d00ad48:	0b402b2d 	j	9d00acb4 <_flsbuf_simple+0x34>
9d00ad4c:	a4a20010 	sh	v0,16(a1)
9d00ad50:	27a40010 	addiu	a0,sp,16
9d00ad54:	24050001 	li	a1,1
9d00ad58:	0f402fcd 	jal	9d00bf34 <.LFE0>
9d00ad5c:	a3b10010 	sb	s1,16(sp)
9d00ad60:	ae000000 	sw	zero,0(s0)
9d00ad64:	02201021 	move	v0,s1
9d00ad68:	8fbf0024 	lw	ra,36(sp)
9d00ad6c:	8fb10020 	lw	s1,32(sp)
9d00ad70:	8fb0001c 	lw	s0,28(sp)
9d00ad74:	03e00008 	jr	ra
9d00ad78:	27bd0028 	addiu	sp,sp,40

Disassembly of section .text.strchr:

9d00ad7c <strchr>:
9d00ad7c:	30820003 	andi	v0,a0,0x3
9d00ad80:	14400034 	bnez	v0,9d00ae54 <strchr+0xd8>
9d00ad84:	30a600ff 	andi	a2,a1,0xff
9d00ad88:	30a500ff 	andi	a1,a1,0xff
9d00ad8c:	00054a00 	sll	t1,a1,0x8
9d00ad90:	8c820000 	lw	v0,0(a0)
9d00ad94:	01252825 	or	a1,t1,a1
9d00ad98:	00054c00 	sll	t1,a1,0x10
9d00ad9c:	01254825 	or	t1,t1,a1
9d00ada0:	01221826 	xor	v1,t1,v0
9d00ada4:	3c05fefe 	lui	a1,0xfefe
9d00ada8:	34a5feff 	ori	a1,a1,0xfeff
9d00adac:	00034027 	nor	t0,zero,v1
9d00adb0:	00651821 	addu	v1,v1,a1
9d00adb4:	00023827 	nor	a3,zero,v0
9d00adb8:	00451021 	addu	v0,v0,a1
9d00adbc:	01031824 	and	v1,t0,v1
9d00adc0:	00e21024 	and	v0,a3,v0
9d00adc4:	00621025 	or	v0,v1,v0
9d00adc8:	3c0a8080 	lui	t2,0x8080
9d00adcc:	354a8080 	ori	t2,t2,0x8080
9d00add0:	004a1024 	and	v0,v0,t2
9d00add4:	54400020 	bnezl	v0,9d00ae58 <strchr+0xdc>
9d00add8:	90820000 	lbu	v0,0(a0)
9d00addc:	24840004 	addiu	a0,a0,4
9d00ade0:	8c820000 	lw	v0,0(a0)
9d00ade4:	01221826 	xor	v1,t1,v0
9d00ade8:	00034027 	nor	t0,zero,v1
9d00adec:	00651821 	addu	v1,v1,a1
9d00adf0:	00023827 	nor	a3,zero,v0
9d00adf4:	00451021 	addu	v0,v0,a1
9d00adf8:	01031824 	and	v1,t0,v1
9d00adfc:	00e21024 	and	v0,a3,v0
9d00ae00:	00621025 	or	v0,v1,v0
9d00ae04:	004a1024 	and	v0,v0,t2
9d00ae08:	54400013 	bnezl	v0,9d00ae58 <strchr+0xdc>
9d00ae0c:	90820000 	lbu	v0,0(a0)
9d00ae10:	24840004 	addiu	a0,a0,4
9d00ae14:	8c820000 	lw	v0,0(a0)
9d00ae18:	01221826 	xor	v1,t1,v0
9d00ae1c:	00034027 	nor	t0,zero,v1
9d00ae20:	00651821 	addu	v1,v1,a1
9d00ae24:	00023827 	nor	a3,zero,v0
9d00ae28:	00451021 	addu	v0,v0,a1
9d00ae2c:	01031824 	and	v1,t0,v1
9d00ae30:	00e21024 	and	v0,a3,v0
9d00ae34:	00621025 	or	v0,v1,v0
9d00ae38:	004a1024 	and	v0,v0,t2
9d00ae3c:	5040ffe8 	beqzl	v0,9d00ade0 <strchr+0x64>
9d00ae40:	24840004 	addiu	a0,a0,4
9d00ae44:	0b402b96 	j	9d00ae58 <strchr+0xdc>
9d00ae48:	90820000 	lbu	v0,0(a0)
9d00ae4c:	10400006 	beqz	v0,9d00ae68 <strchr+0xec>
9d00ae50:	24840001 	addiu	a0,a0,1
9d00ae54:	90820000 	lbu	v0,0(a0)
9d00ae58:	1446fffc 	bne	v0,a2,9d00ae4c <strchr+0xd0>
9d00ae5c:	00000000 	nop
9d00ae60:	03e00008 	jr	ra
9d00ae64:	00801021 	move	v0,a0
9d00ae68:	03e00008 	jr	ra
9d00ae6c:	00001021 	move	v0,zero

Disassembly of section .text._mon_getc:

9d00ae70 <_mon_getc>:
9d00ae70:	27bdffe8 	addiu	sp,sp,-24
9d00ae74:	afbf0014 	sw	ra,20(sp)
9d00ae78:	3c02a000 	lui	v0,0xa000
9d00ae7c:	8c420018 	lw	v0,24(v0)
9d00ae80:	1440000a 	bnez	v0,9d00aeac <_mon_getc+0x3c>
9d00ae84:	24030002 	li	v1,2
9d00ae88:	3c020000 	lui	v0,0x0
9d00ae8c:	24420000 	addiu	v0,v0,0
9d00ae90:	10400029 	beqz	v0,9d00af38 <_mon_getc+0xc8>
9d00ae94:	3c020000 	lui	v0,0x0
9d00ae98:	0c000000 	jal	90000000 <_bmxdkpba_address+0x8ffe0000>
9d00ae9c:	00000000 	nop
9d00aea0:	8fbf0014 	lw	ra,20(sp)
9d00aea4:	03e00008 	jr	ra
9d00aea8:	27bd0018 	addiu	sp,sp,24
9d00aeac:	1043001c 	beq	v0,v1,9d00af20 <_mon_getc+0xb0>
9d00aeb0:	3c02bf80 	lui	v0,0xbf80
9d00aeb4:	3c02bf80 	lui	v0,0xbf80
9d00aeb8:	8c426000 	lw	v0,24576(v0)
9d00aebc:	3c05bf80 	lui	a1,0xbf80
9d00aec0:	24a56030 	addiu	a1,a1,24624
9d00aec4:	3c04bf80 	lui	a0,0xbf80
9d00aec8:	24846010 	addiu	a0,a0,24592
9d00aecc:	30428000 	andi	v0,v0,0x8000
9d00aed0:	14400003 	bnez	v0,9d00aee0 <_mon_getc+0x70>
9d00aed4:	34038000 	li	v1,0x8000
9d00aed8:	3c02bf80 	lui	v0,0xbf80
9d00aedc:	ac436008 	sw	v1,24584(v0)
9d00aee0:	8c820000 	lw	v0,0(a0)
9d00aee4:	30420001 	andi	v0,v0,0x1
9d00aee8:	14400009 	bnez	v0,9d00af10 <_mon_getc+0xa0>
9d00aeec:	240200a0 	li	v0,160
9d00aef0:	0b402bc0 	j	9d00af00 <_mon_getc+0x90>
9d00aef4:	00000000 	nop
9d00aef8:	10400005 	beqz	v0,9d00af10 <_mon_getc+0xa0>
9d00aefc:	00000000 	nop
9d00af00:	8c830000 	lw	v1,0(a0)
9d00af04:	30630001 	andi	v1,v1,0x1
9d00af08:	1060fffb 	beqz	v1,9d00aef8 <_mon_getc+0x88>
9d00af0c:	2442ffff 	addiu	v0,v0,-1
9d00af10:	8ca20000 	lw	v0,0(a1)
9d00af14:	8fbf0014 	lw	ra,20(sp)
9d00af18:	03e00008 	jr	ra
9d00af1c:	27bd0018 	addiu	sp,sp,24
9d00af20:	8c426800 	lw	v0,26624(v0)
9d00af24:	3c05bf80 	lui	a1,0xbf80
9d00af28:	24a56830 	addiu	a1,a1,26672
9d00af2c:	3c04bf80 	lui	a0,0xbf80
9d00af30:	0b402bb3 	j	9d00aecc <_mon_getc+0x5c>
9d00af34:	24846810 	addiu	a0,a0,26640
9d00af38:	24420000 	addiu	v0,v0,0
9d00af3c:	5040ffde 	beqzl	v0,9d00aeb8 <_mon_getc+0x48>
9d00af40:	3c02bf80 	lui	v0,0xbf80
9d00af44:	0c000000 	jal	90000000 <_bmxdkpba_address+0x8ffe0000>
9d00af48:	00000000 	nop
9d00af4c:	0b402ba9 	j	9d00aea4 <_mon_getc+0x34>
9d00af50:	8fbf0014 	lw	ra,20(sp)

Disassembly of section .text.general_exception:

9d00af54 <_general_exception_context>:
9d00af54:	27bdffa8 	addiu	sp,sp,-88
9d00af58:	afa10004 	sw	at,4(sp)
9d00af5c:	afa20008 	sw	v0,8(sp)
9d00af60:	afa3000c 	sw	v1,12(sp)
9d00af64:	afa40010 	sw	a0,16(sp)
9d00af68:	afa50014 	sw	a1,20(sp)
9d00af6c:	afa60018 	sw	a2,24(sp)
9d00af70:	afa7001c 	sw	a3,28(sp)
9d00af74:	afa80020 	sw	t0,32(sp)
9d00af78:	afa90024 	sw	t1,36(sp)
9d00af7c:	afaa0028 	sw	t2,40(sp)
9d00af80:	afab002c 	sw	t3,44(sp)
9d00af84:	afac0030 	sw	t4,48(sp)
9d00af88:	afad0034 	sw	t5,52(sp)
9d00af8c:	afae0038 	sw	t6,56(sp)
9d00af90:	afaf003c 	sw	t7,60(sp)
9d00af94:	afb80040 	sw	t8,64(sp)
9d00af98:	afb90044 	sw	t9,68(sp)
9d00af9c:	afbf0048 	sw	ra,72(sp)
9d00afa0:	00004012 	mflo	t0
9d00afa4:	afa8004c 	sw	t0,76(sp)
9d00afa8:	00004010 	mfhi	t0
9d00afac:	afa80050 	sw	t0,80(sp)
9d00afb0:	3c1a9d01 	lui	k0,0x9d01
9d00afb4:	275ac010 	addiu	k0,k0,-16368
9d00afb8:	00000000 	nop
9d00afbc:	40046800 	mfc0	a0,c0_cause
9d00afc0:	40056000 	mfc0	a1,c0_status
9d00afc4:	0340f809 	jalr	k0
9d00afc8:	00000000 	nop
9d00afcc:	8fa80050 	lw	t0,80(sp)
9d00afd0:	01000011 	mthi	t0
9d00afd4:	8fa8004c 	lw	t0,76(sp)
9d00afd8:	01000013 	mtlo	t0
9d00afdc:	8fa10004 	lw	at,4(sp)
9d00afe0:	8fa20008 	lw	v0,8(sp)
9d00afe4:	8fa3000c 	lw	v1,12(sp)
9d00afe8:	8fa40010 	lw	a0,16(sp)
9d00afec:	8fa50014 	lw	a1,20(sp)
9d00aff0:	8fa60018 	lw	a2,24(sp)
9d00aff4:	8fa7001c 	lw	a3,28(sp)
9d00aff8:	8fa80020 	lw	t0,32(sp)
9d00affc:	8fa90024 	lw	t1,36(sp)
9d00b000:	8faa0028 	lw	t2,40(sp)
9d00b004:	8fab002c 	lw	t3,44(sp)
9d00b008:	8fac0030 	lw	t4,48(sp)
9d00b00c:	8fad0034 	lw	t5,52(sp)
9d00b010:	8fae0038 	lw	t6,56(sp)
9d00b014:	8faf003c 	lw	t7,60(sp)
9d00b018:	8fb80040 	lw	t8,64(sp)
9d00b01c:	8fb90044 	lw	t9,68(sp)
9d00b020:	8fbf0048 	lw	ra,72(sp)
9d00b024:	27bd0058 	addiu	sp,sp,88
9d00b028:	000000c0 	ehb
9d00b02c:	42000018 	eret

Disassembly of section .text._mon_putc:

9d00b030 <_mon_putc>:
9d00b030:	27bdffe8 	addiu	sp,sp,-24
9d00b034:	afbf0014 	sw	ra,20(sp)
9d00b038:	3c02a000 	lui	v0,0xa000
9d00b03c:	8c420018 	lw	v0,24(v0)
9d00b040:	1440000a 	bnez	v0,9d00b06c <_mon_putc+0x3c>
9d00b044:	7c042420 	seb	a0,a0
9d00b048:	3c020000 	lui	v0,0x0
9d00b04c:	24420000 	addiu	v0,v0,0
9d00b050:	10400025 	beqz	v0,9d00b0e8 <_mon_putc+0xb8>
9d00b054:	3c020000 	lui	v0,0x0
9d00b058:	0c000000 	jal	90000000 <_bmxdkpba_address+0x8ffe0000>
9d00b05c:	00000000 	nop
9d00b060:	8fbf0014 	lw	ra,20(sp)
9d00b064:	03e00008 	jr	ra
9d00b068:	27bd0018 	addiu	sp,sp,24
9d00b06c:	24030001 	li	v1,1
9d00b070:	10430015 	beq	v0,v1,9d00b0c8 <_mon_putc+0x98>
9d00b074:	3c05bf80 	lui	a1,0xbf80
9d00b078:	3c05bf80 	lui	a1,0xbf80
9d00b07c:	24a56820 	addiu	a1,a1,26656
9d00b080:	3c02bf80 	lui	v0,0xbf80
9d00b084:	24426818 	addiu	v0,v0,26648
9d00b088:	3c06bf80 	lui	a2,0xbf80
9d00b08c:	24c66808 	addiu	a2,a2,26632
9d00b090:	3c03bf80 	lui	v1,0xbf80
9d00b094:	24636810 	addiu	v1,v1,26640
9d00b098:	34078000 	li	a3,0x8000
9d00b09c:	acc70000 	sw	a3,0(a2)
9d00b0a0:	24060400 	li	a2,1024
9d00b0a4:	ac460000 	sw	a2,0(v0)
9d00b0a8:	8c620000 	lw	v0,0(v1)
9d00b0ac:	30420100 	andi	v0,v0,0x100
9d00b0b0:	1040fffd 	beqz	v0,9d00b0a8 <_mon_putc+0x78>
9d00b0b4:	00000000 	nop
9d00b0b8:	aca40000 	sw	a0,0(a1)
9d00b0bc:	8fbf0014 	lw	ra,20(sp)
9d00b0c0:	03e00008 	jr	ra
9d00b0c4:	27bd0018 	addiu	sp,sp,24
9d00b0c8:	24a56020 	addiu	a1,a1,24608
9d00b0cc:	3c02bf80 	lui	v0,0xbf80
9d00b0d0:	24426018 	addiu	v0,v0,24600
9d00b0d4:	3c06bf80 	lui	a2,0xbf80
9d00b0d8:	24c66008 	addiu	a2,a2,24584
9d00b0dc:	3c03bf80 	lui	v1,0xbf80
9d00b0e0:	0b402c26 	j	9d00b098 <_mon_putc+0x68>
9d00b0e4:	24636010 	addiu	v1,v1,24592
9d00b0e8:	24420000 	addiu	v0,v0,0
9d00b0ec:	1040ffe3 	beqz	v0,9d00b07c <_mon_putc+0x4c>
9d00b0f0:	3c05bf80 	lui	a1,0xbf80
9d00b0f4:	0c000000 	jal	90000000 <_bmxdkpba_address+0x8ffe0000>
9d00b0f8:	00000000 	nop
9d00b0fc:	0b402c19 	j	9d00b064 <_mon_putc+0x34>
9d00b100:	8fbf0014 	lw	ra,20(sp)

Disassembly of section .text.libm:

9d00b104 <fpmodf>:
9d00b104:	00043dc2 30e700ff 3c088000 00043200     .=.....0...<.2..
9d00b114:	00c83025 01044024 240100ff 10e10028     %0..$@.....$(...
9d00b124:	00000000 00064825 00075025 00085825     ....%H..%P..%X..
9d00b134:	240c009e 01876023 19800006 00000000     ...$#`..........
9d00b144:	29810020 1020001c 00000000 01894806      ..).. ......H..
9d00b154:	01894804                                .H..

9d00b158 <Dlab3>:
9d00b158:	00096040 	sll	t4,t1,0x1
9d00b15c:	000c6242 	srl	t4,t4,0x9
9d00b160:	000a6dc0 	sll	t5,t2,0x17
9d00b164:	018d6025 	or	t4,t4,t5
9d00b168:	018b6825 	or	t5,t4,t3
9d00b16c:	acad0000 	sw	t5,0(a1)
9d00b170:	00ea6023 	subu	t4,a3,t2
9d00b174:	2d810020 	sltiu	at,t4,32
9d00b178:	14200002 	bnez	at,9d00b184 <L2>
9d00b17c:	00000000 	nop
9d00b180:	34090000 	li	t1,0x0

9d00b184 <L2>:
9d00b184:	01894806 	srlv	t1,t1,t4
9d00b188:	00c93023 	subu	a2,a2,t1
9d00b18c:	10c00008 	beqz	a2,9d00b1b0 <Dret2>
9d00b190:	00000000 	nop
9d00b194:	70cc6020 	clz	t4,a2
9d00b198:	00ec3823 	subu	a3,a3,t4
9d00b19c:	01863004 	sllv	a2,a2,t4

9d00b1a0 <Dret>:
9d00b1a0:	00063040 	sll	a2,a2,0x1
9d00b1a4:	00063242 	srl	a2,a2,0x9
9d00b1a8:	00076dc0 	sll	t5,a3,0x17
9d00b1ac:	00cd3025 	or	a2,a2,t5

9d00b1b0 <Dret2>:
9d00b1b0:	00c81025 	or	v0,a2,t0

9d00b1b4 <D999>:
9d00b1b4:	03e00008 	jr	ra
9d00b1b8:	00000000 	nop

9d00b1bc <Dzer>:
9d00b1bc:	1000fff8 	b	9d00b1a0 <Dret>
9d00b1c0:	aca80000 	sw	t0,0(a1)

9d00b1c4 <Dinfnan>:
9d00b1c4:	3c04ffc0 	lui	a0,0xffc0
9d00b1c8:	aca40000 	sw	a0,0(a1)
9d00b1cc:	1000fff9 	b	9d00b1b4 <D999>
9d00b1d0:	00041025 	or	v0,zero,a0
9d00b1d4:	00000000 	nop

Disassembly of section .text._sbrk:

9d00b1d8 <_sbrk>:
9d00b1d8:	27bdffe0 	addiu	sp,sp,-32
9d00b1dc:	afbf001c 	sw	ra,28(sp)
9d00b1e0:	afb00018 	sw	s0,24(sp)
9d00b1e4:	3c10a000 	lui	s0,0xa000
9d00b1e8:	8e0247b4 	lw	v0,18356(s0)
9d00b1ec:	10400010 	beqz	v0,9d00b230 <_sbrk+0x58>
9d00b1f0:	00000000 	nop
9d00b1f4:	1880001b 	blez	a0,9d00b264 <_sbrk+0x8c>
9d00b1f8:	00441821 	addu	v1,v0,a0
9d00b1fc:	0062202b 	sltu	a0,v1,v0
9d00b200:	54800011 	bnezl	a0,9d00b248 <_sbrk+0x70>
9d00b204:	2403000c 	li	v1,12
9d00b208:	3c04a000 	lui	a0,0xa000
9d00b20c:	8c8447b8 	lw	a0,18360(a0)
9d00b210:	0083202b 	sltu	a0,a0,v1
9d00b214:	5480000c 	bnezl	a0,9d00b248 <_sbrk+0x70>
9d00b218:	2403000c 	li	v1,12
9d00b21c:	ae0347b4 	sw	v1,18356(s0)
9d00b220:	8fbf001c 	lw	ra,28(sp)
9d00b224:	8fb00018 	lw	s0,24(sp)
9d00b228:	03e00008 	jr	ra
9d00b22c:	27bd0020 	addiu	sp,sp,32
9d00b230:	0f40286c 	jal	9d00a1b0 <.LFE23>
9d00b234:	afa40010 	sw	a0,16(sp)
9d00b238:	8e0247b4 	lw	v0,18356(s0)
9d00b23c:	1440ffed 	bnez	v0,9d00b1f4 <_sbrk+0x1c>
9d00b240:	8fa40010 	lw	a0,16(sp)
9d00b244:	2403000c 	li	v1,12
9d00b248:	3c02a000 	lui	v0,0xa000
9d00b24c:	ac430058 	sw	v1,88(v0)
9d00b250:	2402ffff 	li	v0,-1
9d00b254:	8fbf001c 	lw	ra,28(sp)
9d00b258:	8fb00018 	lw	s0,24(sp)
9d00b25c:	03e00008 	jr	ra
9d00b260:	27bd0020 	addiu	sp,sp,32
9d00b264:	0043202b 	sltu	a0,v0,v1
9d00b268:	14800005 	bnez	a0,9d00b280 <_sbrk+0xa8>
9d00b26c:	3c04a000 	lui	a0,0xa000
9d00b270:	8c8447bc 	lw	a0,18364(a0)
9d00b274:	0064202b 	sltu	a0,v1,a0
9d00b278:	5080ffe9 	beqzl	a0,9d00b220 <_sbrk+0x48>
9d00b27c:	ae0347b4 	sw	v1,18356(s0)
9d00b280:	24030016 	li	v1,22
9d00b284:	3c02a000 	lui	v0,0xa000
9d00b288:	ac430058 	sw	v1,88(v0)
9d00b28c:	2402ffff 	li	v0,-1
9d00b290:	8fbf001c 	lw	ra,28(sp)
9d00b294:	8fb00018 	lw	s0,24(sp)
9d00b298:	03e00008 	jr	ra
9d00b29c:	27bd0020 	addiu	sp,sp,32

Disassembly of section .text.fputc:

9d00b2a0 <fputc>:
9d00b2a0:	27bdffe0 	addiu	sp,sp,-32
9d00b2a4:	afbf001c 	sw	ra,28(sp)
9d00b2a8:	afb10018 	sw	s1,24(sp)
9d00b2ac:	afb00014 	sw	s0,20(sp)
9d00b2b0:	00a08021 	move	s0,a1
9d00b2b4:	8ca20018 	lw	v0,24(a1)
9d00b2b8:	00808821 	move	s1,a0
9d00b2bc:	24050001 	li	a1,1
9d00b2c0:	8c420010 	lw	v0,16(v0)
9d00b2c4:	0040f809 	jalr	v0
9d00b2c8:	02002021 	move	a0,s0
9d00b2cc:	1040000e 	beqz	v0,9d00b308 <fputc+0x68>
9d00b2d0:	2402ffff 	li	v0,-1
9d00b2d4:	8e020000 	lw	v0,0(s0)
9d00b2d8:	2442ffff 	addiu	v0,v0,-1
9d00b2dc:	04400011 	bltz	v0,9d00b324 <fputc+0x84>
9d00b2e0:	ae020000 	sw	v0,0(s0)
9d00b2e4:	96020010 	lhu	v0,16(s0)
9d00b2e8:	30420008 	andi	v0,v0,0x8
9d00b2ec:	1440000b 	bnez	v0,9d00b31c <fputc+0x7c>
9d00b2f0:	2402000a 	li	v0,10
9d00b2f4:	8e030004 	lw	v1,4(s0)
9d00b2f8:	02201021 	move	v0,s1
9d00b2fc:	24640001 	addiu	a0,v1,1
9d00b300:	ae040004 	sw	a0,4(s0)
9d00b304:	a0710000 	sb	s1,0(v1)
9d00b308:	8fbf001c 	lw	ra,28(sp)
9d00b30c:	8fb10018 	lw	s1,24(sp)
9d00b310:	8fb00014 	lw	s0,20(sp)
9d00b314:	03e00008 	jr	ra
9d00b318:	27bd0020 	addiu	sp,sp,32
9d00b31c:	5622fff6 	bnel	s1,v0,9d00b2f8 <fputc+0x58>
9d00b320:	8e030004 	lw	v1,4(s0)
9d00b324:	8e020018 	lw	v0,24(s0)
9d00b328:	02202021 	move	a0,s1
9d00b32c:	8c420004 	lw	v0,4(v0)
9d00b330:	0040f809 	jalr	v0
9d00b334:	02002821 	move	a1,s0
9d00b338:	8fbf001c 	lw	ra,28(sp)
9d00b33c:	8fb10018 	lw	s1,24(sp)
9d00b340:	8fb00014 	lw	s0,20(sp)
9d00b344:	03e00008 	jr	ra
9d00b348:	27bd0020 	addiu	sp,sp,32

Disassembly of section .text.fptodp:

9d00b34c <__extendsfdf2>:
9d00b34c:	00043dc2 30e700ff 3c018000 00813024     .=.....0...<$0..
9d00b35c:	24e9ffff 2d2100fe 1020000d 00000000     ...$..!-.. .....

9d00b36c <Glab1>:
9d00b36c:	24e70380 	addiu	a3,a3,896
9d00b370:	00044a40 	sll	t1,a0,0x9
9d00b374:	00094b02 	srl	t1,t1,0xc
9d00b378:	00c93025 	or	a2,a2,t1
9d00b37c:	00042f40 	sll	a1,a0,0x1d

9d00b380 <Gret>:
9d00b380:	00074d00 	sll	t1,a3,0x14
9d00b384:	00c93025 	or	a2,a2,t1
9d00b388:	00051025 	or	v0,zero,a1
9d00b38c:	00061825 	or	v1,zero,a2

9d00b390 <G999>:
9d00b390:	03e00008 	jr	ra
9d00b394:	00000000 	nop
9d00b398:	00000000 	nop

9d00b39c <Gspec>:
9d00b39c:	24050000 	li	a1,0
9d00b3a0:	00842021 	addu	a0,a0,a0
9d00b3a4:	1080fff6 	beqz	a0,9d00b380 <Gret>
9d00b3a8:	00000000 	nop
9d00b3ac:	14e00009 	bnez	a3,9d00b3d4 <i42>
9d00b3b0:	00000000 	nop

9d00b3b4 <b43>:
9d00b3b4:	24e7ffff 	addiu	a3,a3,-1
9d00b3b8:	00842021 	addu	a0,a0,a0
9d00b3bc:	3c010080 	lui	at,0x80
9d00b3c0:	0081082b 	sltu	at,a0,at
9d00b3c4:	1420fffb 	bnez	at,9d00b3b4 <b43>
9d00b3c8:	00000000 	nop
9d00b3cc:	1000ffe7 	b	9d00b36c <Glab1>
9d00b3d0:	00000000 	nop

9d00b3d4 <i42>:
9d00b3d4:	240707ff 	li	a3,2047
9d00b3d8:	3c01ff00 	lui	at,0xff00
9d00b3dc:	34210001 	ori	at,at,0x1
9d00b3e0:	0081082b 	sltu	at,a0,at
9d00b3e4:	1420ffe6 	bnez	at,9d00b380 <Gret>
9d00b3e8:	00000000 	nop
9d00b3ec:	1000ffe4 	b	9d00b380 <Gret>
9d00b3f0:	3c06fff8 	lui	a2,0xfff8
9d00b3f4:	00000000 	nop

Disassembly of section .text._fullexit:

9d00b3f8 <_fullexit>:
9d00b3f8:	27bdffe0 	addiu	sp,sp,-32
9d00b3fc:	afbf001c 	sw	ra,28(sp)
9d00b400:	afb20018 	sw	s2,24(sp)
9d00b404:	afb10014 	sw	s1,20(sp)
9d00b408:	afb00010 	sw	s0,16(sp)
9d00b40c:	3c10a000 	lui	s0,0xa000
9d00b410:	3c11a000 	lui	s1,0xa000
9d00b414:	00809021 	move	s2,a0
9d00b418:	0f40315e 	jal	9d00c578 <_weak_pthread_mutex_lock>
9d00b41c:	260447c0 	addiu	a0,s0,18368
9d00b420:	8e220014 	lw	v0,20(s1)
9d00b424:	260447c0 	addiu	a0,s0,18368
9d00b428:	24030001 	li	v1,1
9d00b42c:	0f403162 	jal	9d00c588 <_weak_pthread_mutex_unlock>
9d00b430:	ac430038 	sw	v1,56(v0)
9d00b434:	8e220014 	lw	v0,20(s1)
9d00b438:	8c500010 	lw	s0,16(v0)
9d00b43c:	5600000a 	bnezl	s0,9d00b468 <_fullexit+0x70>
9d00b440:	8e020004 	lw	v0,4(s0)
9d00b444:	0b402d21 	j	9d00b484 <_fullexit+0x8c>
9d00b448:	8c420034 	lw	v0,52(v0)
9d00b44c:	00031880 	sll	v1,v1,0x2
9d00b450:	02031821 	addu	v1,s0,v1
9d00b454:	8c630000 	lw	v1,0(v1)
9d00b458:	2442ffff 	addiu	v0,v0,-1
9d00b45c:	0060f809 	jalr	v1
9d00b460:	ae020004 	sw	v0,4(s0)
9d00b464:	8e020004 	lw	v0,4(s0)
9d00b468:	1c40fff8 	bgtz	v0,9d00b44c <_fullexit+0x54>
9d00b46c:	24430001 	addiu	v1,v0,1
9d00b470:	8e100000 	lw	s0,0(s0)
9d00b474:	5600fffc 	bnezl	s0,9d00b468 <_fullexit+0x70>
9d00b478:	8e020004 	lw	v0,4(s0)
9d00b47c:	8e220014 	lw	v0,20(s1)
9d00b480:	8c420034 	lw	v0,52(v0)
9d00b484:	10400003 	beqz	v0,9d00b494 <_fullexit+0x9c>
9d00b488:	00000000 	nop
9d00b48c:	0040f809 	jalr	v0
9d00b490:	00000000 	nop
9d00b494:	0f403186 	jal	9d00c618 <.LFE0>
9d00b498:	02402021 	move	a0,s2

Disassembly of section .text._o_init:

9d00b49c <_o_init>:
9d00b49c:	27bdffe8 	addiu	sp,sp,-24
9d00b4a0:	afbf0014 	sw	ra,20(sp)
9d00b4a4:	afb00010 	sw	s0,16(sp)
9d00b4a8:	00808021 	move	s0,a0
9d00b4ac:	3c02a000 	lui	v0,0xa000
9d00b4b0:	8c430014 	lw	v1,20(v0)
9d00b4b4:	8c820008 	lw	v0,8(a0)
9d00b4b8:	3c059d01 	lui	a1,0x9d01
9d00b4bc:	24a5c2b8 	addiu	a1,a1,-15688
9d00b4c0:	1040001b 	beqz	v0,9d00b530 <_o_init+0x94>
9d00b4c4:	ac650034 	sw	a1,52(v1)
9d00b4c8:	8e03000c 	lw	v1,12(s0)
9d00b4cc:	50600004 	beqzl	v1,9d00b4e0 <_o_init+0x44>
9d00b4d0:	96020010 	lhu	v0,16(s0)
9d00b4d4:	8e020008 	lw	v0,8(s0)
9d00b4d8:	ae020004 	sw	v0,4(s0)
9d00b4dc:	96020010 	lhu	v0,16(s0)
9d00b4e0:	ae030000 	sw	v1,0(s0)
9d00b4e4:	34430002 	ori	v1,v0,0x2
9d00b4e8:	30441000 	andi	a0,v0,0x1000
9d00b4ec:	10800006 	beqz	a0,9d00b508 <_o_init+0x6c>
9d00b4f0:	a6030010 	sh	v1,16(s0)
9d00b4f4:	30420008 	andi	v0,v0,0x8
9d00b4f8:	14400007 	bnez	v0,9d00b518 <_o_init+0x7c>
9d00b4fc:	00000000 	nop
9d00b500:	3063efff 	andi	v1,v1,0xefff
9d00b504:	a6030010 	sh	v1,16(s0)
9d00b508:	8fbf0014 	lw	ra,20(sp)
9d00b50c:	8fb00010 	lw	s0,16(sp)
9d00b510:	03e00008 	jr	ra
9d00b514:	27bd0018 	addiu	sp,sp,24
9d00b518:	0f403188 	jal	9d00c620 <.LFE0>
9d00b51c:	86040012 	lh	a0,18(s0)
9d00b520:	1440fff7 	bnez	v0,9d00b500 <_o_init+0x64>
9d00b524:	96030010 	lhu	v1,16(s0)
9d00b528:	0b402d40 	j	9d00b500 <_o_init+0x64>
9d00b52c:	3063fff7 	andi	v1,v1,0xfff7
9d00b530:	0f402f18 	jal	9d00bc60 <_bufalloc>
9d00b534:	00000000 	nop
9d00b538:	0b402d33 	j	9d00b4cc <_o_init+0x30>
9d00b53c:	8e03000c 	lw	v1,12(s0)

Disassembly of section .text.fpcmp:

9d00b540 <__eqsf2>:
9d00b540:	2408fffe 00043040 00053840 00c74825     ...$@0..@8..%H..
9d00b550:	1120001b 00000000 3c01ff00 34210001     .. ........<..!4
9d00b560:	00c1082b 1020001a 00000000 3c01ff00     +..... ........<
9d00b570:	34210001 00e1082b 10200015 00000000     ..!4+..... .....
9d00b580:	04810002 00063042 00063023              ....B0..#0..

9d00b58c <i48>:
9d00b58c:	04a10002 	bgez	a1,9d00b598 <i49>
9d00b590:	00073842 	srl	a3,a3,0x1
9d00b594:	00073823 	negu	a3,a3

9d00b598 <i49>:
9d00b598:	00c7082a 	slt	at,a2,a3
9d00b59c:	10200003 	beqz	at,9d00b5ac <i50>
9d00b5a0:	00000000 	nop
9d00b5a4:	10000007 	b	9d00b5c4 <J999>
9d00b5a8:	2402ffff 	li	v0,-1

9d00b5ac <i50>:
9d00b5ac:	00e6082a 	slt	at,a3,a2
9d00b5b0:	10200003 	beqz	at,9d00b5c0 <Jequ>
9d00b5b4:	00000000 	nop
9d00b5b8:	10000002 	b	9d00b5c4 <J999>
9d00b5bc:	24020001 	li	v0,1

9d00b5c0 <Jequ>:
9d00b5c0:	24020000 	li	v0,0

9d00b5c4 <J999>:
9d00b5c4:	03e00008 	jr	ra
9d00b5c8:	00000000 	nop
9d00b5cc:	00000000 	nop

9d00b5d0 <Jnan>:
9d00b5d0:	1000fffc 	b	9d00b5c4 <J999>
9d00b5d4:	00081025 	or	v0,zero,t0
9d00b5d8:	00000000 	nop

Disassembly of section .text.repl:

9d00b5dc <repl>:
9d00b5dc:	27bdffd8 	addiu	sp,sp,-40
9d00b5e0:	afbf0024 	sw	ra,36(sp)
9d00b5e4:	afb40020 	sw	s4,32(sp)
9d00b5e8:	afb3001c 	sw	s3,28(sp)
9d00b5ec:	afb20018 	sw	s2,24(sp)
9d00b5f0:	afb10014 	sw	s1,20(sp)
9d00b5f4:	afb00010 	sw	s0,16(sp)
9d00b5f8:	00a08021 	move	s0,a1
9d00b5fc:	0080a021 	move	s4,a0
9d00b600:	00c09821 	move	s3,a2
9d00b604:	24120020 	li	s2,32
9d00b608:	2411ffff 	li	s1,-1
9d00b60c:	12000011 	beqz	s0,9d00b654 <repl+0x78>
9d00b610:	2e020021 	sltiu	v0,s0,33
9d00b614:	02401821 	move	v1,s2
9d00b618:	0202180b 	movn	v1,s0,v0
9d00b61c:	02602021 	move	a0,s3
9d00b620:	00602821 	move	a1,v1
9d00b624:	02803021 	move	a2,s4
9d00b628:	0f402ee4 	jal	9d00bb90 <__sputn>
9d00b62c:	02038023 	subu	s0,s0,v1
9d00b630:	1451fff6 	bne	v0,s1,9d00b60c <repl+0x30>
9d00b634:	8fbf0024 	lw	ra,36(sp)
9d00b638:	8fb40020 	lw	s4,32(sp)
9d00b63c:	8fb3001c 	lw	s3,28(sp)
9d00b640:	8fb20018 	lw	s2,24(sp)
9d00b644:	8fb10014 	lw	s1,20(sp)
9d00b648:	8fb00010 	lw	s0,16(sp)
9d00b64c:	03e00008 	jr	ra
9d00b650:	27bd0028 	addiu	sp,sp,40
9d00b654:	00001021 	move	v0,zero
9d00b658:	8fbf0024 	lw	ra,36(sp)
9d00b65c:	8fb40020 	lw	s4,32(sp)
9d00b660:	8fb3001c 	lw	s3,28(sp)
9d00b664:	8fb20018 	lw	s2,24(sp)
9d00b668:	8fb10014 	lw	s1,20(sp)
9d00b66c:	8fb00010 	lw	s0,16(sp)
9d00b670:	03e00008 	jr	ra
9d00b674:	27bd0028 	addiu	sp,sp,40

Disassembly of section .text._eat_white:

9d00b678 <_eat_white>:
9d00b678:	27bdffe0 	addiu	sp,sp,-32
9d00b67c:	afbf001c 	sw	ra,28(sp)
9d00b680:	afb20018 	sw	s2,24(sp)
9d00b684:	afb10014 	sw	s1,20(sp)
9d00b688:	afb00010 	sw	s0,16(sp)
9d00b68c:	00808021 	move	s0,a0
9d00b690:	2411ffff 	li	s1,-1
9d00b694:	3c129d01 	lui	s2,0x9d01
9d00b698:	0b402dac 	j	9d00b6b0 <_eat_white+0x38>
9d00b69c:	2652aa79 	addiu	s2,s2,-21895
9d00b6a0:	80630000 	lb	v1,0(v1)
9d00b6a4:	30630088 	andi	v1,v1,0x88
9d00b6a8:	50600010 	beqzl	v1,9d00b6ec <_eat_white+0x74>
9d00b6ac:	8e030010 	lw	v1,16(s0)
9d00b6b0:	0f402f32 	jal	9d00bcc8 <gsgetc>
9d00b6b4:	02002021 	move	a0,s0
9d00b6b8:	1451fff9 	bne	v0,s1,9d00b6a0 <_eat_white+0x28>
9d00b6bc:	00521821 	addu	v1,v0,s2
9d00b6c0:	8e030010 	lw	v1,16(s0)
9d00b6c4:	ae110004 	sw	s1,4(s0)
9d00b6c8:	2402ffff 	li	v0,-1
9d00b6cc:	2463ffff 	addiu	v1,v1,-1
9d00b6d0:	ae030010 	sw	v1,16(s0)
9d00b6d4:	8fbf001c 	lw	ra,28(sp)
9d00b6d8:	8fb20018 	lw	s2,24(sp)
9d00b6dc:	8fb10014 	lw	s1,20(sp)
9d00b6e0:	8fb00010 	lw	s0,16(sp)
9d00b6e4:	03e00008 	jr	ra
9d00b6e8:	27bd0020 	addiu	sp,sp,32
9d00b6ec:	ae020004 	sw	v0,4(s0)
9d00b6f0:	00001021 	move	v0,zero
9d00b6f4:	2463ffff 	addiu	v1,v1,-1
9d00b6f8:	ae030010 	sw	v1,16(s0)
9d00b6fc:	8fbf001c 	lw	ra,28(sp)
9d00b700:	8fb20018 	lw	s2,24(sp)
9d00b704:	8fb10014 	lw	s1,20(sp)
9d00b708:	8fb00010 	lw	s0,16(sp)
9d00b70c:	03e00008 	jr	ra
9d00b710:	27bd0020 	addiu	sp,sp,32

Disassembly of section .text._i_init:

9d00b714 <_i_init>:
9d00b714:	27bdffe8 	addiu	sp,sp,-24
9d00b718:	afbf0014 	sw	ra,20(sp)
9d00b71c:	afb00010 	sw	s0,16(sp)
9d00b720:	8c820008 	lw	v0,8(a0)
9d00b724:	1040001d 	beqz	v0,9d00b79c <_i_init+0x88>
9d00b728:	00808021 	move	s0,a0
9d00b72c:	8e02000c 	lw	v0,12(s0)
9d00b730:	54400012 	bnezl	v0,9d00b77c <_i_init+0x68>
9d00b734:	8e020008 	lw	v0,8(s0)
9d00b738:	2402ffff 	li	v0,-1
9d00b73c:	ae020004 	sw	v0,4(s0)
9d00b740:	96020010 	lhu	v0,16(s0)
9d00b744:	ae000000 	sw	zero,0(s0)
9d00b748:	34430001 	ori	v1,v0,0x1
9d00b74c:	30441000 	andi	a0,v0,0x1000
9d00b750:	10800006 	beqz	a0,9d00b76c <_i_init+0x58>
9d00b754:	a6030010 	sh	v1,16(s0)
9d00b758:	30420008 	andi	v0,v0,0x8
9d00b75c:	14400009 	bnez	v0,9d00b784 <_i_init+0x70>
9d00b760:	00000000 	nop
9d00b764:	3063efff 	andi	v1,v1,0xefff
9d00b768:	a6030010 	sh	v1,16(s0)
9d00b76c:	8fbf0014 	lw	ra,20(sp)
9d00b770:	8fb00010 	lw	s0,16(sp)
9d00b774:	03e00008 	jr	ra
9d00b778:	27bd0018 	addiu	sp,sp,24
9d00b77c:	0b402dd0 	j	9d00b740 <_i_init+0x2c>
9d00b780:	ae020004 	sw	v0,4(s0)
9d00b784:	0f403188 	jal	9d00c620 <.LFE0>
9d00b788:	86040012 	lh	a0,18(s0)
9d00b78c:	1440fff5 	bnez	v0,9d00b764 <_i_init+0x50>
9d00b790:	96030010 	lhu	v1,16(s0)
9d00b794:	0b402dd9 	j	9d00b764 <_i_init+0x50>
9d00b798:	3063fff7 	andi	v1,v1,0xfff7
9d00b79c:	0f402f18 	jal	9d00bc60 <_bufalloc>
9d00b7a0:	00000000 	nop
9d00b7a4:	0b402dcc 	j	9d00b730 <_i_init+0x1c>
9d00b7a8:	8e02000c 	lw	v0,12(s0)

Disassembly of section .text.strlen:

9d00b7ac <strlen>:
9d00b7ac:	30830003 	andi	v1,a0,0x3
9d00b7b0:	1460001e 	bnez	v1,9d00b82c <strlen+0x80>
9d00b7b4:	00801021 	move	v0,a0
9d00b7b8:	8c820000 	lw	v0,0(a0)
9d00b7bc:	3c07fefe 	lui	a3,0xfefe
9d00b7c0:	34e7feff 	ori	a3,a3,0xfeff
9d00b7c4:	00471821 	addu	v1,v0,a3
9d00b7c8:	00021027 	nor	v0,zero,v0
9d00b7cc:	3c068080 	lui	a2,0x8080
9d00b7d0:	34c68080 	ori	a2,a2,0x8080
9d00b7d4:	00621824 	and	v1,v1,v0
9d00b7d8:	00661824 	and	v1,v1,a2
9d00b7dc:	14600013 	bnez	v1,9d00b82c <strlen+0x80>
9d00b7e0:	00801021 	move	v0,a0
9d00b7e4:	24420004 	addiu	v0,v0,4
9d00b7e8:	8c430000 	lw	v1,0(v0)
9d00b7ec:	00672821 	addu	a1,v1,a3
9d00b7f0:	00031827 	nor	v1,zero,v1
9d00b7f4:	00a31824 	and	v1,a1,v1
9d00b7f8:	00661824 	and	v1,v1,a2
9d00b7fc:	5460000c 	bnezl	v1,9d00b830 <strlen+0x84>
9d00b800:	80430000 	lb	v1,0(v0)
9d00b804:	24420004 	addiu	v0,v0,4
9d00b808:	8c430000 	lw	v1,0(v0)
9d00b80c:	00672821 	addu	a1,v1,a3
9d00b810:	00031827 	nor	v1,zero,v1
9d00b814:	00a31824 	and	v1,a1,v1
9d00b818:	00661824 	and	v1,v1,a2
9d00b81c:	5060fff2 	beqzl	v1,9d00b7e8 <strlen+0x3c>
9d00b820:	24420004 	addiu	v0,v0,4
9d00b824:	0b402e0c 	j	9d00b830 <strlen+0x84>
9d00b828:	80430000 	lb	v1,0(v0)
9d00b82c:	80430000 	lb	v1,0(v0)
9d00b830:	5460fffe 	bnezl	v1,9d00b82c <strlen+0x80>
9d00b834:	24420001 	addiu	v0,v0,1
9d00b838:	03e00008 	jr	ra
9d00b83c:	00441023 	subu	v0,v0,a0

Disassembly of section .text.fptoli:

9d00b840 <__fixsfsi>:
9d00b840:	00042a00 3c018000 00a12825 00043dc2     .*.....<%(...=..
9d00b850:	30e700ff 2406009e 00c73023 18c0000d     ...0...$#0......
9d00b860:	00000000 28c10020 14200003 00000000     .... ..(.. .....
9d00b870:	10000005 24020000                       .......$

9d00b878 <i42>:
9d00b878:	04810002 	bgez	a0,9d00b884 <i43>
9d00b87c:	00c52806 	srlv	a1,a1,a2
9d00b880:	00052823 	negu	a1,a1

9d00b884 <i43>:
9d00b884:	00051025 	or	v0,zero,a1

9d00b888 <G999>:
9d00b888:	03e00008 	jr	ra
9d00b88c:	00000000 	nop
9d00b890:	00000000 	nop

9d00b894 <Gspec>:
9d00b894:	3c017f80 	lui	at,0x7f80
9d00b898:	34210001 	ori	at,at,0x1
9d00b89c:	0081082b 	sltu	at,a0,at
9d00b8a0:	14200003 	bnez	at,9d00b8b0 <i44>
9d00b8a4:	00000000 	nop
9d00b8a8:	1000fff7 	b	9d00b888 <G999>
9d00b8ac:	3c028000 	lui	v0,0x8000

9d00b8b0 <i44>:
9d00b8b0:	3c027fff 	lui	v0,0x7fff
9d00b8b4:	1000fff4 	b	9d00b888 <G999>
9d00b8b8:	3442ffff 	ori	v0,v0,0xffff
9d00b8bc:	00000000 	nop

Disassembly of section .text._fflush_simple:

9d00b8c0 <_fflush_simple>:
9d00b8c0:	27bdffe8 	addiu	sp,sp,-24
9d00b8c4:	afbf0014 	sw	ra,20(sp)
9d00b8c8:	afb00010 	sw	s0,16(sp)
9d00b8cc:	94820010 	lhu	v0,16(a0)
9d00b8d0:	30420002 	andi	v0,v0,0x2
9d00b8d4:	10400013 	beqz	v0,9d00b924 <_fflush_simple+0x64>
9d00b8d8:	00808021 	move	s0,a0
9d00b8dc:	8c850000 	lw	a1,0(a0)
9d00b8e0:	04a0000c 	bltz	a1,9d00b914 <_fflush_simple+0x54>
9d00b8e4:	00001021 	move	v0,zero
9d00b8e8:	8c82000c 	lw	v0,12(a0)
9d00b8ec:	50a20006 	beql	a1,v0,9d00b908 <_fflush_simple+0x48>
9d00b8f0:	8e030008 	lw	v1,8(s0)
9d00b8f4:	8c840008 	lw	a0,8(a0)
9d00b8f8:	0f402fcd 	jal	9d00bf34 <.LFE0>
9d00b8fc:	00452823 	subu	a1,v0,a1
9d00b900:	8e02000c 	lw	v0,12(s0)
9d00b904:	8e030008 	lw	v1,8(s0)
9d00b908:	ae020000 	sw	v0,0(s0)
9d00b90c:	ae030004 	sw	v1,4(s0)
9d00b910:	00001021 	move	v0,zero
9d00b914:	8fbf0014 	lw	ra,20(sp)
9d00b918:	8fb00010 	lw	s0,16(sp)
9d00b91c:	03e00008 	jr	ra
9d00b920:	27bd0018 	addiu	sp,sp,24
9d00b924:	2402ffff 	li	v0,-1
9d00b928:	ac820004 	sw	v0,4(a0)
9d00b92c:	00001021 	move	v0,zero
9d00b930:	8fbf0014 	lw	ra,20(sp)
9d00b934:	8fb00010 	lw	s0,16(sp)
9d00b938:	03e00008 	jr	ra
9d00b93c:	27bd0018 	addiu	sp,sp,24

Disassembly of section .text._fwrite_simple:

9d00b940 <_fwrite_simple>:
9d00b940:	27bdffd8 	addiu	sp,sp,-40
9d00b944:	afbf0024 	sw	ra,36(sp)
9d00b948:	afb10020 	sw	s1,32(sp)
9d00b94c:	afb0001c 	sw	s0,28(sp)
9d00b950:	70c58002 	mul	s0,a2,a1
9d00b954:	12000007 	beqz	s0,9d00b974 <_fwrite_simple+0x34>
9d00b958:	00001021 	move	v0,zero
9d00b95c:	94e30010 	lhu	v1,16(a3)
9d00b960:	30630001 	andi	v1,v1,0x1
9d00b964:	10600008 	beqz	v1,9d00b988 <_fwrite_simple+0x48>
9d00b968:	3c03a000 	lui	v1,0xa000
9d00b96c:	24040009 	li	a0,9
9d00b970:	ac640058 	sw	a0,88(v1)
9d00b974:	8fbf0024 	lw	ra,36(sp)
9d00b978:	8fb10020 	lw	s1,32(sp)
9d00b97c:	8fb0001c 	lw	s0,28(sp)
9d00b980:	03e00008 	jr	ra
9d00b984:	27bd0028 	addiu	sp,sp,40
9d00b988:	00808821 	move	s1,a0
9d00b98c:	00e02021 	move	a0,a3
9d00b990:	0f402e30 	jal	9d00b8c0 <_fflush_simple>
9d00b994:	afa60010 	sw	a2,16(sp)
9d00b998:	02202021 	move	a0,s1
9d00b99c:	0f402fcd 	jal	9d00bf34 <.LFE0>
9d00b9a0:	02002821 	move	a1,s0
9d00b9a4:	8fa60010 	lw	a2,16(sp)
9d00b9a8:	00c01021 	move	v0,a2
9d00b9ac:	8fbf0024 	lw	ra,36(sp)
9d00b9b0:	8fb10020 	lw	s1,32(sp)
9d00b9b4:	8fb0001c 	lw	s0,28(sp)
9d00b9b8:	03e00008 	jr	ra
9d00b9bc:	27bd0028 	addiu	sp,sp,40

Disassembly of section .text.fgetc:

9d00b9c0 <fgetc>:
9d00b9c0:	27bdffe8 	addiu	sp,sp,-24
9d00b9c4:	afbf0014 	sw	ra,20(sp)
9d00b9c8:	afb00010 	sw	s0,16(sp)
9d00b9cc:	00808021 	move	s0,a0
9d00b9d0:	8c820018 	lw	v0,24(a0)
9d00b9d4:	8c420010 	lw	v0,16(v0)
9d00b9d8:	0040f809 	jalr	v0
9d00b9dc:	24050002 	li	a1,2
9d00b9e0:	10400009 	beqz	v0,9d00ba08 <fgetc+0x48>
9d00b9e4:	2402ffff 	li	v0,-1
9d00b9e8:	8e020000 	lw	v0,0(s0)
9d00b9ec:	2442ffff 	addiu	v0,v0,-1
9d00b9f0:	04400009 	bltz	v0,9d00ba18 <fgetc+0x58>
9d00b9f4:	ae020000 	sw	v0,0(s0)
9d00b9f8:	8e020004 	lw	v0,4(s0)
9d00b9fc:	24430001 	addiu	v1,v0,1
9d00ba00:	ae030004 	sw	v1,4(s0)
9d00ba04:	90420000 	lbu	v0,0(v0)
9d00ba08:	8fbf0014 	lw	ra,20(sp)
9d00ba0c:	8fb00010 	lw	s0,16(sp)
9d00ba10:	03e00008 	jr	ra
9d00ba14:	27bd0018 	addiu	sp,sp,24
9d00ba18:	8e020018 	lw	v0,24(s0)
9d00ba1c:	8c420000 	lw	v0,0(v0)
9d00ba20:	0040f809 	jalr	v0
9d00ba24:	02002021 	move	a0,s0
9d00ba28:	8fbf0014 	lw	ra,20(sp)
9d00ba2c:	8fb00010 	lw	s0,16(sp)
9d00ba30:	03e00008 	jr	ra
9d00ba34:	27bd0018 	addiu	sp,sp,24

Disassembly of section .text.litodp:

9d00ba38 <__floatsidf>:
9d00ba38:	24050000 00054825 00053825 00043025     ...$%H..%8..%0..
9d00ba48:	10c0000c 00000000 04c10006 00000000     ................
9d00ba58:	3c098000 0005502b 00052823 00063023     ...<+P..#(..#0..
9d00ba68:	00ca3023                                #0..

9d00ba6c <i40>:
9d00ba6c:	2407041e 	li	a3,1054
9d00ba70:	70c84020 	clz	t0,a2
9d00ba74:	00e83823 	subu	a3,a3,t0
9d00ba78:	01063004 	sllv	a2,a2,t0

9d00ba7c <i39>:
9d00ba7c:	000542c2 	srl	t0,a1,0xb
9d00ba80:	00065540 	sll	t2,a2,0x15
9d00ba84:	010a4025 	or	t0,t0,t2
9d00ba88:	00065040 	sll	t2,a2,0x1
9d00ba8c:	000a5302 	srl	t2,t2,0xc
9d00ba90:	012a4825 	or	t1,t1,t2
9d00ba94:	00075500 	sll	t2,a3,0x14
9d00ba98:	012a4825 	or	t1,t1,t2
9d00ba9c:	00081025 	or	v0,zero,t0
9d00baa0:	00091825 	or	v1,zero,t1

9d00baa4 <E999>:
9d00baa4:	03e00008 	jr	ra
9d00baa8:	00000000 	nop
9d00baac:	00000000 	nop

Disassembly of section .text._sscanf_cdfFnopuxX:

9d00bab0 <_sscanf_cdfFnopuxX>:
9d00bab0:	27bdffc0 	addiu	sp,sp,-64
9d00bab4:	afbf003c 	sw	ra,60(sp)
9d00bab8:	afb00038 	sw	s0,56(sp)
9d00babc:	00808021 	move	s0,a0
9d00bac0:	afa60048 	sw	a2,72(sp)
9d00bac4:	afa7004c 	sw	a3,76(sp)
9d00bac8:	2402ffff 	li	v0,-1
9d00bacc:	a7a20022 	sh	v0,34(sp)
9d00bad0:	24020081 	li	v0,129
9d00bad4:	a7a20020 	sh	v0,32(sp)
9d00bad8:	0f402deb 	jal	9d00b7ac <strlen>
9d00badc:	afa50030 	sw	a1,48(sp)
9d00bae0:	27a30048 	addiu	v1,sp,72
9d00bae4:	27a40010 	addiu	a0,sp,16
9d00bae8:	8fa50030 	lw	a1,48(sp)
9d00baec:	00603021 	move	a2,v1
9d00baf0:	afa20010 	sw	v0,16(sp)
9d00baf4:	afa2001c 	sw	v0,28(sp)
9d00baf8:	afb00018 	sw	s0,24(sp)
9d00bafc:	afb00014 	sw	s0,20(sp)
9d00bb00:	3c029d01 	lui	v0,0x9d01
9d00bb04:	2442c4f8 	addiu	v0,v0,-15112
9d00bb08:	afa20028 	sw	v0,40(sp)
9d00bb0c:	0f400780 	jal	9d001e00 <do_scan>
9d00bb10:	afa3002c 	sw	v1,44(sp)
9d00bb14:	8fbf003c 	lw	ra,60(sp)
9d00bb18:	8fb00038 	lw	s0,56(sp)
9d00bb1c:	03e00008 	jr	ra
9d00bb20:	27bd0040 	addiu	sp,sp,64

Disassembly of section .text._sprintf_cdfFnopuxX:

9d00bb24 <_sprintf_cdfFnopuxX>:
9d00bb24:	27bdffc8 	addiu	sp,sp,-56
9d00bb28:	afbf0034 	sw	ra,52(sp)
9d00bb2c:	27a20040 	addiu	v0,sp,64
9d00bb30:	00801821 	move	v1,a0
9d00bb34:	afa60040 	sw	a2,64(sp)
9d00bb38:	27a40010 	addiu	a0,sp,16
9d00bb3c:	00403021 	move	a2,v0
9d00bb40:	afa70044 	sw	a3,68(sp)
9d00bb44:	2407ffff 	li	a3,-1
9d00bb48:	a7a70022 	sh	a3,34(sp)
9d00bb4c:	24070082 	li	a3,130
9d00bb50:	a7a70020 	sh	a3,32(sp)
9d00bb54:	3c077fff 	lui	a3,0x7fff
9d00bb58:	34e7fffe 	ori	a3,a3,0xfffe
9d00bb5c:	afa70010 	sw	a3,16(sp)
9d00bb60:	afa30018 	sw	v1,24(sp)
9d00bb64:	afa30014 	sw	v1,20(sp)
9d00bb68:	3c039d01 	lui	v1,0x9d01
9d00bb6c:	2463c4f8 	addiu	v1,v1,-15112
9d00bb70:	afa30028 	sw	v1,40(sp)
9d00bb74:	0f400a87 	jal	9d002a1c <_do_print_cdfFnopuxX>
9d00bb78:	afa2002c 	sw	v0,44(sp)
9d00bb7c:	8fa30014 	lw	v1,20(sp)
9d00bb80:	a0600000 	sb	zero,0(v1)
9d00bb84:	8fbf0034 	lw	ra,52(sp)
9d00bb88:	03e00008 	jr	ra
9d00bb8c:	27bd0038 	addiu	sp,sp,56

Disassembly of section .text.__sputn:

9d00bb90 <__sputn>:
9d00bb90:	27bdffd8 	addiu	sp,sp,-40
9d00bb94:	afbf0024 	sw	ra,36(sp)
9d00bb98:	afb30020 	sw	s3,32(sp)
9d00bb9c:	afb2001c 	sw	s2,28(sp)
9d00bba0:	afb10018 	sw	s1,24(sp)
9d00bba4:	afb00014 	sw	s0,20(sp)
9d00bba8:	00808021 	move	s0,a0
9d00bbac:	00c09021 	move	s2,a2
9d00bbb0:	00858821 	addu	s1,a0,a1
9d00bbb4:	0b402ef4 	j	9d00bbd0 <__sputn+0x40>
9d00bbb8:	2413ffff 	li	s3,-1
9d00bbbc:	26100001 	addiu	s0,s0,1
9d00bbc0:	0f402ca8 	jal	9d00b2a0 <.LFE3>
9d00bbc4:	8204ffff 	lb	a0,-1(s0)
9d00bbc8:	10530005 	beq	v0,s3,9d00bbe0 <__sputn+0x50>
9d00bbcc:	8fbf0024 	lw	ra,36(sp)
9d00bbd0:	1611fffa 	bne	s0,s1,9d00bbbc <__sputn+0x2c>
9d00bbd4:	02402821 	move	a1,s2
9d00bbd8:	00001021 	move	v0,zero
9d00bbdc:	8fbf0024 	lw	ra,36(sp)
9d00bbe0:	8fb30020 	lw	s3,32(sp)
9d00bbe4:	8fb2001c 	lw	s2,28(sp)
9d00bbe8:	8fb10018 	lw	s1,24(sp)
9d00bbec:	8fb00014 	lw	s0,20(sp)
9d00bbf0:	03e00008 	jr	ra
9d00bbf4:	27bd0028 	addiu	sp,sp,40

Disassembly of section .text.memmove:

9d00bbf8 <memmove>:
9d00bbf8:	27bdffe8 	addiu	sp,sp,-24
9d00bbfc:	0085102b 	sltu	v0,a0,a1
9d00bc00:	14400012 	bnez	v0,9d00bc4c <memmove+0x54>
9d00bc04:	afbf0014 	sw	ra,20(sp)
9d00bc08:	00a61021 	addu	v0,a1,a2
9d00bc0c:	0082102b 	sltu	v0,a0,v0
9d00bc10:	1040000e 	beqz	v0,9d00bc4c <memmove+0x54>
9d00bc14:	24c2ffff 	addiu	v0,a2,-1
9d00bc18:	00821821 	addu	v1,a0,v0
9d00bc1c:	00a22821 	addu	a1,a1,v0
9d00bc20:	10c00006 	beqz	a2,9d00bc3c <memmove+0x44>
9d00bc24:	00663823 	subu	a3,v1,a2
9d00bc28:	24a5ffff 	addiu	a1,a1,-1
9d00bc2c:	90a60001 	lbu	a2,1(a1)
9d00bc30:	2463ffff 	addiu	v1,v1,-1
9d00bc34:	1467fffc 	bne	v1,a3,9d00bc28 <memmove+0x30>
9d00bc38:	a0660001 	sb	a2,1(v1)
9d00bc3c:	00801021 	move	v0,a0
9d00bc40:	8fbf0014 	lw	ra,20(sp)
9d00bc44:	03e00008 	jr	ra
9d00bc48:	27bd0018 	addiu	sp,sp,24
9d00bc4c:	0f4030ba 	jal	9d00c2e8 <memcpy>
9d00bc50:	00000000 	nop
9d00bc54:	8fbf0014 	lw	ra,20(sp)
9d00bc58:	03e00008 	jr	ra
9d00bc5c:	27bd0018 	addiu	sp,sp,24

Disassembly of section .text._bufalloc:

9d00bc60 <_bufalloc>:
9d00bc60:	27bdffe8 	addiu	sp,sp,-24
9d00bc64:	afbf0014 	sw	ra,20(sp)
9d00bc68:	afb00010 	sw	s0,16(sp)
9d00bc6c:	00808021 	move	s0,a0
9d00bc70:	8c84000c 	lw	a0,12(a0)
9d00bc74:	5880000e 	blezl	a0,9d00bcb0 <_bufalloc+0x50>
9d00bc78:	ae00000c 	sw	zero,12(s0)
9d00bc7c:	0f400d37 	jal	9d0034dc <malloc>
9d00bc80:	00000000 	nop
9d00bc84:	10400009 	beqz	v0,9d00bcac <_bufalloc+0x4c>
9d00bc88:	ae020008 	sw	v0,8(s0)
9d00bc8c:	96030010 	lhu	v1,16(s0)
9d00bc90:	ae020004 	sw	v0,4(s0)
9d00bc94:	34620010 	ori	v0,v1,0x10
9d00bc98:	a6020010 	sh	v0,16(s0)
9d00bc9c:	8fbf0014 	lw	ra,20(sp)
9d00bca0:	8fb00010 	lw	s0,16(sp)
9d00bca4:	03e00008 	jr	ra
9d00bca8:	27bd0018 	addiu	sp,sp,24
9d00bcac:	ae00000c 	sw	zero,12(s0)
9d00bcb0:	2402ffff 	li	v0,-1
9d00bcb4:	ae020004 	sw	v0,4(s0)
9d00bcb8:	8fbf0014 	lw	ra,20(sp)
9d00bcbc:	8fb00010 	lw	s0,16(sp)
9d00bcc0:	03e00008 	jr	ra
9d00bcc4:	27bd0018 	addiu	sp,sp,24

Disassembly of section .text.gsgetc:

9d00bcc8 <gsgetc>:
9d00bcc8:	27bdffe0 	addiu	sp,sp,-32
9d00bccc:	afbf001c 	sw	ra,28(sp)
9d00bcd0:	afb10018 	sw	s1,24(sp)
9d00bcd4:	afb00014 	sw	s0,20(sp)
9d00bcd8:	8c820004 	lw	v0,4(a0)
9d00bcdc:	2411ffff 	li	s1,-1
9d00bce0:	1051000a 	beq	v0,s1,9d00bd0c <gsgetc+0x44>
9d00bce4:	00808021 	move	s0,a0
9d00bce8:	ac910004 	sw	s1,4(a0)
9d00bcec:	8e030010 	lw	v1,16(s0)
9d00bcf0:	24630001 	addiu	v1,v1,1
9d00bcf4:	ae030010 	sw	v1,16(s0)
9d00bcf8:	8fbf001c 	lw	ra,28(sp)
9d00bcfc:	8fb10018 	lw	s1,24(sp)
9d00bd00:	8fb00014 	lw	s0,20(sp)
9d00bd04:	03e00008 	jr	ra
9d00bd08:	27bd0020 	addiu	sp,sp,32
9d00bd0c:	0f402e70 	jal	9d00b9c0 <fgetc>
9d00bd10:	8c840000 	lw	a0,0(a0)
9d00bd14:	1451fff5 	bne	v0,s1,9d00bcec <gsgetc+0x24>
9d00bd18:	8fbf001c 	lw	ra,28(sp)
9d00bd1c:	8fb10018 	lw	s1,24(sp)
9d00bd20:	8fb00014 	lw	s0,20(sp)
9d00bd24:	03e00008 	jr	ra
9d00bd28:	27bd0020 	addiu	sp,sp,32

Disassembly of section .text._buffree:

9d00bd2c <_buffree>:
9d00bd2c:	27bdffe8 	addiu	sp,sp,-24
9d00bd30:	afbf0014 	sw	ra,20(sp)
9d00bd34:	afb00010 	sw	s0,16(sp)
9d00bd38:	00808021 	move	s0,a0
9d00bd3c:	8c840008 	lw	a0,8(a0)
9d00bd40:	10800010 	beqz	a0,9d00bd84 <_buffree+0x58>
9d00bd44:	8fbf0014 	lw	ra,20(sp)
9d00bd48:	96020010 	lhu	v0,16(s0)
9d00bd4c:	30420010 	andi	v0,v0,0x10
9d00bd50:	5040000d 	beqzl	v0,9d00bd88 <_buffree+0x5c>
9d00bd54:	8fb00010 	lw	s0,16(sp)
9d00bd58:	0f402418 	jal	9d009060 <free>
9d00bd5c:	00000000 	nop
9d00bd60:	96020010 	lhu	v0,16(s0)
9d00bd64:	ae000008 	sw	zero,8(s0)
9d00bd68:	3042ffe7 	andi	v0,v0,0xffe7
9d00bd6c:	ae00000c 	sw	zero,12(s0)
9d00bd70:	ae000000 	sw	zero,0(s0)
9d00bd74:	2403ffff 	li	v1,-1
9d00bd78:	ae030004 	sw	v1,4(s0)
9d00bd7c:	a6020010 	sh	v0,16(s0)
9d00bd80:	8fbf0014 	lw	ra,20(sp)
9d00bd84:	8fb00010 	lw	s0,16(sp)
9d00bd88:	03e00008 	jr	ra
9d00bd8c:	27bd0018 	addiu	sp,sp,24

Disassembly of section .text.sitofp:

9d00bd90 <__floatsisf>:
9d00bd90:	3c018000 10800012 00813024 04810002     ...<....$0......
9d00bda0:	00000000 00042023                       ....# ..

9d00bda8 <i40>:
9d00bda8:	2405009e 	li	a1,158
9d00bdac:	70873820 	clz	a3,a0
9d00bdb0:	00a72823 	subu	a1,a1,a3
9d00bdb4:	00e42004 	sllv	a0,a0,a3
9d00bdb8:	24840080 	addiu	a0,a0,128
9d00bdbc:	2c880080 	sltiu	t0,a0,128
9d00bdc0:	00a82821 	addu	a1,a1,t0
9d00bdc4:	00044203 	sra	t0,a0,0x8
9d00bdc8:	31080001 	andi	t0,t0,0x1
9d00bdcc:	00882023 	subu	a0,a0,t0
9d00bdd0:	00042040 	sll	a0,a0,0x1
9d00bdd4:	00042242 	srl	a0,a0,0x9
9d00bdd8:	000545c0 	sll	t0,a1,0x17
9d00bddc:	00882025 	or	a0,a0,t0

9d00bde0 <i39>:
9d00bde0:	00861025 	or	v0,a0,a2

9d00bde4 <E999>:
9d00bde4:	03e00008 	jr	ra
9d00bde8:	00000000 	nop
9d00bdec:	00000000 	nop

Disassembly of section .text.main_entry:

9d00bdf0 <_main_entry>:
9d00bdf0:	3c040000 	lui	a0,0x0
9d00bdf4:	27bdffe8 	addiu	sp,sp,-24
9d00bdf8:	24840000 	addiu	a0,a0,0
9d00bdfc:	10800003 	beqz	a0,9d00be0c <_main_entry+0x1c>
9d00be00:	afbf0014 	sw	ra,20(sp)
9d00be04:	0080f809 	jalr	a0
9d00be08:	00000000 	nop
9d00be0c:	30840000 	andi	a0,a0,0x0
9d00be10:	30a50000 	andi	a1,a1,0x0
9d00be14:	3c089d00 	lui	t0,0x9d00
9d00be18:	25083d1c 	addiu	t0,t0,15644
9d00be1c:	0100f809 	jalr	t0
9d00be20:	00000000 	nop

9d00be24 <__crt0_exit>:
9d00be24:	3c020000 24420000 10400003 00000000     ...<..B$..@.....
9d00be34:	0040f809 00000000 1000fff9 00000000     ..@.............

Disassembly of section .rodata:

9d00be44 <zeroData-0x8>:
9d00be44:	6c756e28 	0x6c756e28
9d00be48:	0000296c 	0x296c

9d00be4c <zeroData>:
9d00be4c:	30303030 30303030 30303030 30303030     0000000000000000
9d00be5c:	30303030 30303030 30303030 30303030     0000000000000000

9d00be6c <spaceData>:
9d00be6c:	20202020 20202020 20202020 20202020                     
9d00be7c:	20202020 20202020 20202020 20202020                     
9d00be8c:	41200000 3c23d70a 40800000              .. A..#<...@

Disassembly of section .text.sbrk:

9d00be98 <sbrk>:
9d00be98:	27bdffe0 	addiu	sp,sp,-32
9d00be9c:	afbf001c 	sw	ra,28(sp)
9d00bea0:	afb10018 	sw	s1,24(sp)
9d00bea4:	afb00014 	sw	s0,20(sp)
9d00bea8:	0f402c76 	jal	9d00b1d8 <_sbrk>
9d00beac:	00808821 	move	s1,a0
9d00beb0:	1a200007 	blez	s1,9d00bed0 <sbrk+0x38>
9d00beb4:	00408021 	move	s0,v0
9d00beb8:	2402ffff 	li	v0,-1
9d00bebc:	12020004 	beq	s0,v0,9d00bed0 <sbrk+0x38>
9d00bec0:	02002021 	move	a0,s0
9d00bec4:	00002821 	move	a1,zero
9d00bec8:	0f4030d0 	jal	9d00c340 <.LFE1>
9d00becc:	02203021 	move	a2,s1
9d00bed0:	02001021 	move	v0,s0
9d00bed4:	8fbf001c 	lw	ra,28(sp)
9d00bed8:	8fb10018 	lw	s1,24(sp)
9d00bedc:	8fb00014 	lw	s0,20(sp)
9d00bee0:	03e00008 	jr	ra
9d00bee4:	27bd0020 	addiu	sp,sp,32

Disassembly of section .text:

9d00bee8 <__floatunsisf>:
9d00bee8:	27bdffe8 	addiu	sp,sp,-24
9d00beec:	afbf0014 	sw	ra,20(sp)
9d00bef0:	04800006 	bltz	a0,9d00bf0c <__floatunsisf+0x24>
9d00bef4:	00801021 	move	v0,a0
9d00bef8:	0f402f64 	jal	9d00bd90 <__floatsisf>
9d00befc:	00000000 	nop
9d00bf00:	8fbf0014 	lw	ra,20(sp)
9d00bf04:	03e00008 	jr	ra
9d00bf08:	27bd0018 	addiu	sp,sp,24
9d00bf0c:	00042042 	srl	a0,a0,0x1
9d00bf10:	30420001 	andi	v0,v0,0x1
9d00bf14:	0f402f64 	jal	9d00bd90 <__floatsisf>
9d00bf18:	00822025 	or	a0,a0,v0
9d00bf1c:	00402021 	move	a0,v0
9d00bf20:	0f4025fa 	jal	9d0097e8 <__addsf3>
9d00bf24:	00402821 	move	a1,v0
9d00bf28:	8fbf0014 	lw	ra,20(sp)
9d00bf2c:	03e00008 	jr	ra
9d00bf30:	27bd0018 	addiu	sp,sp,24

Disassembly of section .text._mon_write:

9d00bf34 <_mon_write>:
9d00bf34:	27bdffe0 	addiu	sp,sp,-32
9d00bf38:	afbf001c 	sw	ra,28(sp)
9d00bf3c:	afb10018 	sw	s1,24(sp)
9d00bf40:	afb00014 	sw	s0,20(sp)
9d00bf44:	10800009 	beqz	a0,9d00bf6c <_mon_write+0x38>
9d00bf48:	00808021 	move	s0,a0
9d00bf4c:	10a00007 	beqz	a1,9d00bf6c <_mon_write+0x38>
9d00bf50:	00a08821 	move	s1,a1
9d00bf54:	82040000 	lb	a0,0(s0)
9d00bf58:	2631ffff 	addiu	s1,s1,-1
9d00bf5c:	0f402c0c 	jal	9d00b030 <_mon_putc>
9d00bf60:	26100001 	addiu	s0,s0,1
9d00bf64:	5620fffc 	bnezl	s1,9d00bf58 <_mon_write+0x24>
9d00bf68:	82040000 	lb	a0,0(s0)
9d00bf6c:	8fbf001c 	lw	ra,28(sp)
9d00bf70:	8fb10018 	lw	s1,24(sp)
9d00bf74:	8fb00014 	lw	s0,20(sp)
9d00bf78:	03e00008 	jr	ra
9d00bf7c:	27bd0020 	addiu	sp,sp,32

Disassembly of section .rodata:

9d00bf80 <.LC0>:
9d00bf80:	0a0d6425 	j	98359094 <_bmxdkpba_address+0x98339094>
9d00bf84:	00000000 	nop

9d00bf88 <.LC1>:
9d00bf88:	00006425 	0x6425

9d00bf8c <.LC2>:
9d00bf8c:	25206625 	addiu	zero,t1,26149
9d00bf90:	00000066 	0x66
9d00bf94:	25206625 	addiu	zero,t1,26149
9d00bf98:	000a0d66 	0xa0d66

9d00bf9c <.LC4>:
9d00bf9c:	25206625 	addiu	zero,t1,26149
9d00bfa0:	66252066 	0x66252066
9d00bfa4:	00000000 	nop

9d00bfa8 <.LC5>:
9d00bfa8:	25206625 	addiu	zero,t1,26149
9d00bfac:	66252066 	0x66252066
9d00bfb0:	00000a0d 	break	0x0,0x28
9d00bfb4:	25206425 	addiu	zero,t1,25637
9d00bfb8:	000a0d64 	0xa0d64
9d00bfbc:	00006625 	0x6625

9d00bfc0 <.LC8>:
9d00bfc0:	25206425 	addiu	zero,t1,25637
9d00bfc4:	00000064 	0x64

Disassembly of section .text._bootstrap_exception_handler:

9d00bfc8 <_bootstrap_exception_handler>:
9d00bfc8:	3c020000 	lui	v0,0x0
9d00bfcc:	24420000 	addiu	v0,v0,0
9d00bfd0:	10400005 	beqz	v0,9d00bfe8 <_bootstrap_exception_handler+0x20>
9d00bfd4:	3c020000 	lui	v0,0x0
9d00bfd8:	24420000 	addiu	v0,v0,0
9d00bfdc:	10400003 	beqz	v0,9d00bfec <_bootstrap_exception_handler+0x24>
9d00bfe0:	3c029d01 	lui	v0,0x9d01
9d00bfe4:	7000003f 	sdbbp
9d00bfe8:	3c029d01 	lui	v0,0x9d01
9d00bfec:	2442c0e8 	addiu	v0,v0,-16152
9d00bff0:	10400005 	beqz	v0,9d00c008 <_bootstrap_exception_handler+0x40>
9d00bff4:	00000000 	nop
9d00bff8:	27bdffe8 	addiu	sp,sp,-24
9d00bffc:	afbf0014 	sw	ra,20(sp)
9d00c000:	0040f809 	jalr	v0
9d00c004:	00000000 	nop
9d00c008:	0b403002 	j	9d00c008 <_bootstrap_exception_handler+0x40>
9d00c00c:	00000000 	nop

Disassembly of section .text._general_exception_handler:

9d00c010 <_general_exception_handler>:
9d00c010:	3c020000 	lui	v0,0x0
9d00c014:	24420000 	addiu	v0,v0,0
9d00c018:	10400005 	beqz	v0,9d00c030 <_general_exception_handler+0x20>
9d00c01c:	3c020000 	lui	v0,0x0
9d00c020:	24420000 	addiu	v0,v0,0
9d00c024:	10400003 	beqz	v0,9d00c034 <_general_exception_handler+0x24>
9d00c028:	3c029d01 	lui	v0,0x9d01
9d00c02c:	7000003f 	sdbbp
9d00c030:	3c029d01 	lui	v0,0x9d01
9d00c034:	2442c0e8 	addiu	v0,v0,-16152
9d00c038:	10400005 	beqz	v0,9d00c050 <_general_exception_handler+0x40>
9d00c03c:	00000000 	nop
9d00c040:	27bdffe8 	addiu	sp,sp,-24
9d00c044:	afbf0014 	sw	ra,20(sp)
9d00c048:	0040f809 	jalr	v0
9d00c04c:	00000000 	nop
9d00c050:	0b403014 	j	9d00c050 <_general_exception_handler+0x40>
9d00c054:	00000000 	nop

Disassembly of section .vector_default:

9d00c058 <_DefaultInterrupt>:
9d00c058:	3c020000 	lui	v0,0x0
9d00c05c:	24420000 	addiu	v0,v0,0
9d00c060:	10400007 	beqz	v0,9d00c080 <_DefaultInterrupt+0x28>
9d00c064:	3c020000 	lui	v0,0x0
9d00c068:	24420000 	addiu	v0,v0,0
9d00c06c:	50400005 	beqzl	v0,9d00c084 <_DefaultInterrupt+0x2c>
9d00c070:	3c029d01 	lui	v0,0x9d01
9d00c074:	7000003f 	sdbbp
9d00c078:	03e00008 	jr	ra
9d00c07c:	00000000 	nop
9d00c080:	3c029d01 	lui	v0,0x9d01
9d00c084:	2442c0e8 	addiu	v0,v0,-16152
9d00c088:	10400003 	beqz	v0,9d00c098 <_DefaultInterrupt+0x40>
9d00c08c:	00000000 	nop
9d00c090:	0040f809 	jalr	v0
9d00c094:	00000000 	nop
9d00c098:	03e00008 	jr	ra
9d00c09c:	00000000 	nop

Disassembly of section .rodata:

9d00c0a0 <f5pow>:
9d00c0a0:	00000000 40140000 00000000 40390000     .......@......9@
9d00c0b0:	00000000 40838800 00000000 4117d784     .......@.......A
9d00c0c0:	37e08000 4241c379 b5056e17 4493b8b5     ...7y.AB.n.....D
9d00c0d0:	e93ff9f5 49384f03 f9301d32 52827748     ..?..O8I2.0.Hw.R
9d00c0e0:	7f73bf3c 65154fdd                       <.s..O.e

Disassembly of section .text:

9d00c0e8 <__pic32_software_reset>:
9d00c0e8:	41606000 	di
9d00c0ec:	000000c0 	ehb
9d00c0f0:	3c03aa99 	lui	v1,0xaa99
9d00c0f4:	3c02bf81 	lui	v0,0xbf81
9d00c0f8:	24636655 	addiu	v1,v1,26197
9d00c0fc:	ac40f230 	sw	zero,-3536(v0)
9d00c100:	ac43f230 	sw	v1,-3536(v0)
9d00c104:	3c035566 	lui	v1,0x5566
9d00c108:	346399aa 	ori	v1,v1,0x99aa
9d00c10c:	ac43f230 	sw	v1,-3536(v0)
9d00c110:	3c02bf81 	lui	v0,0xbf81
9d00c114:	24030001 	li	v1,1
9d00c118:	ac43f618 	sw	v1,-2536(v0)
9d00c11c:	3c02bf81 	lui	v0,0xbf81
9d00c120:	8c42f610 	lw	v0,-2544(v0)
9d00c124:	0b40303c 	j	9d00c0f0 <__pic32_software_reset+0x8>
9d00c128:	00000000 	nop

Disassembly of section .text._io_exit:

9d00c12c <.text._io_exit>:
9d00c12c:	27bdffe8 	addiu	sp,sp,-24
9d00c130:	afbf0014 	sw	ra,20(sp)
9d00c134:	afb00010 	sw	s0,16(sp)
9d00c138:	3c10a000 	lui	s0,0xa000
9d00c13c:	0f40315e 	jal	9d00c578 <_weak_pthread_mutex_lock>
9d00c140:	260447c0 	addiu	a0,s0,18368
9d00c144:	3c02a000 	lui	v0,0xa000
9d00c148:	8c420014 	lw	v0,20(v0)
9d00c14c:	260447c0 	addiu	a0,s0,18368
9d00c150:	24030001 	li	v1,1
9d00c154:	0f403162 	jal	9d00c588 <_weak_pthread_mutex_unlock>
9d00c158:	ac430038 	sw	v1,56(v0)
9d00c15c:	8fbf0014 	lw	ra,20(sp)
9d00c160:	8fb00010 	lw	s0,16(sp)
9d00c164:	03e00008 	jr	ra
9d00c168:	27bd0018 	addiu	sp,sp,24

Disassembly of section .text:

9d00c16c <__lshrdi3>:
9d00c16c:	10c00009 	beqz	a2,9d00c194 <__lshrdi3+0x28>
9d00c170:	00801021 	move	v0,a0
9d00c174:	24020020 	li	v0,32
9d00c178:	00461023 	subu	v0,v0,a2
9d00c17c:	18400007 	blez	v0,9d00c19c <__lshrdi3+0x30>
9d00c180:	00c42006 	srlv	a0,a0,a2
9d00c184:	00451004 	sllv	v0,a1,v0
9d00c188:	00c51806 	srlv	v1,a1,a2
9d00c18c:	03e00008 	jr	ra
9d00c190:	00441025 	or	v0,v0,a0
9d00c194:	03e00008 	jr	ra
9d00c198:	00a01821 	move	v1,a1
9d00c19c:	00021023 	negu	v0,v0
9d00c1a0:	00001821 	move	v1,zero
9d00c1a4:	03e00008 	jr	ra
9d00c1a8:	00451006 	srlv	v0,a1,v0

9d00c1ac <__ashldi3>:
9d00c1ac:	10c00009 	beqz	a2,9d00c1d4 <__ashldi3+0x28>
9d00c1b0:	00801021 	move	v0,a0
9d00c1b4:	24030020 	li	v1,32
9d00c1b8:	00661823 	subu	v1,v1,a2
9d00c1bc:	18600007 	blez	v1,9d00c1dc <__ashldi3+0x30>
9d00c1c0:	00c52804 	sllv	a1,a1,a2
9d00c1c4:	00641806 	srlv	v1,a0,v1
9d00c1c8:	00c41004 	sllv	v0,a0,a2
9d00c1cc:	03e00008 	jr	ra
9d00c1d0:	00651825 	or	v1,v1,a1
9d00c1d4:	03e00008 	jr	ra
9d00c1d8:	00a01821 	move	v1,a1
9d00c1dc:	00031823 	negu	v1,v1
9d00c1e0:	00001021 	move	v0,zero
9d00c1e4:	03e00008 	jr	ra
9d00c1e8:	00641804 	sllv	v1,a0,v1

Disassembly of section .text._weak_pthread_once:

9d00c1ec <_weak_pthread_once>:
9d00c1ec:	8c820000 	lw	v0,0(a0)
9d00c1f0:	10400003 	beqz	v0,9d00c200 <_weak_pthread_once+0x14>
9d00c1f4:	00001021 	move	v0,zero
9d00c1f8:	03e00008 	jr	ra
9d00c1fc:	00000000 	nop
9d00c200:	27bdffe8 	addiu	sp,sp,-24
9d00c204:	afbf0014 	sw	ra,20(sp)
9d00c208:	24020002 	li	v0,2
9d00c20c:	00a0f809 	jalr	a1
9d00c210:	ac820000 	sw	v0,0(a0)
9d00c214:	00001021 	move	v0,zero
9d00c218:	8fbf0014 	lw	ra,20(sp)
9d00c21c:	03e00008 	jr	ra
9d00c220:	27bd0018 	addiu	sp,sp,24

Disassembly of section .text._filbuf_simple:

9d00c224 <_filbuf_simple>:
9d00c224:	8c820004 	lw	v0,4(a0)
9d00c228:	2403ffff 	li	v1,-1
9d00c22c:	10430003 	beq	v0,v1,9d00c23c <_filbuf_simple+0x18>
9d00c230:	ac800000 	sw	zero,0(a0)
9d00c234:	03e00008 	jr	ra
9d00c238:	ac830004 	sw	v1,4(a0)
9d00c23c:	27bdffe8 	addiu	sp,sp,-24
9d00c240:	afbf0014 	sw	ra,20(sp)
9d00c244:	0f402b9c 	jal	9d00ae70 <_mon_getc>
9d00c248:	24040001 	li	a0,1
9d00c24c:	8fbf0014 	lw	ra,20(sp)
9d00c250:	03e00008 	jr	ra
9d00c254:	27bd0018 	addiu	sp,sp,24

Disassembly of section .text._fsync_simple:

9d00c258 <_fsync_simple>:
9d00c258:	94830010 	lhu	v1,16(a0)
9d00c25c:	00a32824 	and	a1,a1,v1
9d00c260:	10a00007 	beqz	a1,9d00c280 <_fsync_simple+0x28>
9d00c264:	24020001 	li	v0,1
9d00c268:	34630040 	ori	v1,v1,0x40
9d00c26c:	a4830010 	sh	v1,16(a0)
9d00c270:	24030009 	li	v1,9
9d00c274:	3c02a000 	lui	v0,0xa000
9d00c278:	ac430058 	sw	v1,88(v0)
9d00c27c:	00001021 	move	v0,zero
9d00c280:	03e00008 	jr	ra
9d00c284:	00000000 	nop

Disassembly of section .rodata:

9d00c288 <.rodata>:
9d00c288:	33323130 	andi	s2,t9,0x3130
9d00c28c:	37363534 	ori	s6,t9,0x3534
9d00c290:	00000000 	nop
9d00c294:	33323130 	andi	s2,t9,0x3130
9d00c298:	37363534 	ori	s6,t9,0x3534
9d00c29c:	42413938 	c0	0x413938
9d00c2a0:	46454443 	c1	0x454443
9d00c2a4:	64636261 	0x64636261
9d00c2a8:	00006665 	0x6665
9d00c2ac:	33323130 	andi	s2,t9,0x3130
9d00c2b0:	37363534 	ori	s6,t9,0x3534
9d00c2b4:	00003938 	0x3938

Disassembly of section .text._cleanup:

9d00c2b8 <_cleanup>:
9d00c2b8:	3c02a000 	lui	v0,0xa000
9d00c2bc:	8c4247e4 	lw	v0,18404(v0)
9d00c2c0:	10400007 	beqz	v0,9d00c2e0 <_cleanup+0x28>
9d00c2c4:	00000000 	nop
9d00c2c8:	27bdffe8 	addiu	sp,sp,-24
9d00c2cc:	afbf0014 	sw	ra,20(sp)
9d00c2d0:	0040f809 	jalr	v0
9d00c2d4:	00000000 	nop
9d00c2d8:	8fbf0014 	lw	ra,20(sp)
9d00c2dc:	27bd0018 	addiu	sp,sp,24
9d00c2e0:	03e00008 	jr	ra
9d00c2e4:	00000000 	nop

Disassembly of section .text.memcpy:

9d00c2e8 <memcpy>:
9d00c2e8:	00801021 	move	v0,a0
9d00c2ec:	00863821 	addu	a3,a0,a2
9d00c2f0:	10c00006 	beqz	a2,9d00c30c <memcpy+0x24>
9d00c2f4:	00801821 	move	v1,a0
9d00c2f8:	24a50001 	addiu	a1,a1,1
9d00c2fc:	90a6ffff 	lbu	a2,-1(a1)
9d00c300:	24630001 	addiu	v1,v1,1
9d00c304:	1467fffc 	bne	v1,a3,9d00c2f8 <memcpy+0x10>
9d00c308:	a066ffff 	sb	a2,-1(v1)
9d00c30c:	03e00008 	jr	ra
9d00c310:	00000000 	nop

Disassembly of section .text._stub_sbd_memlayout:

9d00c314 <_stub_sbd_memlayout>:
9d00c314:	3c03a000 	lui	v1,0xa000
9d00c318:	2462479c 	addiu	v0,v1,18332
9d00c31c:	24040001 	li	a0,1
9d00c320:	ac440008 	sw	a0,8(v0)
9d00c324:	3c04a000 	lui	a0,0xa000
9d00c328:	248447f0 	addiu	a0,a0,18416
9d00c32c:	ac64479c 	sw	a0,18332(v1)
9d00c330:	3c030000 	lui	v1,0x0
9d00c334:	24630000 	addiu	v1,v1,0
9d00c338:	03e00008 	jr	ra
9d00c33c:	ac430004 	sw	v1,4(v0)

Disassembly of section .text.memset:

9d00c340 <memset>:
9d00c340:	10c00007 	beqz	a2,9d00c360 <memset+0x20>
9d00c344:	00801021 	move	v0,a0
9d00c348:	30a500ff 	andi	a1,a1,0xff
9d00c34c:	00863021 	addu	a2,a0,a2
9d00c350:	00801821 	move	v1,a0
9d00c354:	24630001 	addiu	v1,v1,1
9d00c358:	1466fffe 	bne	v1,a2,9d00c354 <memset+0x14>
9d00c35c:	a065ffff 	sb	a1,-1(v1)
9d00c360:	03e00008 	jr	ra
9d00c364:	00000000 	nop

Disassembly of section .text.putchar:

9d00c368 <putchar>:
9d00c368:	27bdffe8 	addiu	sp,sp,-24
9d00c36c:	afbf0014 	sw	ra,20(sp)
9d00c370:	3c02a000 	lui	v0,0xa000
9d00c374:	8c420014 	lw	v0,20(v0)
9d00c378:	0f402ca8 	jal	9d00b2a0 <.LFE3>
9d00c37c:	8c450004 	lw	a1,4(v0)
9d00c380:	8fbf0014 	lw	ra,20(sp)
9d00c384:	03e00008 	jr	ra
9d00c388:	27bd0018 	addiu	sp,sp,24

Disassembly of section .text.getchar:

9d00c38c <getchar>:
9d00c38c:	27bdffe8 	addiu	sp,sp,-24
9d00c390:	afbf0014 	sw	ra,20(sp)
9d00c394:	3c02a000 	lui	v0,0xa000
9d00c398:	8c420014 	lw	v0,20(v0)
9d00c39c:	0f402e70 	jal	9d00b9c0 <fgetc>
9d00c3a0:	8c440000 	lw	a0,0(v0)
9d00c3a4:	8fbf0014 	lw	ra,20(sp)
9d00c3a8:	03e00008 	jr	ra
9d00c3ac:	27bd0018 	addiu	sp,sp,24

Disassembly of section .text._vfprintf_cdfFnopuxX:

9d00c3b0 <_vfprintf_cdfFnopuxX>:
9d00c3b0:	27bdffe8 	addiu	sp,sp,-24
9d00c3b4:	afbf0014 	sw	ra,20(sp)
9d00c3b8:	0f400a87 	jal	9d002a1c <_do_print_cdfFnopuxX>
9d00c3bc:	00000000 	nop
9d00c3c0:	8fbf0014 	lw	ra,20(sp)
9d00c3c4:	03e00008 	jr	ra
9d00c3c8:	27bd0018 	addiu	sp,sp,24

Disassembly of section .text.putc:

9d00c3cc <putc>:
9d00c3cc:	27bdffe8 	addiu	sp,sp,-24
9d00c3d0:	afbf0014 	sw	ra,20(sp)
9d00c3d4:	0f402ca8 	jal	9d00b2a0 <.LFE3>
9d00c3d8:	00000000 	nop
9d00c3dc:	8fbf0014 	lw	ra,20(sp)
9d00c3e0:	03e00008 	jr	ra
9d00c3e4:	27bd0018 	addiu	sp,sp,24

Disassembly of section .text.vfscanf:

9d00c3e8 <vfscanf>:
9d00c3e8:	27bdffe8 	addiu	sp,sp,-24
9d00c3ec:	afbf0014 	sw	ra,20(sp)
9d00c3f0:	0f400780 	jal	9d001e00 <do_scan>
9d00c3f4:	00000000 	nop
9d00c3f8:	8fbf0014 	lw	ra,20(sp)
9d00c3fc:	03e00008 	jr	ra
9d00c400:	27bd0018 	addiu	sp,sp,24

Disassembly of section .text.strtod:

9d00c404 <strtod>:
9d00c404:	27bdffe8 	addiu	sp,sp,-24
9d00c408:	afbf0014 	sw	ra,20(sp)
9d00c40c:	0f401f3d 	jal	9d007cf4 <__strtod>
9d00c410:	00000000 	nop
9d00c414:	8fbf0014 	lw	ra,20(sp)
9d00c418:	03e00008 	jr	ra
9d00c41c:	27bd0018 	addiu	sp,sp,24

Disassembly of section .text.strtof:

9d00c420 <strtof>:
9d00c420:	27bdffe8 	addiu	sp,sp,-24
9d00c424:	afbf0014 	sw	ra,20(sp)
9d00c428:	0f402113 	jal	9d00844c <__strtof>
9d00c42c:	00000000 	nop
9d00c430:	8fbf0014 	lw	ra,20(sp)
9d00c434:	03e00008 	jr	ra
9d00c438:	27bd0018 	addiu	sp,sp,24

Disassembly of section .text.getc:

9d00c43c <getc>:
9d00c43c:	27bdffe8 	addiu	sp,sp,-24
9d00c440:	afbf0014 	sw	ra,20(sp)
9d00c444:	0f402e70 	jal	9d00b9c0 <fgetc>
9d00c448:	00000000 	nop
9d00c44c:	8fbf0014 	lw	ra,20(sp)
9d00c450:	03e00008 	jr	ra
9d00c454:	27bd0018 	addiu	sp,sp,24

Disassembly of section .text.negdf2:

9d00c458 <__negdf2>:
9d00c458:	3c018000 00a12826 00041025 00051825     ...<&(..%...%...

9d00c468 <M999>:
9d00c468:	03e00008 	jr	ra
9d00c46c:	00000000 	nop
9d00c470:	00000000 	nop

Disassembly of section .text:

9d00c474 <get_mode>:
#include <xc.h>

static volatile int current_mode = IDLE;

int get_mode() {
  return current_mode;
9d00c474:	8f828064 	lw	v0,-32668(gp)
}
9d00c478:	03e00008 	jr	ra
9d00c47c:	00000000 	nop

9d00c480 <set_mode>:

void set_mode(int mode) {
  current_mode = mode;
9d00c480:	af848064 	sw	a0,-32668(gp)
9d00c484:	03e00008 	jr	ra
9d00c488:	00000000 	nop

9d00c48c <_nmi_handler>:
9d00c48c:	401a6000 	mfc0	k0,c0_status
9d00c490:	3c1bffbf 	lui	k1,0xffbf
9d00c494:	377bffff 	ori	k1,k1,0xffff
9d00c498:	035bd024 	and	k0,k0,k1
9d00c49c:	409a6000 	mtc0	k0,c0_status
9d00c4a0:	42000018 	eret

Disassembly of section .rodata:

9d00c4a4 <f5pow>:
9d00c4a4:	40a00000 41c80000 441c4000 48bebc20     ...@...A.@.D ..H
9d00c4b4:	520e1bca 649dc5ae                       ...R...d

Disassembly of section .text._io_exit:

9d00c4bc <_io_exit>:
9d00c4bc:	3c02a000 	lui	v0,0xa000
9d00c4c0:	8c420014 	lw	v0,20(v0)
9d00c4c4:	24030001 	li	v1,1
9d00c4c8:	03e00008 	jr	ra
9d00c4cc:	ac430038 	sw	v1,56(v0)

Disassembly of section .rodata:

9d00c4d0 <_io_funcs>:
9d00c4d0:	9d00c224 9d00ac80 9d00b8c0 9d00b940     $...........@...
9d00c4e0:	9d00c258                                X...

Disassembly of section .text._io_exit:

9d00c4e4 <.text._io_exit>:
9d00c4e4:	3c02a000 	lui	v0,0xa000
9d00c4e8:	8c420014 	lw	v0,20(v0)
9d00c4ec:	24030001 	li	v1,1
9d00c4f0:	03e00008 	jr	ra
9d00c4f4:	ac430038 	sw	v1,56(v0)

Disassembly of section .rodata:

9d00c4f8 <_io_strfuncs>:
9d00c4f8:	9d00c540 9d00c548 9d00c550 9d00c558     @...H...P...X...
9d00c508:	9d00c560                                `...

Disassembly of section .text.negsf2:

9d00c50c <__negsf2>:
9d00c50c:	3c018000 00811026                       ...<&...

9d00c514 <L999>:
9d00c514:	03e00008 	jr	ra
9d00c518:	00000000 	nop
9d00c51c:	00000000 	nop

Disassembly of section .rodata:

9d00c520 <.rodata>:
9d00c520:	42c80000 	c0	0xc80000
9d00c524:	c2c80000 	ll	t0,0(s6)
9d00c528:	3fc75f70 	0x3fc75f70
9d00c52c:	4444c402 	0x4444c402

Disassembly of section .text._on_reset:

9d00c530 <_on_reset>:
9d00c530:	03e00008 	jr	ra
9d00c534:	00000000 	nop

Disassembly of section .text._on_bootstrap:

9d00c538 <_on_bootstrap>:
9d00c538:	03e00008 	jr	ra
9d00c53c:	00000000 	nop

Disassembly of section .text._filbuf_string:

9d00c540 <_filbuf_string>:
9d00c540:	03e00008 	jr	ra
9d00c544:	2402ffff 	li	v0,-1

Disassembly of section .text._flsbuf_string:

9d00c548 <_flsbuf_string>:
9d00c548:	03e00008 	jr	ra
9d00c54c:	00801021 	move	v0,a0

Disassembly of section .text._fflush_string:

9d00c550 <_fflush_string>:
9d00c550:	03e00008 	jr	ra
9d00c554:	00001021 	move	v0,zero

Disassembly of section .text._fwrite_string:

9d00c558 <_fwrite_string>:
9d00c558:	03e00008 	jr	ra
9d00c55c:	00001021 	move	v0,zero

Disassembly of section .text._fsync_string:

9d00c560 <_fsync_string>:
9d00c560:	03e00008 	jr	ra
9d00c564:	24020001 	li	v0,1

Disassembly of section .text._weak_pthread_mutex_init:

9d00c568 <_weak_pthread_mutex_init>:
9d00c568:	03e00008 	jr	ra
9d00c56c:	00001021 	move	v0,zero

Disassembly of section .text._weak_pthread_mutex_destroy:

9d00c570 <_weak_pthread_mutex_destroy>:
9d00c570:	03e00008 	jr	ra
9d00c574:	00001021 	move	v0,zero

Disassembly of section .text._weak_pthread_mutex_lock:

9d00c578 <_weak_pthread_mutex_lock>:
9d00c578:	03e00008 	jr	ra
9d00c57c:	00001021 	move	v0,zero

Disassembly of section .text._weak_pthread_mutex_trylock:

9d00c580 <_weak_pthread_mutex_trylock>:
9d00c580:	03e00008 	jr	ra
9d00c584:	00001021 	move	v0,zero

Disassembly of section .text._weak_pthread_mutex_unlock:

9d00c588 <_weak_pthread_mutex_unlock>:
9d00c588:	03e00008 	jr	ra
9d00c58c:	00001021 	move	v0,zero

Disassembly of section .text._weak_pthread_mutex_setname_np:

9d00c590 <_weak_pthread_mutex_setname_np>:
9d00c590:	03e00008 	jr	ra
9d00c594:	00001021 	move	v0,zero

Disassembly of section .text._weak_pthread_mutexattr_init:

9d00c598 <_weak_pthread_mutexattr_init>:
9d00c598:	03e00008 	jr	ra
9d00c59c:	00001021 	move	v0,zero

Disassembly of section .text._weak_pthread_mutexattr_destroy:

9d00c5a0 <_weak_pthread_mutexattr_destroy>:
9d00c5a0:	03e00008 	jr	ra
9d00c5a4:	00001021 	move	v0,zero

Disassembly of section .text._weak_pthread_mutexattr_setname_np:

9d00c5a8 <_weak_pthread_mutexattr_setname_np>:
9d00c5a8:	03e00008 	jr	ra
9d00c5ac:	00001021 	move	v0,zero

Disassembly of section .text._weak_pthread_mutexattr_settype_np:

9d00c5b0 <_weak_pthread_mutexattr_settype_np>:
9d00c5b0:	03e00008 	jr	ra
9d00c5b4:	00001021 	move	v0,zero

Disassembly of section .text._weak_pthread_sysconf_np:

9d00c5b8 <_weak_pthread_sysconf_np>:
9d00c5b8:	03e00008 	jr	ra
9d00c5bc:	2402ffff 	li	v0,-1

Disassembly of section .text._weak_pthread_sigdisable_np:

9d00c5c0 <_weak_pthread_sigdisable_np>:
9d00c5c0:	03e00008 	jr	ra
9d00c5c4:	00000000 	nop

Disassembly of section .text._weak_pthread_sigrestore_np:

9d00c5c8 <_weak_pthread_sigrestore_np>:
9d00c5c8:	03e00008 	jr	ra
9d00c5cc:	00000000 	nop

Disassembly of section .text._weak__pthread_cleanup_push:

9d00c5d0 <_weak__pthread_cleanup_push>:
9d00c5d0:	03e00008 	jr	ra
9d00c5d4:	00000000 	nop

Disassembly of section .text._weak__pthread_cleanup_pop:

9d00c5d8 <_weak__pthread_cleanup_pop>:
9d00c5d8:	03e00008 	jr	ra
9d00c5dc:	00000000 	nop

Disassembly of section .text._weak__pthread_cleanup_push_defer:

9d00c5e0 <_weak__pthread_cleanup_push_defer>:
9d00c5e0:	03e00008 	jr	ra
9d00c5e4:	00000000 	nop

Disassembly of section .text._weak__pthread_cleanup_pop_restore:

9d00c5e8 <_weak__pthread_cleanup_pop_restore>:
9d00c5e8:	03e00008 	jr	ra
9d00c5ec:	00000000 	nop

Disassembly of section .text._weak_pthread_key_create:

9d00c5f0 <_weak_pthread_key_create>:
9d00c5f0:	03e00008 	jr	ra
9d00c5f4:	2402ffff 	li	v0,-1

Disassembly of section .text._weak_pthread_setspecific:

9d00c5f8 <_weak_pthread_setspecific>:
9d00c5f8:	03e00008 	jr	ra
9d00c5fc:	2402ffff 	li	v0,-1

Disassembly of section .text._weak_pthread_getspecific:

9d00c600 <_weak_pthread_getspecific>:
9d00c600:	03e00008 	jr	ra
9d00c604:	00001021 	move	v0,zero

Disassembly of section .text._weak__libc_private_storage:

9d00c608 <_weak__libc_private_storage>:
9d00c608:	03e00008 	jr	ra
9d00c60c:	00a01021 	move	v0,a1

Disassembly of section .text.getpagesize:

9d00c610 <getpagesize>:
9d00c610:	03e00008 	jr	ra
9d00c614:	24020080 	li	v0,128

Disassembly of section .text._exit:

9d00c618 <_exit>:
9d00c618:	0b403186 	j	9d00c618 <_exit>
9d00c61c:	00000000 	nop

Disassembly of section .text.isatty:

9d00c620 <isatty>:
9d00c620:	03e00008 	jr	ra
9d00c624:	00001021 	move	v0,zero

Disassembly of section .rodata:

9d00c628 <.rodata>:
9d00c628:	41200000 	0x41200000
